Certificate:
    Data:
        Version: 3 (0x2)
        Serial Number: 5 (0x5)
        Signature Algorithm: md5WithRSAEncryption
        Issuer: C=MY, ST=MAHA, L=PUNE, O=PSPL, OU=OBLIX-QA, CN=ps2436/Email=sagar@pspl.com
        Validity
            Not Before: Jun  9 06:07:33 2008 GMT
            Not After : Jun  9 06:07:33 2009 GMT
        Subject: C=US, ST=Maharastra, L=Pune, O=Persistent, OU=Oblix, CN=gruel.us.oracle.com
        Subject Public Key Info:
            Public Key Algorithm: rsaEncryption
            RSA Public Key: (1024 bit)
                Modulus (1024 bit):
                    00:c8:eb:b1:54:6b:83:46:58:2e:53:69:57:eb:64:
                    c4:22:0b:37:75:f8:e7:db:0c:24:1d:1f:29:37:41:
                    73:52:27:c4:64:d6:19:8f:e9:64:c0:1c:8c:fa:d6:
                    ea:55:8d:3c:e7:a6:1e:eb:42:e3:c7:de:bd:0c:cd:
                    04:ea:e8:ad:02:44:17:41:a8:ee:3e:4f:a7:75:37:
                    f2:d6:77:02:7a:cd:16:a6:eb:8b:82:31:e3:64:18:
                    d6:07:dd:bc:86:20:e8:f1:41:87:52:05:0b:1b:53:
                    eb:cd:3b:6a:61:08:ed:16:be:4c:f6:e4:16:98:47:
                    e8:a4:9d:61:24:e4:c5:0a:65
                Exponent: 65537 (0x10001)
        X509v3 extensions:
            X509v3 Authority Key Identifier: 
                keyid:DB:F8:6A:15:0A:82:53:1F:C2:EB:CC:D0:6E:83:72:57:E4:45:F2:74

            X509v3 Extended Key Usage: 
                TLS Web Server Authentication, TLS Web Client Authentication, Microsoft Server Gated Crypto, Netscape Server Gated Crypto
            X509v3 Basic Constraints: critical
                CA:FALSE
    Signature Algorithm: md5WithRSAEncryption
        33:8b:a2:88:93:92:97:70:fd:47:f5:47:ec:20:a3:9f:6e:58:
        52:d6:49:c4:d5:bb:94:e1:bc:ba:4c:b5:21:f9:ac:cc:7b:20:
        31:02:54:0f:18:6c:0a:1f:fe:41:35:6a:54:41:52:63:42:8e:
        a9:25:0e:49:0f:81:ac:e0:86:c4:ce:c0:3b:c3:87:0d:40:81:
        e7:2d:a5:c9:41:d2:6a:e9:ce:06:a6:e4:c4:30:c0:0b:fe:fb:
        b4:9d:76:8b:a1:7d:02:df:08:f3:3a:e7:e6:cf:94:27:55:2f:
        32:89:3c:d0:0d:5b:91:d2:1f:f1:52:b8:e9:a1:7f:0f:1e:41:
        dd:f1
-----BEGIN CERTIFICATE-----
MIICzjCCAjegAwIBAgIBBTANBgkqhkiG9w0BAQQFADB9MQswCQYDVQQGEwJNWTEN
MAsGA1UECBMETUFIQTENMAsGA1UEBxMEUFVORTENMAsGA1UEChMEUFNQTDERMA8G
A1UECxMIT0JMSVgtUUExDzANBgNVBAMTBnBzMjQzNjEdMBsGCSqGSIb3DQEJARYO
c2FnYXJAcHNwbC5jb20wHhcNMDgwNjA5MDYwNzMzWhcNMDkwNjA5MDYwNzMzWjB0
MQswCQYDVQQGEwJVUzETMBEGA1UECBMKTWFoYXJhc3RyYTENMAsGA1UEBxMEUHVu
ZTETMBEGA1UEChMKUGVyc2lzdGVudDEOMAwGA1UECxMFT2JsaXgxHDAaBgNVBAMT
E2dydWVsLnVzLm9yYWNsZS5jb20wgZ8wDQYJKoZIhvcNAQEBBQADgY0AMIGJAoGB
AMjrsVRrg0ZYLlNpV+tkxCILN3X459sMJB0fKTdBc1InxGTWGY/pZMAcjPrW6lWN
POemHutC48fevQzNBOrorQJEF0Go7j5Pp3U38tZ3AnrNFqbri4Ix42QY1gfdvIYg
6PFBh1IFCxtT6807amEI7Ra+TPbkFphH6KSdYSTkxQplAgMBAAGjZzBlMB8GA1Ud
IwQYMBaAFNv4ahUKglMfwuvM0G6DclfkRfJ0MDQGA1UdJQQtMCsGCCsGAQUFBwMB
BggrBgEFBQcDAgYKKwYBBAGCNwoDAwYJYIZIAYb4QgQBMAwGA1UdEwEB/wQCMAAw
DQYJKoZIhvcNAQEEBQADgYEAM4uiiJOSl3D9R/VH7CCjn25YUtZJxNW7lOG8uky1
IfmszHsgMQJUDxhsCh/+QTVqVEFSY0KOqSUOSQ+BrOCGxM7AO8OHDUCB5y2lyUHS
aunOBqbkxDDAC/77tJ12i6F9At8I8zrn5s+UJ1UvMok80A1bkdIf8VK46aF/Dx5B
3fE=
-----END CERTIFICATE-----
