Certificate:
    Data:
        Version: 3 (0x2)
        Serial Number: 6 (0x6)
        Signature Algorithm: md5WithRSAEncryption
        Issuer: C=MY, ST=MAHA, L=PUNE, O=PSPL, OU=OBLIX-QA, CN=ps2436/Email=sagar@pspl.com
        Validity
            Not Before: Jun  9 11:33:28 2008 GMT
            Not After : Jun  9 11:33:28 2009 GMT
        Subject: C=IN, ST=maha, L=pune, O=pspl, OU=oblix, CN=ps0733
        Subject Public Key Info:
            Public Key Algorithm: rsaEncryption
            RSA Public Key: (1024 bit)
                Modulus (1024 bit):
                    00:dc:9f:76:2f:33:e2:e7:d9:da:c7:b8:e5:88:2e:
                    45:cd:ee:1b:2e:96:5d:27:1b:20:0e:de:ee:3c:0e:
                    bd:bf:4b:bf:e0:7a:76:72:ef:80:40:63:c9:d9:71:
                    e6:0c:45:29:06:0f:9c:f7:25:02:76:da:55:53:fd:
                    ea:3a:50:8f:4d:29:94:7a:3f:20:7b:ab:e2:e6:17:
                    6b:3d:ca:a0:7c:1d:69:79:c0:7b:f7:78:6f:fc:96:
                    58:c8:51:71:98:5d:0b:39:d0:e9:71:99:3d:35:83:
                    e3:30:e1:1d:a2:76:86:b2:25:44:63:54:11:49:13:
                    d4:b3:3c:fb:17:cd:36:a4:01
                Exponent: 65537 (0x10001)
        X509v3 extensions:
            X509v3 Authority Key Identifier: 
                keyid:DB:F8:6A:15:0A:82:53:1F:C2:EB:CC:D0:6E:83:72:57:E4:45:F2:74

            X509v3 Extended Key Usage: 
                TLS Web Server Authentication, TLS Web Client Authentication, Microsoft Server Gated Crypto, Netscape Server Gated Crypto
            X509v3 Basic Constraints: critical
                CA:FALSE
    Signature Algorithm: md5WithRSAEncryption
        1d:77:ca:3a:17:d7:4b:d1:9d:05:11:58:9b:6b:85:c6:27:49:
        78:91:4c:00:22:cd:00:b6:84:d8:bf:c0:49:b1:7f:48:09:8c:
        02:0f:10:ed:bd:fd:8d:12:db:90:13:7c:2e:30:99:a4:8e:7b:
        0c:7d:91:37:52:23:a2:d2:d2:c2:65:1f:1e:dd:7f:fa:bb:2c:
        39:2b:08:5b:b0:2e:68:1d:7d:e1:c8:bc:ad:42:83:ed:ff:40:
        87:d6:27:11:e9:c7:f2:71:4b:de:8e:02:5d:c7:e7:31:9a:db:
        31:71:c6:13:48:53:88:00:5a:db:58:14:0f:8b:35:38:16:54:
        aa:7f
-----BEGIN CERTIFICATE-----
MIICtTCCAh6gAwIBAgIBBjANBgkqhkiG9w0BAQQFADB9MQswCQYDVQQGEwJNWTEN
MAsGA1UECBMETUFIQTENMAsGA1UEBxMEUFVORTENMAsGA1UEChMEUFNQTDERMA8G
A1UECxMIT0JMSVgtUUExDzANBgNVBAMTBnBzMjQzNjEdMBsGCSqGSIb3DQEJARYO
c2FnYXJAcHNwbC5jb20wHhcNMDgwNjA5MTEzMzI4WhcNMDkwNjA5MTEzMzI4WjBb
MQswCQYDVQQGEwJJTjENMAsGA1UECBMEbWFoYTENMAsGA1UEBxMEcHVuZTENMAsG
A1UEChMEcHNwbDEOMAwGA1UECxMFb2JsaXgxDzANBgNVBAMTBnBzMDczMzCBnzAN
BgkqhkiG9w0BAQEFAAOBjQAwgYkCgYEA3J92LzPi59nax7jliC5Fze4bLpZdJxsg
Dt7uPA69v0u/4Hp2cu+AQGPJ2XHmDEUpBg+c9yUCdtpVU/3qOlCPTSmUej8ge6vi
5hdrPcqgfB1pecB793hv/JZYyFFxmF0LOdDpcZk9NYPjMOEdonaGsiVEY1QRSRPU
szz7F802pAECAwEAAaNnMGUwHwYDVR0jBBgwFoAU2/hqFQqCUx/C68zQboNyV+RF
8nQwNAYDVR0lBC0wKwYIKwYBBQUHAwEGCCsGAQUFBwMCBgorBgEEAYI3CgMDBglg
hkgBhvhCBAEwDAYDVR0TAQH/BAIwADANBgkqhkiG9w0BAQQFAAOBgQAdd8o6F9dL
0Z0FEViba4XGJ0l4kUwAIs0AtoTYv8BJsX9ICYwCDxDtvf2NEtuQE3wuMJmkjnsM
fZE3UiOi0tLCZR8e3X/6uyw5KwhbsC5oHX3hyLytQoPt/0CH1icR6cfycUvejgJd
x+cxmtsxccYTSFOIAFrbWBQPizU4FlSqfw==
-----END CERTIFICATE-----
