Certificate:
    Data:
        Version: 3 (0x2)
        Serial Number: 7 (0x7)
        Signature Algorithm: md5WithRSAEncryption
        Issuer: C=MY, ST=MAHA, L=PUNE, O=PSPL, OU=OBLIX-QA, CN=ps2436/Email=sagar@pspl.com
        Validity
            Not Before: Jun  9 12:40:33 2008 GMT
            Not After : Jun  9 12:40:33 2009 GMT
        Subject: C=IN, ST=Maharashtra, L=Pune, O=PSL, OU=OblixQA, CN=server-crt
        Subject Public Key Info:
            Public Key Algorithm: rsaEncryption
            RSA Public Key: (1024 bit)
                Modulus (1024 bit):
                    00:ab:ab:01:0c:d6:a1:3b:d7:c2:5d:38:eb:d5:0c:
                    b8:22:8d:ff:99:14:de:ee:b3:1b:ee:87:7d:f7:f8:
                    c8:08:09:b9:5e:cb:8e:10:b1:01:1a:9b:92:97:6a:
                    05:45:de:bd:64:5e:40:15:2a:58:ca:7e:bc:36:42:
                    9b:0e:5a:13:ba:b9:40:1c:9d:04:0e:4b:2d:9f:1f:
                    3c:25:f4:0f:db:f8:bd:d9:09:fc:bc:66:fc:1b:39:
                    24:bc:13:7f:28:e7:81:5b:43:17:ec:55:12:76:12:
                    02:0e:6c:1c:67:6b:67:e4:e6:73:4e:f8:d3:1f:d3:
                    b6:5e:a7:a5:cf:a0:93:e5:63
                Exponent: 65537 (0x10001)
        X509v3 extensions:
            X509v3 Authority Key Identifier: 
                keyid:DB:F8:6A:15:0A:82:53:1F:C2:EB:CC:D0:6E:83:72:57:E4:45:F2:74

            X509v3 Extended Key Usage: 
                TLS Web Server Authentication, TLS Web Client Authentication, Microsoft Server Gated Crypto, Netscape Server Gated Crypto
            X509v3 Basic Constraints: critical
                CA:FALSE
    Signature Algorithm: md5WithRSAEncryption
        b9:08:b3:89:a1:ab:8b:cf:b0:35:05:ad:3e:98:f7:74:02:1e:
        7e:79:0a:7e:e3:62:d9:e1:ac:b7:8e:f6:bc:80:5d:8b:cd:ea:
        e3:64:d9:c1:1f:1b:47:23:0d:65:c4:28:f4:fd:75:e0:8a:69:
        90:30:9a:f1:35:c2:89:20:c4:3b:c5:d3:2e:31:f6:43:ed:b5:
        04:d5:e9:99:da:41:80:69:cb:a8:00:fd:a3:5c:d1:47:f5:ab:
        38:c6:f0:ce:6a:2c:b0:c8:79:ed:1e:7e:c7:60:42:63:d7:fa:
        86:f8:c2:43:c4:ed:bc:7a:84:35:ed:d6:b1:86:b9:02:6b:1e:
        84:30
-----BEGIN CERTIFICATE-----
MIICwTCCAiqgAwIBAgIBBzANBgkqhkiG9w0BAQQFADB9MQswCQYDVQQGEwJNWTEN
MAsGA1UECBMETUFIQTENMAsGA1UEBxMEUFVORTENMAsGA1UEChMEUFNQTDERMA8G
A1UECxMIT0JMSVgtUUExDzANBgNVBAMTBnBzMjQzNjEdMBsGCSqGSIb3DQEJARYO
c2FnYXJAcHNwbC5jb20wHhcNMDgwNjA5MTI0MDMzWhcNMDkwNjA5MTI0MDMzWjBn
MQswCQYDVQQGEwJJTjEUMBIGA1UECBMLTWFoYXJhc2h0cmExDTALBgNVBAcTBFB1
bmUxDDAKBgNVBAoTA1BTTDEQMA4GA1UECxMHT2JsaXhRQTETMBEGA1UEAxMKc2Vy
dmVyLWNydDCBnzANBgkqhkiG9w0BAQEFAAOBjQAwgYkCgYEAq6sBDNahO9fCXTjr
1Qy4Io3/mRTe7rMb7od99/jICAm5XsuOELEBGpuSl2oFRd69ZF5AFSpYyn68NkKb
DloTurlAHJ0EDkstnx88JfQP2/i92Qn8vGb8GzkkvBN/KOeBW0MX7FUSdhICDmwc
Z2tn5OZzTvjTH9O2Xqelz6CT5WMCAwEAAaNnMGUwHwYDVR0jBBgwFoAU2/hqFQqC
Ux/C68zQboNyV+RF8nQwNAYDVR0lBC0wKwYIKwYBBQUHAwEGCCsGAQUFBwMCBgor
BgEEAYI3CgMDBglghkgBhvhCBAEwDAYDVR0TAQH/BAIwADANBgkqhkiG9w0BAQQF
AAOBgQC5CLOJoauLz7A1Ba0+mPd0Ah5+eQp+42LZ4ay3jva8gF2LzerjZNnBHxtH
Iw1lxCj0/XXgimmQMJrxNcKJIMQ7xdMuMfZD7bUE1emZ2kGAacuoAP2jXNFH9as4
xvDOaiywyHntHn7HYEJj1/qG+MJDxO28eoQ17daxhrkCax6EMA==
-----END CERTIFICATE-----
