Certificate:
    Data:
        Version: 3 (0x2)
        Serial Number: 9 (0x9)
        Signature Algorithm: md5WithRSAEncryption
        Issuer: C=MY, ST=MAHA, L=PUNE, O=PSPL, OU=OBLIX-QA, CN=ps2436/Email=sagar@pspl.com
        Validity
            Not Before: Jun 11 10:56:23 2008 GMT
            Not After : Jun 11 10:56:23 2009 GMT
        Subject: C=IN, ST=MAHARASHTRA, L=PUNE, O=PSL, OU=OBLIXQA, CN=v-ps5959-v2.persistent.co.in
        Subject Public Key Info:
            Public Key Algorithm: rsaEncryption
            RSA Public Key: (1024 bit)
                Modulus (1024 bit):
                    00:d3:75:3b:52:27:e5:75:0b:21:a9:53:32:07:5d:
                    7d:80:f7:61:d1:9c:1c:4a:81:39:4a:6d:12:01:8e:
                    b5:c3:35:47:98:49:e9:71:1c:b6:80:88:61:93:3e:
                    68:b5:18:39:2f:a8:15:79:8f:13:5d:ff:6a:fe:a5:
                    55:3e:c6:c6:ee:90:75:66:5b:fa:fe:50:8c:15:ab:
                    13:e9:5e:1c:61:26:d0:cd:5b:1d:12:12:1c:7d:f3:
                    94:c6:82:9d:a7:08:7b:4e:32:69:e4:f9:ce:ee:73:
                    6f:a4:94:3f:7a:4e:da:f2:4f:8f:2f:51:ac:66:29:
                    44:87:02:5c:2f:69:ae:66:9b
                Exponent: 65537 (0x10001)
        X509v3 extensions:
            X509v3 Authority Key Identifier: 
                keyid:DB:F8:6A:15:0A:82:53:1F:C2:EB:CC:D0:6E:83:72:57:E4:45:F2:74

            X509v3 Extended Key Usage: 
                TLS Web Server Authentication, TLS Web Client Authentication, Microsoft Server Gated Crypto, Netscape Server Gated Crypto
            X509v3 Basic Constraints: critical
                CA:FALSE
    Signature Algorithm: md5WithRSAEncryption
        59:da:42:6a:3a:89:92:8c:e7:47:b8:78:b5:b1:d4:03:9a:d5:
        da:17:65:67:21:1f:3e:87:02:12:47:ca:8d:aa:c7:a1:26:45:
        b0:09:a9:91:aa:32:f1:3d:81:ce:7d:70:58:e3:5a:e2:0b:8c:
        7f:66:86:fa:ab:fc:24:a9:e6:17:f7:83:29:5c:1d:06:09:92:
        68:04:6b:d8:b7:76:e8:76:4b:82:4e:b1:d7:c9:50:d1:f5:b0:
        47:c1:99:f7:c0:a9:6d:b5:66:56:1f:d1:3d:3d:da:a3:be:ca:
        18:92:9c:2d:50:9a:af:45:83:ed:d8:c7:b2:ee:89:12:ba:c1:
        7d:0b
-----BEGIN CERTIFICATE-----
MIIC0zCCAjygAwIBAgIBCTANBgkqhkiG9w0BAQQFADB9MQswCQYDVQQGEwJNWTEN
MAsGA1UECBMETUFIQTENMAsGA1UEBxMEUFVORTENMAsGA1UEChMEUFNQTDERMA8G
A1UECxMIT0JMSVgtUUExDzANBgNVBAMTBnBzMjQzNjEdMBsGCSqGSIb3DQEJARYO
c2FnYXJAcHNwbC5jb20wHhcNMDgwNjExMTA1NjIzWhcNMDkwNjExMTA1NjIzWjB5
MQswCQYDVQQGEwJJTjEUMBIGA1UECBMLTUFIQVJBU0hUUkExDTALBgNVBAcTBFBV
TkUxDDAKBgNVBAoTA1BTTDEQMA4GA1UECxMHT0JMSVhRQTElMCMGA1UEAxMcdi1w
czU5NTktdjIucGVyc2lzdGVudC5jby5pbjCBnzANBgkqhkiG9w0BAQEFAAOBjQAw
gYkCgYEA03U7UifldQshqVMyB119gPdh0ZwcSoE5Sm0SAY61wzVHmEnpcRy2gIhh
kz5otRg5L6gVeY8TXf9q/qVVPsbG7pB1Zlv6/lCMFasT6V4cYSbQzVsdEhIcffOU
xoKdpwh7TjJp5PnO7nNvpJQ/ek7a8k+PL1GsZilEhwJcL2muZpsCAwEAAaNnMGUw
HwYDVR0jBBgwFoAU2/hqFQqCUx/C68zQboNyV+RF8nQwNAYDVR0lBC0wKwYIKwYB
BQUHAwEGCCsGAQUFBwMCBgorBgEEAYI3CgMDBglghkgBhvhCBAEwDAYDVR0TAQH/
BAIwADANBgkqhkiG9w0BAQQFAAOBgQBZ2kJqOomSjOdHuHi1sdQDmtXaF2VnIR8+
hwISR8qNqsehJkWwCamRqjLxPYHOfXBY41riC4x/Zob6q/wkqeYX94MpXB0GCZJo
BGvYt3bodkuCTrHXyVDR9bBHwZn3wKlttWZWH9E9PdqjvsoYkpwtUJqvRYPt2Mey
7okSusF9Cw==
-----END CERTIFICATE-----
