Certificate:
    Data:
        Version: 3 (0x2)
        Serial Number: 10 (0xa)
        Signature Algorithm: md5WithRSAEncryption
        Issuer: C=MY, ST=MAHA, L=PUNE, O=PSPL, OU=OBLIX-QA, CN=ps2436/Email=sagar@pspl.com
        Validity
            Not Before: Jun 12 06:08:15 2008 GMT
            Not After : Jun 12 06:08:15 2009 GMT
        Subject: C=in, ST=maha, L=pune, O=psl, OU=oblix, CN=spork6/Email=sagar@psl.com
        Subject Public Key Info:
            Public Key Algorithm: rsaEncryption
            RSA Public Key: (1024 bit)
                Modulus (1024 bit):
                    00:f5:21:79:b5:7a:ec:15:ab:a4:5c:f1:24:0c:cf:
                    1d:c9:ac:9b:38:af:25:01:76:e9:aa:2b:86:cb:3b:
                    91:27:ba:56:1c:ca:65:68:1c:4e:8b:c6:3f:a8:8a:
                    42:71:c3:30:cb:57:45:08:d2:3a:99:17:31:0b:da:
                    d8:cb:12:e6:4a:af:b2:b5:70:17:14:e1:00:89:b8:
                    cc:af:e0:80:9b:f3:37:27:63:37:1c:e1:ed:2a:11:
                    6c:d5:06:0b:b5:b3:d4:7a:c3:33:87:d3:55:d7:af:
                    1a:25:51:fa:6a:83:91:f4:23:01:55:42:01:f4:46:
                    61:8e:2c:7a:ee:78:1f:cc:c3
                Exponent: 65537 (0x10001)
        X509v3 extensions:
            X509v3 Authority Key Identifier: 
                keyid:DB:F8:6A:15:0A:82:53:1F:C2:EB:CC:D0:6E:83:72:57:E4:45:F2:74

            X509v3 Extended Key Usage: 
                TLS Web Server Authentication, TLS Web Client Authentication, Microsoft Server Gated Crypto, Netscape Server Gated Crypto
            X509v3 Basic Constraints: critical
                CA:FALSE
    Signature Algorithm: md5WithRSAEncryption
        04:31:11:dc:c5:0a:b1:d6:ad:29:fc:0d:c8:db:81:8e:bb:7a:
        14:9c:ab:6b:12:de:85:99:ef:8a:eb:81:9e:f3:61:a8:a4:aa:
        a1:a7:16:70:a5:08:68:a8:8f:d5:10:08:34:99:5f:30:6d:e7:
        e3:14:7b:79:ce:ab:02:27:c8:70:86:10:46:7f:aa:03:ed:10:
        13:d0:6e:f7:8b:a3:ef:6f:fb:f9:1a:16:78:10:b2:49:05:e3:
        e7:59:ee:93:80:06:3d:b4:18:60:98:47:a0:cc:54:45:14:ef:
        06:ba:9a:b1:e2:10:a7:9b:98:22:73:66:53:01:74:e8:ab:69:
        aa:ab
-----BEGIN CERTIFICATE-----
MIIC0jCCAjugAwIBAgIBCjANBgkqhkiG9w0BAQQFADB9MQswCQYDVQQGEwJNWTEN
MAsGA1UECBMETUFIQTENMAsGA1UEBxMEUFVORTENMAsGA1UEChMEUFNQTDERMA8G
A1UECxMIT0JMSVgtUUExDzANBgNVBAMTBnBzMjQzNjEdMBsGCSqGSIb3DQEJARYO
c2FnYXJAcHNwbC5jb20wHhcNMDgwNjEyMDYwODE1WhcNMDkwNjEyMDYwODE1WjB4
MQswCQYDVQQGEwJpbjENMAsGA1UECBMEbWFoYTENMAsGA1UEBxMEcHVuZTEMMAoG
A1UEChMDcHNsMQ4wDAYDVQQLEwVvYmxpeDEPMA0GA1UEAxMGc3Bvcms2MRwwGgYJ
KoZIhvcNAQkBFg1zYWdhckBwc2wuY29tMIGfMA0GCSqGSIb3DQEBAQUAA4GNADCB
iQKBgQD1IXm1euwVq6Rc8SQMzx3JrJs4ryUBdumqK4bLO5EnulYcymVoHE6Lxj+o
ikJxwzDLV0UI0jqZFzEL2tjLEuZKr7K1cBcU4QCJuMyv4ICb8zcnYzcc4e0qEWzV
Bgu1s9R6wzOH01XXrxolUfpqg5H0IwFVQgH0RmGOLHrueB/MwwIDAQABo2cwZTAf
BgNVHSMEGDAWgBTb+GoVCoJTH8LrzNBug3JX5EXydDA0BgNVHSUELTArBggrBgEF
BQcDAQYIKwYBBQUHAwIGCisGAQQBgjcKAwMGCWCGSAGG+EIEATAMBgNVHRMBAf8E
AjAAMA0GCSqGSIb3DQEBBAUAA4GBAAQxEdzFCrHWrSn8DcjbgY67ehScq2sS3oWZ
74rrgZ7zYaikqqGnFnClCGioj9UQCDSZXzBt5+MUe3nOqwInyHCGEEZ/qgPtEBPQ
bveLo+9v+/kaFngQskkF4+dZ7pOABj20GGCYR6DMVEUU7wa6mrHiEKebmCJzZlMB
dOiraaqr
-----END CERTIFICATE-----
