Certificate:
    Data:
        Version: 3 (0x2)
        Serial Number: 12 (0xc)
        Signature Algorithm: md5WithRSAEncryption
        Issuer: C=MY, ST=MAHA, L=PUNE, O=PSPL, OU=OBLIX-QA, CN=ps2436/Email=sagar@pspl.com
        Validity
            Not Before: Jun 13 10:00:48 2008 GMT
            Not After : Jun 13 10:00:48 2009 GMT
        Subject: C=in, ST=maha, L=pune, O=psl, OU=oblix, CN=ps0889
        Subject Public Key Info:
            Public Key Algorithm: rsaEncryption
            RSA Public Key: (1024 bit)
                Modulus (1024 bit):
                    00:d4:00:69:b9:e3:4f:a0:a0:e6:59:da:f9:d5:a3:
                    f4:d3:44:60:d1:f5:45:ba:2c:83:db:f6:9b:1b:51:
                    dc:32:61:6d:7e:24:3b:96:e1:67:67:bb:5a:65:34:
                    d4:82:69:1f:f2:61:e4:c1:ba:93:d6:9e:80:ac:85:
                    26:3f:a5:66:fa:fe:a0:fa:0c:f0:08:b8:c0:08:c1:
                    7d:93:73:18:03:d0:94:78:f9:60:74:12:df:73:76:
                    7c:2f:89:3d:fe:8d:74:42:6b:bd:6a:d7:16:c6:c8:
                    07:55:ed:7b:79:87:d7:1c:9e:1c:8f:a7:3c:10:9d:
                    d3:8f:33:e9:e9:cb:bc:88:c5
                Exponent: 65537 (0x10001)
        X509v3 extensions:
            X509v3 Authority Key Identifier: 
                keyid:DB:F8:6A:15:0A:82:53:1F:C2:EB:CC:D0:6E:83:72:57:E4:45:F2:74

            X509v3 Extended Key Usage: 
                TLS Web Server Authentication, TLS Web Client Authentication, Microsoft Server Gated Crypto, Netscape Server Gated Crypto
            X509v3 Basic Constraints: critical
                CA:FALSE
    Signature Algorithm: md5WithRSAEncryption
        0b:e1:18:7e:36:a5:53:a2:b6:47:a8:ad:43:44:e7:79:fe:bd:
        10:c3:63:b6:47:4e:36:dc:9c:9f:08:c6:b5:78:f2:89:b4:7d:
        44:de:2b:e5:f6:86:f3:e2:05:0a:7e:14:ee:3b:c0:ce:90:7c:
        51:de:57:51:95:68:fc:93:27:2b:a5:30:09:bf:75:d3:5a:05:
        40:6b:c1:2b:2f:2b:b5:68:b5:11:49:ba:64:b3:fd:d9:0e:23:
        46:88:e7:9c:c0:75:29:18:0a:26:02:19:75:da:8a:bb:1c:96:
        a4:ba:ba:31:61:5f:57:7f:a4:a7:d0:52:2d:68:26:c7:3b:b4:
        8d:a8
-----BEGIN CERTIFICATE-----
MIICtDCCAh2gAwIBAgIBDDANBgkqhkiG9w0BAQQFADB9MQswCQYDVQQGEwJNWTEN
MAsGA1UECBMETUFIQTENMAsGA1UEBxMEUFVORTENMAsGA1UEChMEUFNQTDERMA8G
A1UECxMIT0JMSVgtUUExDzANBgNVBAMTBnBzMjQzNjEdMBsGCSqGSIb3DQEJARYO
c2FnYXJAcHNwbC5jb20wHhcNMDgwNjEzMTAwMDQ4WhcNMDkwNjEzMTAwMDQ4WjBa
MQswCQYDVQQGEwJpbjENMAsGA1UECBMEbWFoYTENMAsGA1UEBxMEcHVuZTEMMAoG
A1UEChMDcHNsMQ4wDAYDVQQLEwVvYmxpeDEPMA0GA1UEAxMGcHMwODg5MIGfMA0G
CSqGSIb3DQEBAQUAA4GNADCBiQKBgQDUAGm540+goOZZ2vnVo/TTRGDR9UW6LIPb
9psbUdwyYW1+JDuW4Wdnu1plNNSCaR/yYeTBupPWnoCshSY/pWb6/qD6DPAIuMAI
wX2TcxgD0JR4+WB0Et9zdnwviT3+jXRCa71q1xbGyAdV7Xt5h9ccnhyPpzwQndOP
M+npy7yIxQIDAQABo2cwZTAfBgNVHSMEGDAWgBTb+GoVCoJTH8LrzNBug3JX5EXy
dDA0BgNVHSUELTArBggrBgEFBQcDAQYIKwYBBQUHAwIGCisGAQQBgjcKAwMGCWCG
SAGG+EIEATAMBgNVHRMBAf8EAjAAMA0GCSqGSIb3DQEBBAUAA4GBAAvhGH42pVOi
tkeorUNE53n+vRDDY7ZHTjbcnJ8IxrV48om0fUTeK+X2hvPiBQp+FO47wM6QfFHe
V1GVaPyTJyulMAm/ddNaBUBrwSsvK7VotRFJumSz/dkOI0aI55zAdSkYCiYCGXXa
irsclqS6ujFhX1d/pKfQUi1oJsc7tI2o
-----END CERTIFICATE-----
