Certificate:
    Data:
        Version: 3 (0x2)
        Serial Number: 13 (0xd)
        Signature Algorithm: md5WithRSAEncryption
        Issuer: C=MY, ST=MAHA, L=PUNE, O=PSPL, OU=OBLIX-QA, CN=ps2436/Email=sagar@pspl.com
        Validity
            Not Before: Jun 13 10:12:08 2008 GMT
            Not After : Jun 13 10:12:08 2009 GMT
        Subject: CN=user1k1/Email=user1k1@Company.com
        Subject Public Key Info:
            Public Key Algorithm: rsaEncryption
            RSA Public Key: (1024 bit)
                Modulus (1024 bit):
                    00:d2:91:c3:a2:d1:18:d4:6c:94:fd:ef:ab:76:37:
                    ea:19:8b:4e:7d:d1:9f:29:e1:b7:e1:27:bc:81:e3:
                    c9:ac:27:48:d6:c2:0f:8b:99:ae:71:2e:55:96:d1:
                    b9:37:0b:57:a0:b1:e6:bd:b0:bf:bd:a3:3b:e7:89:
                    30:c2:3d:f5:c9:90:c0:0c:4e:91:df:76:c6:af:d3:
                    c3:ec:5b:0f:ff:1a:25:61:ce:86:02:53:91:2b:39:
                    c8:ea:80:43:8a:d8:aa:34:ce:a3:67:7f:87:6b:b2:
                    d9:4f:02:8f:3b:05:58:5d:6d:c8:44:a8:99:e6:91:
                    46:53:3e:96:61:f0:27:71:99
                Exponent: 65537 (0x10001)
        X509v3 extensions:
            X509v3 Subject Alternative Name: 
                email:user1k1@Company.com
            X509v3 Basic Constraints: critical
                CA:FALSE
            X509v3 Authority Key Identifier: 
                keyid:DB:F8:6A:15:0A:82:53:1F:C2:EB:CC:D0:6E:83:72:57:E4:45:F2:74

            X509v3 Extended Key Usage: 
                TLS Web Client Authentication, E-mail Protection
    Signature Algorithm: md5WithRSAEncryption
        05:1b:b5:0b:ac:f7:85:aa:83:30:59:7c:7c:d9:6f:95:ab:4e:
        f4:13:7b:2e:5a:c5:2e:61:fd:f9:14:c8:cb:2c:6d:bc:dd:c8:
        03:43:9a:5d:ea:1e:ae:73:7d:3a:48:38:78:58:91:d6:47:c5:
        7c:c0:ba:a9:7d:dc:67:35:b8:ec:74:49:12:9c:9e:66:01:67:
        f5:dc:b0:43:91:ba:71:53:ed:f3:91:33:55:2a:bb:2b:5a:c5:
        ca:66:2e:77:7c:22:1d:c4:01:29:11:b0:99:75:aa:4b:b7:83:
        6e:3a:37:94:7d:a3:b1:a9:d2:42:56:39:75:2e:19:8c:32:20:
        f5:a7
-----BEGIN CERTIFICATE-----
MIICmTCCAgKgAwIBAgIBDTANBgkqhkiG9w0BAQQFADB9MQswCQYDVQQGEwJNWTEN
MAsGA1UECBMETUFIQTENMAsGA1UEBxMEUFVORTENMAsGA1UEChMEUFNQTDERMA8G
A1UECxMIT0JMSVgtUUExDzANBgNVBAMTBnBzMjQzNjEdMBsGCSqGSIb3DQEJARYO
c2FnYXJAcHNwbC5jb20wHhcNMDgwNjEzMTAxMjA4WhcNMDkwNjEzMTAxMjA4WjA2
MRAwDgYDVQQDEwd1c2VyMWsxMSIwIAYJKoZIhvcNAQkBFhN1c2VyMWsxQENvbXBh
bnkuY29tMIGfMA0GCSqGSIb3DQEBAQUAA4GNADCBiQKBgQDSkcOi0RjUbJT976t2
N+oZi0590Z8p4bfhJ7yB48msJ0jWwg+Lma5xLlWW0bk3C1egsea9sL+9ozvniTDC
PfXJkMAMTpHfdsav08PsWw//GiVhzoYCU5ErOcjqgEOK2Ko0zqNnf4drstlPAo87
BVhdbchEqJnmkUZTPpZh8CdxmQIDAQABo3AwbjAeBgNVHREEFzAVgRN1c2VyMWsx
QENvbXBhbnkuY29tMAwGA1UdEwEB/wQCMAAwHwYDVR0jBBgwFoAU2/hqFQqCUx/C
68zQboNyV+RF8nQwHQYDVR0lBBYwFAYIKwYBBQUHAwIGCCsGAQUFBwMEMA0GCSqG
SIb3DQEBBAUAA4GBAAUbtQus94WqgzBZfHzZb5WrTvQTey5axS5h/fkUyMssbbzd
yANDml3qHq5zfTpIOHhYkdZHxXzAuql93Gc1uOx0SRKcnmYBZ/XcsEORunFT7fOR
M1UquytaxcpmLnd8Ih3EASkRsJl1qku3g246N5R9o7Gp0kJWOXUuGYwyIPWn
-----END CERTIFICATE-----
