Certificate:
    Data:
        Version: 3 (0x2)
        Serial Number: 14 (0xe)
        Signature Algorithm: md5WithRSAEncryption
        Issuer: C=MY, ST=MAHA, L=PUNE, O=PSPL, OU=OBLIX-QA, CN=ps2436/Email=sagar@pspl.com
        Validity
            Not Before: Jun 13 10:13:45 2008 GMT
            Not After : Jun 13 10:13:45 2009 GMT
        Subject: CN=user1k7/Email=user1k7@Company.com
        Subject Public Key Info:
            Public Key Algorithm: rsaEncryption
            RSA Public Key: (1024 bit)
                Modulus (1024 bit):
                    00:c0:4c:f6:7c:05:5a:ce:87:80:50:bd:70:06:a4:
                    d6:b1:60:b9:8a:6b:f9:42:c7:c6:e0:71:ef:5a:6f:
                    86:b0:fc:04:ff:2f:19:8a:1e:f7:b8:83:29:fe:11:
                    ba:fb:94:25:5f:c6:8b:f0:19:56:0d:80:00:2d:e2:
                    e4:c5:15:9e:e2:33:9b:60:7e:37:a5:0c:39:6f:96:
                    70:81:88:fd:cd:bc:aa:46:80:73:56:8e:bd:42:a1:
                    23:20:ab:9c:3e:6e:39:be:0a:1b:e2:dc:5a:7a:40:
                    61:f9:57:63:22:53:9c:ca:12:0c:bd:8b:eb:5a:f7:
                    cf:99:13:50:d1:e0:57:6e:3d
                Exponent: 65537 (0x10001)
        X509v3 extensions:
            X509v3 Subject Alternative Name: 
                email:user1k7@Company.com
            X509v3 Basic Constraints: critical
                CA:FALSE
            X509v3 Authority Key Identifier: 
                keyid:DB:F8:6A:15:0A:82:53:1F:C2:EB:CC:D0:6E:83:72:57:E4:45:F2:74

            X509v3 Extended Key Usage: 
                TLS Web Client Authentication, E-mail Protection
    Signature Algorithm: md5WithRSAEncryption
        7d:89:56:a9:55:b9:ff:75:29:6a:fd:7b:b0:97:9c:69:39:7f:
        7a:03:99:35:96:48:9f:c5:a3:1f:2a:80:aa:13:b6:1e:22:5e:
        11:f8:11:2e:38:b9:2a:0f:78:0a:1c:c1:20:8f:b0:99:e0:62:
        be:71:12:bd:12:15:98:10:51:80:ea:de:73:0d:54:94:c7:9f:
        a4:57:ad:3d:aa:d0:1c:8c:1e:72:76:47:68:4c:4f:4d:e9:2e:
        64:64:d7:9b:20:0b:fe:4e:e6:5f:8f:43:98:33:c9:4a:0f:95:
        8e:55:6d:b1:a0:e3:8c:60:39:af:c4:f8:05:e9:67:0b:ba:b5:
        f1:95
-----BEGIN CERTIFICATE-----
MIICmTCCAgKgAwIBAgIBDjANBgkqhkiG9w0BAQQFADB9MQswCQYDVQQGEwJNWTEN
MAsGA1UECBMETUFIQTENMAsGA1UEBxMEUFVORTENMAsGA1UEChMEUFNQTDERMA8G
A1UECxMIT0JMSVgtUUExDzANBgNVBAMTBnBzMjQzNjEdMBsGCSqGSIb3DQEJARYO
c2FnYXJAcHNwbC5jb20wHhcNMDgwNjEzMTAxMzQ1WhcNMDkwNjEzMTAxMzQ1WjA2
MRAwDgYDVQQDEwd1c2VyMWs3MSIwIAYJKoZIhvcNAQkBFhN1c2VyMWs3QENvbXBh
bnkuY29tMIGfMA0GCSqGSIb3DQEBAQUAA4GNADCBiQKBgQDATPZ8BVrOh4BQvXAG
pNaxYLmKa/lCx8bgce9ab4aw/AT/LxmKHve4gyn+Ebr7lCVfxovwGVYNgAAt4uTF
FZ7iM5tgfjelDDlvlnCBiP3NvKpGgHNWjr1CoSMgq5w+bjm+Chvi3Fp6QGH5V2Mi
U5zKEgy9i+ta98+ZE1DR4FduPQIDAQABo3AwbjAeBgNVHREEFzAVgRN1c2VyMWs3
QENvbXBhbnkuY29tMAwGA1UdEwEB/wQCMAAwHwYDVR0jBBgwFoAU2/hqFQqCUx/C
68zQboNyV+RF8nQwHQYDVR0lBBYwFAYIKwYBBQUHAwIGCCsGAQUFBwMEMA0GCSqG
SIb3DQEBBAUAA4GBAH2JVqlVuf91KWr9e7CXnGk5f3oDmTWWSJ/Fox8qgKoTth4i
XhH4ES44uSoPeAocwSCPsJngYr5xEr0SFZgQUYDq3nMNVJTHn6RXrT2q0ByMHnJ2
R2hMT03pLmRk15sgC/5O5l+PQ5gzyUoPlY5VbbGg44xgOa/E+AXpZwu6tfGV
-----END CERTIFICATE-----
