Certificate:
    Data:
        Version: 3 (0x2)
        Serial Number: 17 (0x11)
        Signature Algorithm: md5WithRSAEncryption
        Issuer: C=MY, ST=MAHA, L=PUNE, O=PSPL, OU=OBLIX-QA, CN=ps2436/Email=sagar@pspl.com
        Validity
            Not Before: Jul  2 09:42:08 2008 GMT
            Not After : Jul  2 09:42:08 2009 GMT
        Subject: C=In, ST=maha, L=pune, O=oblix, OU=oblix, CN=v-ps4572-v3/Email=sagar@pspl.com
        Subject Public Key Info:
            Public Key Algorithm: rsaEncryption
            RSA Public Key: (1024 bit)
                Modulus (1024 bit):
                    00:be:01:34:6a:a2:25:dd:d5:fb:6d:08:74:ce:d3:
                    91:62:48:46:c5:1f:17:8e:ca:68:af:8a:b6:b6:fa:
                    f6:c0:75:27:5c:f7:6e:8d:7c:a8:ef:a7:9f:89:6f:
                    d3:23:af:be:16:d7:78:c3:d9:61:b8:20:5b:69:85:
                    82:32:35:3b:73:c9:c0:c1:fc:34:6f:43:52:07:3b:
                    72:59:7f:07:49:98:19:fa:ed:cf:77:76:31:41:bd:
                    54:c4:11:f5:db:63:90:e4:d2:0d:b6:ff:36:23:69:
                    d0:60:78:d3:a7:99:63:5b:72:ce:89:a6:66:77:1e:
                    2e:9e:03:3a:61:e5:fb:d1:29
                Exponent: 65537 (0x10001)
        X509v3 extensions:
            X509v3 Authority Key Identifier: 
                keyid:DB:F8:6A:15:0A:82:53:1F:C2:EB:CC:D0:6E:83:72:57:E4:45:F2:74

            X509v3 Extended Key Usage: 
                TLS Web Server Authentication, TLS Web Client Authentication, Microsoft Server Gated Crypto, Netscape Server Gated Crypto
            X509v3 Basic Constraints: critical
                CA:FALSE
    Signature Algorithm: md5WithRSAEncryption
        b2:44:38:6e:6a:e6:cb:bb:17:5a:0c:6a:00:cc:58:95:c4:b7:
        ca:c9:e7:fe:51:04:c2:28:2f:7d:ab:0d:ad:6e:e7:01:81:70:
        db:12:38:ae:bd:38:79:c7:1a:cc:da:a5:67:ee:e2:26:ea:9b:
        de:73:d2:f5:07:20:56:a1:6e:67:77:b2:09:0f:b4:cc:dd:9e:
        d1:97:bf:7f:d2:fc:97:a6:3f:63:7e:3d:8c:bc:5f:0c:dc:d3:
        5d:d6:c9:bf:98:0a:69:c3:5c:2b:a3:30:e4:9d:05:a0:a4:78:
        10:61:98:54:b5:6d:71:b2:8b:26:47:96:57:52:80:9c:8f:1f:
        cb:db
-----BEGIN CERTIFICATE-----
MIIC2zCCAkSgAwIBAgIBETANBgkqhkiG9w0BAQQFADB9MQswCQYDVQQGEwJNWTEN
MAsGA1UECBMETUFIQTENMAsGA1UEBxMEUFVORTENMAsGA1UEChMEUFNQTDERMA8G
A1UECxMIT0JMSVgtUUExDzANBgNVBAMTBnBzMjQzNjEdMBsGCSqGSIb3DQEJARYO
c2FnYXJAcHNwbC5jb20wHhcNMDgwNzAyMDk0MjA4WhcNMDkwNzAyMDk0MjA4WjCB
gDELMAkGA1UEBhMCSW4xDTALBgNVBAgTBG1haGExDTALBgNVBAcTBHB1bmUxDjAM
BgNVBAoTBW9ibGl4MQ4wDAYDVQQLEwVvYmxpeDEUMBIGA1UEAxMLdi1wczQ1NzIt
djMxHTAbBgkqhkiG9w0BCQEWDnNhZ2FyQHBzcGwuY29tMIGfMA0GCSqGSIb3DQEB
AQUAA4GNADCBiQKBgQC+ATRqoiXd1fttCHTO05FiSEbFHxeOymivira2+vbAdSdc
926NfKjvp5+Jb9Mjr74W13jD2WG4IFtphYIyNTtzycDB/DRvQ1IHO3JZfwdJmBn6
7c93djFBvVTEEfXbY5Dk0g22/zYjadBgeNOnmWNbcs6JpmZ3Hi6eAzph5fvRKQID
AQABo2cwZTAfBgNVHSMEGDAWgBTb+GoVCoJTH8LrzNBug3JX5EXydDA0BgNVHSUE
LTArBggrBgEFBQcDAQYIKwYBBQUHAwIGCisGAQQBgjcKAwMGCWCGSAGG+EIEATAM
BgNVHRMBAf8EAjAAMA0GCSqGSIb3DQEBBAUAA4GBALJEOG5q5su7F1oMagDMWJXE
t8rJ5/5RBMIoL32rDa1u5wGBcNsSOK69OHnHGszapWfu4ibqm95z0vUHIFahbmd3
sgkPtMzdntGXv3/S/JemP2N+PYy8Xwzc013Wyb+YCmnDXCujMOSdBaCkeBBhmFS1
bXGyiyZHlldSgJyPH8vb
-----END CERTIFICATE-----
