Certificate:
    Data:
        Version: 3 (0x2)
        Serial Number: 19 (0x13)
        Signature Algorithm: md5WithRSAEncryption
        Issuer: C=MY, ST=MAHA, L=PUNE, O=PSPL, OU=OBLIX-QA, CN=ps2436/emailAddress=sagar@pspl.com
        Validity
            Not Before: Dec  5 12:07:52 2008 GMT
            Not After : Dec  5 12:07:52 2009 GMT
        Subject: C=In, ST=Maharashtra, L=Pune, O=PSL, OU=OblixQA, CN=ps4520.persistent.co.in
        Subject Public Key Info:
            Public Key Algorithm: rsaEncryption
            RSA Public Key: (1024 bit)
                Modulus (1024 bit):
                    00:d5:b5:ee:48:39:d8:48:bd:d1:6c:07:bb:73:23:
                    60:81:1e:52:dc:b1:08:eb:5b:01:66:39:aa:74:36:
                    89:0d:0a:2c:7e:2e:7d:e7:23:92:68:a9:18:dc:fd:
                    cb:d6:92:41:21:fd:8a:b1:22:21:81:c5:6c:16:5f:
                    e9:ac:73:17:30:db:58:23:9a:c1:90:16:0f:3b:da:
                    b3:1a:f0:c0:25:57:3f:55:24:7f:5c:12:13:2a:45:
                    44:47:46:0a:a5:75:26:43:44:f0:60:b5:a4:e3:fe:
                    f5:c9:66:d3:dc:aa:ee:db:c5:42:49:e9:79:01:47:
                    e6:0b:82:e5:71:9b:52:23:bf
                Exponent: 65537 (0x10001)
        X509v3 extensions:
            X509v3 Authority Key Identifier: 
            keyid:DB:F8:6A:15:0A:82:53:1F:C2:EB:CC:D0:6E:83:72:57:E4:45:F2:74

            X509v3 Extended Key Usage: 
            TLS Web Server Authentication, TLS Web Client Authentication, Microsoft Server Gated Crypto, Netscape Server Gated Crypto
            X509v3 Basic Constraints: critical
            CA:FALSE
    Signature Algorithm: md5WithRSAEncryption
        3e:bd:5a:72:4f:ee:1a:9b:51:77:2f:67:23:7b:d2:98:8b:40:
        49:59:02:65:c8:85:4d:f7:b2:ec:16:1e:02:3d:c7:07:56:04:
        87:04:db:a0:12:6c:02:9d:dd:19:9f:df:93:63:55:3f:6b:48:
        70:46:a8:d9:48:c3:87:e5:9a:f5:2b:56:81:df:1d:69:42:96:
        ce:fc:ca:d4:14:36:aa:ea:18:35:59:06:38:af:fc:00:5b:e3:
        34:95:cd:ce:7e:09:87:c2:42:74:bc:44:b4:39:52:54:b9:10:
        6d:3e:a5:91:24:ee:bd:83:47:fe:16:7e:66:aa:46:b4:e9:3f:
        8a:66
-----BEGIN CERTIFICATE-----
MIICzjCCAjegAwIBAgIBEzANBgkqhkiG9w0BAQQFADB9MQswCQYDVQQGEwJNWTEN
MAsGA1UECBMETUFIQTENMAsGA1UEBxMEUFVORTENMAsGA1UEChMEUFNQTDERMA8G
A1UECxMIT0JMSVgtUUExDzANBgNVBAMTBnBzMjQzNjEdMBsGCSqGSIb3DQEJARYO
c2FnYXJAcHNwbC5jb20wHhcNMDgxMjA1MTIwNzUyWhcNMDkxMjA1MTIwNzUyWjB0
MQswCQYDVQQGEwJJbjEUMBIGA1UECBMLTWFoYXJhc2h0cmExDTALBgNVBAcTBFB1
bmUxDDAKBgNVBAoTA1BTTDEQMA4GA1UECxMHT2JsaXhRQTEgMB4GA1UEAxMXcHM0
NTIwLnBlcnNpc3RlbnQuY28uaW4wgZ8wDQYJKoZIhvcNAQEBBQADgY0AMIGJAoGB
ANW17kg52Ei90WwHu3MjYIEeUtyxCOtbAWY5qnQ2iQ0KLH4ufecjkmipGNz9y9aS
QSH9irEiIYHFbBZf6axzFzDbWCOawZAWDzvasxrwwCVXP1Ukf1wSEypFREdGCqV1
JkNE8GC1pOP+9clm09yq7tvFQknpeQFH5guC5XGbUiO/AgMBAAGjZzBlMB8GA1Ud
IwQYMBaAFNv4ahUKglMfwuvM0G6DclfkRfJ0MDQGA1UdJQQtMCsGCCsGAQUFBwMB
BggrBgEFBQcDAgYKKwYBBAGCNwoDAwYJYIZIAYb4QgQBMAwGA1UdEwEB/wQCMAAw
DQYJKoZIhvcNAQEEBQADgYEAPr1ack/uGptRdy9nI3vSmItASVkCZciFTfey7BYe
Aj3HB1YEhwTboBJsAp3dGZ/fk2NVP2tIcEao2UjDh+Wa9StWgd8daUKWzvzK1BQ2
quoYNVkGOK/8AFvjNJXNzn4Jh8JCdLxEtDlSVLkQbT6lkSTuvYNH/hZ+ZqpGtOk/
imY=
-----END CERTIFICATE-----
