Certificate:
    Data:
        Version: 3 (0x2)
        Serial Number: 20 (0x14)
        Signature Algorithm: md5WithRSAEncryption
        Issuer: C=MY, ST=MAHA, L=PUNE, O=PSPL, OU=OBLIX-QA, CN=ps2436/emailAddress=sagar@pspl.com
        Validity
            Not Before: Dec  5 12:30:22 2008 GMT
            Not After : Dec  5 12:30:22 2009 GMT
        Subject: C=IN, ST=Maharashtra, L=Pune, O=PSL, OU=OblixQA, CN=ps4520.persistent.co.in
        Subject Public Key Info:
            Public Key Algorithm: rsaEncryption
            RSA Public Key: (1024 bit)
                Modulus (1024 bit):
                    00:d8:bd:45:dc:73:f0:d1:fa:ac:c2:13:61:37:76:
                    da:87:84:a9:fb:8a:9f:c8:62:4e:95:b5:0a:98:73:
                    a6:b2:3b:03:37:cf:06:47:7d:9c:c7:12:74:9e:25:
                    b3:dc:6d:60:9d:d0:b5:4c:02:4d:b0:db:5b:4a:9e:
                    0f:1b:bd:68:82:06:0f:72:74:1e:5f:df:33:6d:da:
                    a2:bf:a6:42:96:a1:f4:be:fb:34:70:66:55:61:3d:
                    4e:b9:4c:c9:2a:f1:54:34:9b:1b:a8:90:92:79:66:
                    d6:6b:30:d8:07:a3:65:02:cc:7e:0f:84:7e:8d:59:
                    41:1f:00:d8:46:3f:e6:08:99
                Exponent: 65537 (0x10001)
        X509v3 extensions:
            X509v3 Authority Key Identifier: 
            keyid:DB:F8:6A:15:0A:82:53:1F:C2:EB:CC:D0:6E:83:72:57:E4:45:F2:74

            X509v3 Extended Key Usage: 
            TLS Web Server Authentication, TLS Web Client Authentication, Microsoft Server Gated Crypto, Netscape Server Gated Crypto
            X509v3 Basic Constraints: critical
            CA:FALSE
    Signature Algorithm: md5WithRSAEncryption
        4a:64:b1:f6:75:21:ec:03:11:66:bf:3c:54:c9:a8:6e:fe:41:
        ab:f1:02:d4:f8:cf:c4:2c:6c:bc:41:75:81:19:40:a1:61:fd:
        8a:0b:bf:d6:e1:a9:ad:03:d6:6b:d9:7a:43:60:2c:0d:a2:f7:
        26:a2:a6:a0:a2:7d:d3:20:b5:11:bc:3e:04:91:8c:14:7b:9c:
        b1:81:b4:18:95:82:40:61:4a:30:6a:3a:3b:78:70:77:9b:92:
        d3:94:80:ae:c4:84:0f:55:b3:5e:4c:e9:9f:7d:82:55:b2:0a:
        03:67:1f:65:5e:d9:1d:95:ed:2f:7b:07:3e:95:ab:c0:b5:8d:
        8f:f2
-----BEGIN CERTIFICATE-----
MIICzjCCAjegAwIBAgIBFDANBgkqhkiG9w0BAQQFADB9MQswCQYDVQQGEwJNWTEN
MAsGA1UECBMETUFIQTENMAsGA1UEBxMEUFVORTENMAsGA1UEChMEUFNQTDERMA8G
A1UECxMIT0JMSVgtUUExDzANBgNVBAMTBnBzMjQzNjEdMBsGCSqGSIb3DQEJARYO
c2FnYXJAcHNwbC5jb20wHhcNMDgxMjA1MTIzMDIyWhcNMDkxMjA1MTIzMDIyWjB0
MQswCQYDVQQGEwJJTjEUMBIGA1UECBMLTWFoYXJhc2h0cmExDTALBgNVBAcTBFB1
bmUxDDAKBgNVBAoTA1BTTDEQMA4GA1UECxMHT2JsaXhRQTEgMB4GA1UEAxMXcHM0
NTIwLnBlcnNpc3RlbnQuY28uaW4wgZ8wDQYJKoZIhvcNAQEBBQADgY0AMIGJAoGB
ANi9Rdxz8NH6rMITYTd22oeEqfuKn8hiTpW1CphzprI7AzfPBkd9nMcSdJ4ls9xt
YJ3QtUwCTbDbW0qeDxu9aIIGD3J0Hl/fM23aor+mQpah9L77NHBmVWE9TrlMySrx
VDSbG6iQknlm1msw2AejZQLMfg+Efo1ZQR8A2EY/5giZAgMBAAGjZzBlMB8GA1Ud
IwQYMBaAFNv4ahUKglMfwuvM0G6DclfkRfJ0MDQGA1UdJQQtMCsGCCsGAQUFBwMB
BggrBgEFBQcDAgYKKwYBBAGCNwoDAwYJYIZIAYb4QgQBMAwGA1UdEwEB/wQCMAAw
DQYJKoZIhvcNAQEEBQADgYEASmSx9nUh7AMRZr88VMmobv5Bq/EC1PjPxCxsvEF1
gRlAoWH9igu/1uGprQPWa9l6Q2AsDaL3JqKmoKJ90yC1Ebw+BJGMFHucsYG0GJWC
QGFKMGo6O3hwd5uS05SArsSED1WzXkzpn32CVbIKA2cfZV7ZHZXtL3sHPpWrwLWN
j/I=
-----END CERTIFICATE-----
