Certificate:
    Data:
        Version: 3 (0x2)
        Serial Number: 22 (0x16)
        Signature Algorithm: md5WithRSAEncryption
        Issuer: C=MY, ST=MAHA, L=PUNE, O=PSPL, OU=OBLIX-QA, CN=ps2436/emailAddress=sagar@pspl.com
        Validity
            Not Before: Dec  5 12:56:45 2008 GMT
            Not After : Dec  5 12:56:45 2009 GMT
        Subject: C=in, ST=maha, L=pune, O=psl, OU=oblix, CN=ps4520.persistent.co.in
        Subject Public Key Info:
            Public Key Algorithm: rsaEncryption
            RSA Public Key: (1024 bit)
                Modulus (1024 bit):
                    00:e2:23:47:5f:e7:7d:86:70:c9:97:a5:e7:cc:10:
                    95:f5:fa:f3:f7:de:4b:4b:1a:39:29:ac:a6:b3:07:
                    43:9f:c5:2b:59:4d:57:4e:08:b7:a1:14:a7:3b:a0:
                    de:65:ae:cf:55:1b:d2:ef:81:17:f2:ac:40:6b:62:
                    2e:be:38:d1:71:e8:28:1f:26:38:cd:53:3b:2a:f2:
                    67:c0:f3:ae:f8:c2:19:89:5f:25:19:f8:2e:96:43:
                    fb:3c:d2:e3:8a:9c:5c:b6:8d:64:e0:63:09:20:9c:
                    07:5b:63:3c:f9:de:b4:66:0a:1e:b3:01:8c:c0:1c:
                    62:bb:6b:b2:4f:c0:02:a5:25
                Exponent: 65537 (0x10001)
        X509v3 extensions:
            X509v3 Authority Key Identifier: 
            keyid:DB:F8:6A:15:0A:82:53:1F:C2:EB:CC:D0:6E:83:72:57:E4:45:F2:74

            X509v3 Extended Key Usage: 
            TLS Web Server Authentication, TLS Web Client Authentication, Microsoft Server Gated Crypto, Netscape Server Gated Crypto
            X509v3 Basic Constraints: critical
            CA:FALSE
    Signature Algorithm: md5WithRSAEncryption
        a0:0b:d7:e0:00:fd:7a:9c:08:13:18:e7:88:86:97:0b:ad:21:
        37:10:d1:30:03:00:d3:b6:a8:fa:0a:5d:b9:db:a4:6f:bd:05:
        97:86:61:09:35:d4:31:8d:88:c4:75:d5:83:d5:ce:0c:2f:5c:
        93:a4:4a:2e:6e:f3:75:a0:56:e4:b1:3f:42:65:1e:2b:73:36:
        ec:31:0a:59:d8:5b:c9:0e:b1:d7:aa:f4:bb:4c:d6:6f:29:f7:
        0d:87:5c:db:b4:fd:69:74:78:fa:7c:59:99:38:a5:45:43:40:
        5e:0d:bc:34:03:8c:6f:09:ca:0c:b8:8c:39:5e:99:0f:f0:ec:
        c7:00
-----BEGIN CERTIFICATE-----
MIICxTCCAi6gAwIBAgIBFjANBgkqhkiG9w0BAQQFADB9MQswCQYDVQQGEwJNWTEN
MAsGA1UECBMETUFIQTENMAsGA1UEBxMEUFVORTENMAsGA1UEChMEUFNQTDERMA8G
A1UECxMIT0JMSVgtUUExDzANBgNVBAMTBnBzMjQzNjEdMBsGCSqGSIb3DQEJARYO
c2FnYXJAcHNwbC5jb20wHhcNMDgxMjA1MTI1NjQ1WhcNMDkxMjA1MTI1NjQ1WjBr
MQswCQYDVQQGEwJpbjENMAsGA1UECBMEbWFoYTENMAsGA1UEBxMEcHVuZTEMMAoG
A1UEChMDcHNsMQ4wDAYDVQQLEwVvYmxpeDEgMB4GA1UEAxMXcHM0NTIwLnBlcnNp
c3RlbnQuY28uaW4wgZ8wDQYJKoZIhvcNAQEBBQADgY0AMIGJAoGBAOIjR1/nfYZw
yZel58wQlfX68/feS0saOSmsprMHQ5/FK1lNV04It6EUpzug3mWuz1Ub0u+BF/Ks
QGtiLr440XHoKB8mOM1TOyryZ8DzrvjCGYlfJRn4LpZD+zzS44qcXLaNZOBjCSCc
B1tjPPnetGYKHrMBjMAcYrtrsk/AAqUlAgMBAAGjZzBlMB8GA1UdIwQYMBaAFNv4
ahUKglMfwuvM0G6DclfkRfJ0MDQGA1UdJQQtMCsGCCsGAQUFBwMBBggrBgEFBQcD
AgYKKwYBBAGCNwoDAwYJYIZIAYb4QgQBMAwGA1UdEwEB/wQCMAAwDQYJKoZIhvcN
AQEEBQADgYEAoAvX4AD9epwIExjniIaXC60hNxDRMAMA07ao+gpdudukb70Fl4Zh
CTXUMY2IxHXVg9XODC9ck6RKLm7zdaBW5LE/QmUeK3M27DEKWdhbyQ6x16r0u0zW
byn3DYdc27T9aXR4+nxZmTilRUNAXg28NAOMbwnKDLiMOV6ZD/DsxwA=
-----END CERTIFICATE-----
