Certificate:
    Data:
        Version: 3 (0x2)
        Serial Number: 24 (0x18)
        Signature Algorithm: md5WithRSAEncryption
        Issuer: C=MY, ST=MAHA, L=PUNE, O=PSPL, OU=OBLIX-QA, CN=ps2436/emailAddress=sagar@pspl.com
        Validity
            Not Before: Dec  9 13:59:57 2008 GMT
            Not After : Dec  9 13:59:57 2009 GMT
        Subject: C=US, ST=Calfornia, L=Redwood city, O=oblix, OU=oracle, CN=ps3632w2k..persistent.co.in
        Subject Public Key Info:
            Public Key Algorithm: rsaEncryption
            RSA Public Key: (1024 bit)
                Modulus (1024 bit):
                    00:de:9c:7f:79:ca:a3:59:86:04:51:e7:f9:19:de:
                    1b:cc:0e:5e:89:88:a5:85:d6:90:9b:f0:94:57:9b:
                    0a:44:5c:b2:68:6c:3c:13:f0:cf:fa:05:96:0f:8b:
                    4e:b3:03:ad:47:2b:1d:15:5f:3b:d8:17:aa:b8:07:
                    77:35:9d:85:52:75:b5:f2:68:9e:b2:8a:58:25:f7:
                    cf:ad:5c:ac:16:60:55:54:ad:75:f4:ee:f6:41:1a:
                    29:65:e8:1a:65:47:ce:d2:c1:a3:de:f8:9c:d1:87:
                    a4:0e:06:35:c6:6a:d2:21:44:86:ee:d8:05:2b:23:
                    7f:67:45:3c:0a:73:b2:f7:b5
                Exponent: 65537 (0x10001)
        X509v3 extensions:
            X509v3 Authority Key Identifier: 
            keyid:DB:F8:6A:15:0A:82:53:1F:C2:EB:CC:D0:6E:83:72:57:E4:45:F2:74

            X509v3 Extended Key Usage: 
            TLS Web Server Authentication, TLS Web Client Authentication, Microsoft Server Gated Crypto, Netscape Server Gated Crypto
            X509v3 Basic Constraints: critical
            CA:FALSE
    Signature Algorithm: md5WithRSAEncryption
        8b:aa:da:92:e8:4f:0b:86:a6:33:3f:b0:c7:d1:52:da:a4:8f:
        e1:3e:50:27:fb:8d:6a:67:64:e8:9e:17:17:c1:21:92:8c:b8:
        62:15:05:ca:c9:3f:29:4f:fb:53:ac:96:33:86:cc:58:7b:88:
        91:dc:d1:28:21:2a:25:7a:7a:0e:49:e8:a0:68:3a:2d:13:fe:
        6b:de:5c:f1:5c:38:25:26:19:a8:95:20:0c:4f:3d:6b:8c:c9:
        8e:d2:0f:39:db:b5:66:59:10:be:c6:6a:51:09:d4:6a:27:b6:
        32:1d:04:92:09:ca:07:92:7b:77:6f:5a:4f:67:02:b6:66:84:
        1c:9b
-----BEGIN CERTIFICATE-----
MIIC2TCCAkKgAwIBAgIBGDANBgkqhkiG9w0BAQQFADB9MQswCQYDVQQGEwJNWTEN
MAsGA1UECBMETUFIQTENMAsGA1UEBxMEUFVORTENMAsGA1UEChMEUFNQTDERMA8G
A1UECxMIT0JMSVgtUUExDzANBgNVBAMTBnBzMjQzNjEdMBsGCSqGSIb3DQEJARYO
c2FnYXJAcHNwbC5jb20wHhcNMDgxMjA5MTM1OTU3WhcNMDkxMjA5MTM1OTU3WjB/
MQswCQYDVQQGEwJVUzESMBAGA1UECBMJQ2FsZm9ybmlhMRUwEwYDVQQHEwxSZWR3
b29kIGNpdHkxDjAMBgNVBAoTBW9ibGl4MQ8wDQYDVQQLEwZvcmFjbGUxJDAiBgNV
BAMTG3BzMzYzMncyay4ucGVyc2lzdGVudC5jby5pbjCBnzANBgkqhkiG9w0BAQEF
AAOBjQAwgYkCgYEA3px/ecqjWYYEUef5Gd4bzA5eiYilhdaQm/CUV5sKRFyyaGw8
E/DP+gWWD4tOswOtRysdFV872BequAd3NZ2FUnW18miesopYJffPrVysFmBVVK11
9O72QRopZegaZUfO0sGj3vic0YekDgY1xmrSIUSG7tgFKyN/Z0U8CnOy97UCAwEA
AaNnMGUwHwYDVR0jBBgwFoAU2/hqFQqCUx/C68zQboNyV+RF8nQwNAYDVR0lBC0w
KwYIKwYBBQUHAwEGCCsGAQUFBwMCBgorBgEEAYI3CgMDBglghkgBhvhCBAEwDAYD
VR0TAQH/BAIwADANBgkqhkiG9w0BAQQFAAOBgQCLqtqS6E8LhqYzP7DH0VLapI/h
PlAn+41qZ2TonhcXwSGSjLhiFQXKyT8pT/tTrJYzhsxYe4iR3NEoISolenoOSeig
aDotE/5r3lzxXDglJhmolSAMTz1rjMmO0g8527VmWRC+xmpRCdRqJ7YyHQSSCcoH
knt3b1pPZwK2ZoQcmw==
-----END CERTIFICATE-----
