Certificate:
    Data:
        Version: 3 (0x2)
        Serial Number: 25 (0x19)
        Signature Algorithm: md5WithRSAEncryption
        Issuer: C=MY, ST=MAHA, L=PUNE, O=PSPL, OU=OBLIX-QA, CN=ps2436/emailAddress=sagar@pspl.com
        Validity
            Not Before: Dec 11 11:03:06 2008 GMT
            Not After : Dec 11 11:03:06 2009 GMT
        Subject: C=US, ST=Maharashtra, L=Pune, O=oblix, OU=oracle, CN=ps0450
        Subject Public Key Info:
            Public Key Algorithm: rsaEncryption
            RSA Public Key: (1024 bit)
                Modulus (1024 bit):
                    00:ed:58:8e:2d:37:bb:e9:ef:ea:a3:c9:4b:47:ee:
                    ce:3d:d8:d8:3e:41:59:f1:a0:58:5e:e2:eb:51:31:
                    78:c8:7a:6a:ec:d5:80:65:3c:23:c3:ed:01:22:b7:
                    3d:0e:38:90:49:89:f1:b2:f1:5a:78:62:0b:f3:83:
                    a1:4c:2e:5a:1c:b0:95:24:61:75:03:d2:e6:03:d9:
                    c4:08:db:fb:1e:2e:73:e3:14:24:87:1f:65:8b:42:
                    86:b2:f3:cb:2c:ef:f7:a0:54:f6:12:81:bf:4c:cd:
                    17:ad:cc:26:a3:8d:ea:ee:18:49:a2:bd:52:21:6d:
                    99:ce:4f:59:ee:ac:d8:23:19
                Exponent: 65537 (0x10001)
        X509v3 extensions:
            X509v3 Authority Key Identifier: 
            keyid:DB:F8:6A:15:0A:82:53:1F:C2:EB:CC:D0:6E:83:72:57:E4:45:F2:74

            X509v3 Extended Key Usage: 
            TLS Web Server Authentication, TLS Web Client Authentication, Microsoft Server Gated Crypto, Netscape Server Gated Crypto
            X509v3 Basic Constraints: critical
            CA:FALSE
    Signature Algorithm: md5WithRSAEncryption
        79:d5:34:14:31:06:e7:04:01:c8:6b:2e:2f:9b:f6:a4:2b:75:
        f7:3b:9d:df:72:c2:9b:b0:26:c2:2e:d9:72:a5:32:5e:17:c3:
        ac:88:37:2c:d4:9b:94:50:38:a1:6b:38:07:af:85:a7:0a:65:
        1b:86:9a:e3:02:c2:ee:33:ab:b0:47:22:26:47:d5:b1:7e:d6:
        3f:44:2e:ef:ba:d4:c1:99:09:50:82:3a:a5:7d:6d:d5:e6:ca:
        58:29:ca:90:0a:cc:73:1b:34:e4:6b:6a:cc:b0:a2:de:9d:44:
        2f:39:4b:e3:ed:a4:3c:13:be:33:b9:d5:30:b0:da:41:b3:2d:
        7d:b8
-----BEGIN CERTIFICATE-----
MIICvjCCAiegAwIBAgIBGTANBgkqhkiG9w0BAQQFADB9MQswCQYDVQQGEwJNWTEN
MAsGA1UECBMETUFIQTENMAsGA1UEBxMEUFVORTENMAsGA1UEChMEUFNQTDERMA8G
A1UECxMIT0JMSVgtUUExDzANBgNVBAMTBnBzMjQzNjEdMBsGCSqGSIb3DQEJARYO
c2FnYXJAcHNwbC5jb20wHhcNMDgxMjExMTEwMzA2WhcNMDkxMjExMTEwMzA2WjBk
MQswCQYDVQQGEwJVUzEUMBIGA1UECBMLTWFoYXJhc2h0cmExDTALBgNVBAcTBFB1
bmUxDjAMBgNVBAoTBW9ibGl4MQ8wDQYDVQQLEwZvcmFjbGUxDzANBgNVBAMTBnBz
MDQ1MDCBnzANBgkqhkiG9w0BAQEFAAOBjQAwgYkCgYEA7ViOLTe76e/qo8lLR+7O
PdjYPkFZ8aBYXuLrUTF4yHpq7NWAZTwjw+0BIrc9DjiQSYnxsvFaeGIL84OhTC5a
HLCVJGF1A9LmA9nECNv7Hi5z4xQkhx9li0KGsvPLLO/3oFT2EoG/TM0Xrcwmo43q
7hhJor1SIW2Zzk9Z7qzYIxkCAwEAAaNnMGUwHwYDVR0jBBgwFoAU2/hqFQqCUx/C
68zQboNyV+RF8nQwNAYDVR0lBC0wKwYIKwYBBQUHAwEGCCsGAQUFBwMCBgorBgEE
AYI3CgMDBglghkgBhvhCBAEwDAYDVR0TAQH/BAIwADANBgkqhkiG9w0BAQQFAAOB
gQB51TQUMQbnBAHIay4vm/akK3X3O53fcsKbsCbCLtlypTJeF8OsiDcs1JuUUDih
azgHr4WnCmUbhprjAsLuM6uwRyImR9WxftY/RC7vutTBmQlQgjqlfW3V5spYKcqQ
CsxzGzTka2rMsKLenUQvOUvj7aQ8E74zudUwsNpBsy19uA==
-----END CERTIFICATE-----
