Certificate:
    Data:
        Version: 3 (0x2)
        Serial Number: 26 (0x1a)
        Signature Algorithm: md5WithRSAEncryption
        Issuer: C=MY, ST=MAHA, L=PUNE, O=PSPL, OU=OBLIX-QA, CN=ps2436/emailAddress=sagar@pspl.com
        Validity
            Not Before: Dec 11 12:30:09 2008 GMT
            Not After : Dec 11 12:30:09 2009 GMT
        Subject: C=US, ST=california, L=Redwood city, O=oracle, OU=webcache, CN=wxdev2
        Subject Public Key Info:
            Public Key Algorithm: rsaEncryption
            RSA Public Key: (1024 bit)
                Modulus (1024 bit):
                    00:c3:b8:03:7c:fc:5e:ee:64:50:ec:86:f4:5e:d9:
                    48:ee:b3:30:c6:ad:b7:8e:9b:9b:7f:17:82:d8:bb:
                    e9:95:6d:0e:4c:c8:41:4e:12:a3:47:76:29:7d:8c:
                    05:81:c7:14:4f:61:bb:58:f8:c6:40:96:f2:10:4c:
                    3c:90:af:d2:9a:33:59:f5:6f:fe:eb:68:ab:df:21:
                    9d:cd:94:c4:f2:76:41:46:95:f8:ff:24:58:c0:37:
                    f5:56:17:28:de:86:1a:5e:43:8b:26:ad:0f:fe:fa:
                    71:f0:3d:a9:af:ec:10:a8:91:45:cd:e2:7d:eb:52:
                    ee:3e:48:24:fc:25:23:12:c9
                Exponent: 65537 (0x10001)
        X509v3 extensions:
            X509v3 Authority Key Identifier: 
            keyid:DB:F8:6A:15:0A:82:53:1F:C2:EB:CC:D0:6E:83:72:57:E4:45:F2:74

            X509v3 Extended Key Usage: 
            TLS Web Server Authentication, TLS Web Client Authentication, Microsoft Server Gated Crypto, Netscape Server Gated Crypto
            X509v3 Basic Constraints: critical
            CA:FALSE
    Signature Algorithm: md5WithRSAEncryption
        2d:70:4b:50:03:15:e2:22:d1:db:c6:d8:a0:68:69:23:ee:df:
        cf:0d:b3:6d:79:70:96:46:ed:b8:ff:32:b6:a3:a7:ee:f2:ad:
        ba:42:5c:39:ee:4f:f2:d8:41:10:98:38:80:ab:7d:bc:94:b7:
        82:ae:68:9b:c9:e4:d1:05:45:38:a6:a0:1a:36:60:2a:a3:93:
        ea:27:1d:74:c9:90:99:25:72:88:0c:33:aa:c2:93:db:18:f3:
        a6:67:a5:9c:ff:2c:14:e4:ac:74:76:1b:02:ee:73:b6:6d:b3:
        8f:3d:8a:63:9e:97:08:85:7e:35:6c:e0:7b:6f:23:7a:30:d2:
        7d:e2
-----BEGIN CERTIFICATE-----
MIICyDCCAjGgAwIBAgIBGjANBgkqhkiG9w0BAQQFADB9MQswCQYDVQQGEwJNWTEN
MAsGA1UECBMETUFIQTENMAsGA1UEBxMEUFVORTENMAsGA1UEChMEUFNQTDERMA8G
A1UECxMIT0JMSVgtUUExDzANBgNVBAMTBnBzMjQzNjEdMBsGCSqGSIb3DQEJARYO
c2FnYXJAcHNwbC5jb20wHhcNMDgxMjExMTIzMDA5WhcNMDkxMjExMTIzMDA5WjBu
MQswCQYDVQQGEwJVUzETMBEGA1UECBMKY2FsaWZvcm5pYTEVMBMGA1UEBxMMUmVk
d29vZCBjaXR5MQ8wDQYDVQQKEwZvcmFjbGUxETAPBgNVBAsTCHdlYmNhY2hlMQ8w
DQYDVQQDEwZ3eGRldjIwgZ8wDQYJKoZIhvcNAQEBBQADgY0AMIGJAoGBAMO4A3z8
Xu5kUOyG9F7ZSO6zMMatt46bm38Xgti76ZVtDkzIQU4So0d2KX2MBYHHFE9hu1j4
xkCW8hBMPJCv0pozWfVv/utoq98hnc2UxPJ2QUaV+P8kWMA39VYXKN6GGl5Diyat
D/76cfA9qa/sEKiRRc3ifetS7j5IJPwlIxLJAgMBAAGjZzBlMB8GA1UdIwQYMBaA
FNv4ahUKglMfwuvM0G6DclfkRfJ0MDQGA1UdJQQtMCsGCCsGAQUFBwMBBggrBgEF
BQcDAgYKKwYBBAGCNwoDAwYJYIZIAYb4QgQBMAwGA1UdEwEB/wQCMAAwDQYJKoZI
hvcNAQEEBQADgYEALXBLUAMV4iLR28bYoGhpI+7fzw2zbXlwlkbtuP8ytqOn7vKt
ukJcOe5P8thBEJg4gKt9vJS3gq5om8nk0QVFOKagGjZgKqOT6icddMmQmSVyiAwz
qsKT2xjzpmelnP8sFOSsdHYbAu5ztm2zjz2KY56XCIV+NWzge28jejDSfeI=
-----END CERTIFICATE-----
