Certificate:
    Data:
        Version: 3 (0x2)
        Serial Number: 27 (0x1b)
        Signature Algorithm: md5WithRSAEncryption
        Issuer: C=MY, ST=MAHA, L=PUNE, O=PSPL, OU=OBLIX-QA, CN=ps2436/emailAddress=sagar@pspl.com
        Validity
            Not Before: Dec 15 06:24:55 2008 GMT
            Not After : Dec 15 06:24:55 2009 GMT
        Subject: C=US, ST=California, L=belmont, O=oracle, OU=oracle, CN=ps6663
        Subject Public Key Info:
            Public Key Algorithm: rsaEncryption
            RSA Public Key: (1024 bit)
                Modulus (1024 bit):
                    00:db:57:94:3b:30:65:5c:69:73:81:3e:4b:ff:4d:
                    d3:e2:5d:b8:65:c1:6f:4f:67:ed:28:e3:48:5d:cb:
                    e1:75:00:ee:e7:5b:ae:93:d5:a4:50:d8:2f:26:19:
                    8b:76:c6:23:5e:e4:99:ae:f0:75:ea:9f:61:bf:bb:
                    3b:a0:63:7e:3c:f0:8b:9b:04:39:ff:16:73:db:6c:
                    03:41:a7:b9:2f:2f:0d:4f:1d:60:9d:48:ca:13:51:
                    96:8c:ce:83:48:c8:69:2a:c4:41:fb:12:3f:14:84:
                    39:e1:24:35:34:6b:40:4c:b2:83:9e:8d:cc:e5:04:
                    35:59:e6:18:81:ea:67:df:fb
                Exponent: 65537 (0x10001)
        X509v3 extensions:
            X509v3 Authority Key Identifier: 
            keyid:DB:F8:6A:15:0A:82:53:1F:C2:EB:CC:D0:6E:83:72:57:E4:45:F2:74

            X509v3 Extended Key Usage: 
            TLS Web Server Authentication, TLS Web Client Authentication, Microsoft Server Gated Crypto, Netscape Server Gated Crypto
            X509v3 Basic Constraints: critical
            CA:FALSE
    Signature Algorithm: md5WithRSAEncryption
        39:8c:97:d8:7a:d9:e6:c9:a4:97:eb:c5:ce:c9:28:c5:bf:b2:
        f0:e2:c9:1e:f5:41:1b:1f:86:fe:60:ad:53:3a:9b:fa:98:c7:
        21:bd:f4:cc:ea:b2:f9:94:32:cf:6c:0b:77:a9:f1:dd:a0:05:
        99:6e:94:67:48:06:47:c1:3d:5d:de:49:88:cf:b9:50:dd:40:
        9e:8d:b4:65:75:5e:1a:0c:70:c9:ca:1b:a7:b2:39:01:9b:77:
        96:ab:bb:21:aa:4c:48:a2:f8:e4:1c:07:48:a0:40:95:b7:7c:
        34:0c:b3:63:c5:04:12:4a:c2:6a:7f:cd:dd:1b:10:03:90:3e:
        1c:f8
-----BEGIN CERTIFICATE-----
MIICwTCCAiqgAwIBAgIBGzANBgkqhkiG9w0BAQQFADB9MQswCQYDVQQGEwJNWTEN
MAsGA1UECBMETUFIQTENMAsGA1UEBxMEUFVORTENMAsGA1UEChMEUFNQTDERMA8G
A1UECxMIT0JMSVgtUUExDzANBgNVBAMTBnBzMjQzNjEdMBsGCSqGSIb3DQEJARYO
c2FnYXJAcHNwbC5jb20wHhcNMDgxMjE1MDYyNDU1WhcNMDkxMjE1MDYyNDU1WjBn
MQswCQYDVQQGEwJVUzETMBEGA1UECBMKQ2FsaWZvcm5pYTEQMA4GA1UEBxMHYmVs
bW9udDEPMA0GA1UEChMGb3JhY2xlMQ8wDQYDVQQLEwZvcmFjbGUxDzANBgNVBAMT
BnBzNjY2MzCBnzANBgkqhkiG9w0BAQEFAAOBjQAwgYkCgYEA21eUOzBlXGlzgT5L
/03T4l24ZcFvT2ftKONIXcvhdQDu51uuk9WkUNgvJhmLdsYjXuSZrvB16p9hv7s7
oGN+PPCLmwQ5/xZz22wDQae5Ly8NTx1gnUjKE1GWjM6DSMhpKsRB+xI/FIQ54SQ1
NGtATLKDno3M5QQ1WeYYgepn3/sCAwEAAaNnMGUwHwYDVR0jBBgwFoAU2/hqFQqC
Ux/C68zQboNyV+RF8nQwNAYDVR0lBC0wKwYIKwYBBQUHAwEGCCsGAQUFBwMCBgor
BgEEAYI3CgMDBglghkgBhvhCBAEwDAYDVR0TAQH/BAIwADANBgkqhkiG9w0BAQQF
AAOBgQA5jJfYetnmyaSX68XOySjFv7Lw4ske9UEbH4b+YK1TOpv6mMchvfTM6rL5
lDLPbAt3qfHdoAWZbpRnSAZHwT1d3kmIz7lQ3UCejbRldV4aDHDJyhunsjkBm3eW
q7shqkxIovjkHAdIoECVt3w0DLNjxQQSSsJqf83dGxADkD4c+A==
-----END CERTIFICATE-----
