Certificate:
    Data:
        Version: 3 (0x2)
        Serial Number: 33 (0x21)
        Signature Algorithm: md5WithRSAEncryption
        Issuer: C=MY, ST=MAHA, L=PUNE, O=PSPL, OU=OBLIX-QA, CN=ps2436/emailAddress=sagar@pspl.com
        Validity
            Not Before: Dec 16 11:12:32 2008 GMT
            Not After : Dec 16 11:12:32 2009 GMT
        Subject: C=IN, ST=Maharashtra, L=Pune, O=PSL, OU=OblixQA, CN=pahalgam.persistent.co.in
        Subject Public Key Info:
            Public Key Algorithm: rsaEncryption
            RSA Public Key: (1024 bit)
                Modulus (1024 bit):
                    00:d6:98:a0:13:9e:35:45:ea:1f:7e:74:ae:fd:91:
                    45:3e:7b:46:be:07:1e:35:61:55:df:13:ac:d6:8a:
                    58:20:7b:d9:63:ea:fa:61:09:5c:97:68:f3:5b:21:
                    e7:55:99:c7:e4:bd:5e:67:8a:6f:72:01:d8:c5:63:
                    8d:6b:33:d4:fd:a4:f6:3e:9f:e9:57:7d:bb:a7:ee:
                    5c:20:ef:9e:dd:9e:a1:24:52:2a:4e:d3:1d:c7:2a:
                    50:f7:28:24:9b:d7:2d:b7:69:d4:bd:0d:70:a0:6a:
                    04:b9:7a:b1:86:49:4d:15:98:12:9c:09:bf:be:b4:
                    47:ff:7d:31:c7:4a:df:0d:61
                Exponent: 65537 (0x10001)
        X509v3 extensions:
            X509v3 Authority Key Identifier: 
            keyid:DB:F8:6A:15:0A:82:53:1F:C2:EB:CC:D0:6E:83:72:57:E4:45:F2:74

            X509v3 Extended Key Usage: 
            TLS Web Server Authentication, TLS Web Client Authentication, Microsoft Server Gated Crypto, Netscape Server Gated Crypto
            X509v3 Basic Constraints: critical
            CA:FALSE
    Signature Algorithm: md5WithRSAEncryption
        16:17:b6:40:30:75:92:cc:7e:ad:98:a7:eb:b4:44:16:ca:8c:
        ae:3e:e1:4d:6b:af:5e:8e:d7:cb:88:9e:19:ec:5d:f8:8d:5b:
        91:a2:af:ba:bd:b6:df:54:d9:be:85:75:0f:ec:fc:50:3d:1f:
        11:6a:51:fa:dc:ff:e2:e8:69:02:81:8b:28:32:a6:37:23:76:
        91:38:55:c6:9c:15:87:b1:b7:2a:13:2b:33:7d:7e:cb:4a:77:
        f8:d9:0a:e4:2e:10:08:4d:c2:9c:8e:40:67:3d:bc:c7:60:47:
        d7:78:b0:cd:15:32:24:1f:09:af:83:2b:4a:9f:f1:4c:dc:c0:
        e5:2a
-----BEGIN CERTIFICATE-----
MIIC0DCCAjmgAwIBAgIBITANBgkqhkiG9w0BAQQFADB9MQswCQYDVQQGEwJNWTEN
MAsGA1UECBMETUFIQTENMAsGA1UEBxMEUFVORTENMAsGA1UEChMEUFNQTDERMA8G
A1UECxMIT0JMSVgtUUExDzANBgNVBAMTBnBzMjQzNjEdMBsGCSqGSIb3DQEJARYO
c2FnYXJAcHNwbC5jb20wHhcNMDgxMjE2MTExMjMyWhcNMDkxMjE2MTExMjMyWjB2
MQswCQYDVQQGEwJJTjEUMBIGA1UECBMLTWFoYXJhc2h0cmExDTALBgNVBAcTBFB1
bmUxDDAKBgNVBAoTA1BTTDEQMA4GA1UECxMHT2JsaXhRQTEiMCAGA1UEAxMZcGFo
YWxnYW0ucGVyc2lzdGVudC5jby5pbjCBnzANBgkqhkiG9w0BAQEFAAOBjQAwgYkC
gYEA1pigE541ReoffnSu/ZFFPntGvgceNWFV3xOs1opYIHvZY+r6YQlcl2jzWyHn
VZnH5L1eZ4pvcgHYxWONazPU/aT2Pp/pV327p+5cIO+e3Z6hJFIqTtMdxypQ9ygk
m9ctt2nUvQ1woGoEuXqxhklNFZgSnAm/vrRH/30xx0rfDWECAwEAAaNnMGUwHwYD
VR0jBBgwFoAU2/hqFQqCUx/C68zQboNyV+RF8nQwNAYDVR0lBC0wKwYIKwYBBQUH
AwEGCCsGAQUFBwMCBgorBgEEAYI3CgMDBglghkgBhvhCBAEwDAYDVR0TAQH/BAIw
ADANBgkqhkiG9w0BAQQFAAOBgQAWF7ZAMHWSzH6tmKfrtEQWyoyuPuFNa69ejtfL
iJ4Z7F34jVuRoq+6vbbfVNm+hXUP7PxQPR8RalH63P/i6GkCgYsoMqY3I3aROFXG
nBWHsbcqEyszfX7LSnf42QrkLhAITcKcjkBnPbzHYEfXeLDNFTIkHwmvgytKn/FM
3MDlKg==
-----END CERTIFICATE-----
