Certificate:
    Data:
        Version: 3 (0x2)
        Serial Number: 35 (0x23)
        Signature Algorithm: md5WithRSAEncryption
        Issuer: C=MY, ST=MAHA, L=PUNE, O=PSPL, OU=OBLIX-QA, CN=ps2436/emailAddress=sagar@pspl.com
        Validity
            Not Before: Dec 17 10:07:28 2008 GMT
            Not After : Dec 17 10:07:28 2009 GMT
        Subject: C=US, ST=Alabama, L=pune, O=Oblix, OU=psl, CN=ps3373.persistent.co.in
        Subject Public Key Info:
            Public Key Algorithm: rsaEncryption
            RSA Public Key: (1024 bit)
                Modulus (1024 bit):
                    00:ca:f3:b2:0f:38:1c:17:2e:42:90:8d:40:e0:be:
                    58:6c:20:11:d1:80:43:20:52:32:e0:1c:da:ce:c0:
                    28:8a:00:93:a0:11:9f:61:8f:67:e6:5a:30:4d:3d:
                    1c:ff:d2:1b:21:56:89:ac:2a:4d:7a:6d:22:e2:e5:
                    05:89:bf:af:d4:fb:53:b9:1d:e7:89:46:ee:c0:bc:
                    a3:5a:bf:b7:94:36:bb:19:e3:26:ca:6e:55:47:a3:
                    a4:87:45:02:f9:a4:9a:ff:ad:17:10:8e:5d:53:5c:
                    61:f9:37:2e:74:aa:f0:69:a2:62:9e:fd:0f:9e:5d:
                    5c:42:ef:67:ee:c7:63:52:03
                Exponent: 65537 (0x10001)
        X509v3 extensions:
            X509v3 Authority Key Identifier: 
            keyid:DB:F8:6A:15:0A:82:53:1F:C2:EB:CC:D0:6E:83:72:57:E4:45:F2:74

            X509v3 Extended Key Usage: 
            TLS Web Server Authentication, TLS Web Client Authentication, Microsoft Server Gated Crypto, Netscape Server Gated Crypto
            X509v3 Basic Constraints: critical
            CA:FALSE
    Signature Algorithm: md5WithRSAEncryption
        9a:2f:cb:3d:43:27:4b:f0:00:50:31:5c:6c:c2:45:6e:c6:a6:
        3b:e2:ed:24:c6:1c:83:3a:b9:f1:ad:24:8d:94:54:85:f8:09:
        a7:db:b6:dc:24:66:55:51:28:72:b0:90:6d:7b:49:f4:e6:f9:
        64:85:65:56:86:ca:86:29:21:85:56:03:ad:22:85:ba:bb:a2:
        c0:cf:2c:39:3f:70:96:ba:a7:f4:55:02:8c:36:37:a8:74:9c:
        74:62:87:8d:32:29:e0:d1:8d:b2:65:67:a2:9a:99:ed:6e:35:
        f6:05:34:06:fe:48:7d:d7:cb:85:93:a0:01:a8:14:d5:84:64:
        4f:03
-----BEGIN CERTIFICATE-----
MIICyDCCAjGgAwIBAgIBIzANBgkqhkiG9w0BAQQFADB9MQswCQYDVQQGEwJNWTEN
MAsGA1UECBMETUFIQTENMAsGA1UEBxMEUFVORTENMAsGA1UEChMEUFNQTDERMA8G
A1UECxMIT0JMSVgtUUExDzANBgNVBAMTBnBzMjQzNjEdMBsGCSqGSIb3DQEJARYO
c2FnYXJAcHNwbC5jb20wHhcNMDgxMjE3MTAwNzI4WhcNMDkxMjE3MTAwNzI4WjBu
MQswCQYDVQQGEwJVUzEQMA4GA1UECBMHQWxhYmFtYTENMAsGA1UEBxMEcHVuZTEO
MAwGA1UEChMFT2JsaXgxDDAKBgNVBAsTA3BzbDEgMB4GA1UEAxMXcHMzMzczLnBl
cnNpc3RlbnQuY28uaW4wgZ8wDQYJKoZIhvcNAQEBBQADgY0AMIGJAoGBAMrzsg84
HBcuQpCNQOC+WGwgEdGAQyBSMuAc2s7AKIoAk6ARn2GPZ+ZaME09HP/SGyFWiawq
TXptIuLlBYm/r9T7U7kd54lG7sC8o1q/t5Q2uxnjJspuVUejpIdFAvmkmv+tFxCO
XVNcYfk3LnSq8GmiYp79D55dXELvZ+7HY1IDAgMBAAGjZzBlMB8GA1UdIwQYMBaA
FNv4ahUKglMfwuvM0G6DclfkRfJ0MDQGA1UdJQQtMCsGCCsGAQUFBwMBBggrBgEF
BQcDAgYKKwYBBAGCNwoDAwYJYIZIAYb4QgQBMAwGA1UdEwEB/wQCMAAwDQYJKoZI
hvcNAQEEBQADgYEAmi/LPUMnS/AAUDFcbMJFbsamO+LtJMYcgzq58a0kjZRUhfgJ
p9u23CRmVVEocrCQbXtJ9Ob5ZIVlVobKhikhhVYDrSKFuruiwM8sOT9wlrqn9FUC
jDY3qHScdGKHjTIp4NGNsmVnopqZ7W419gU0Bv5IfdfLhZOgAagU1YRkTwM=
-----END CERTIFICATE-----
