Certificate:
    Data:
        Version: 3 (0x2)
        Serial Number: 38 (0x26)
        Signature Algorithm: md5WithRSAEncryption
        Issuer: C=MY, ST=MAHA, L=PUNE, O=PSPL, OU=OBLIX-QA, CN=ps2436/emailAddress=sagar@pspl.com
        Validity
            Not Before: Dec 19 05:22:00 2008 GMT
            Not After : Dec 19 05:22:00 2009 GMT
        Subject: C=US, ST=Maharasthra, L=pune, O=PSL, OU=oblix, CN=v-ps4572-v1
        Subject Public Key Info:
            Public Key Algorithm: rsaEncryption
            RSA Public Key: (1024 bit)
                Modulus (1024 bit):
                    00:ae:a5:6d:4b:ab:12:21:a2:8d:25:15:f8:9e:03:
                    00:3a:2f:25:32:55:9d:c0:db:25:cb:eb:9b:90:b3:
                    4e:3d:c9:a2:f0:df:05:59:c6:0c:16:1c:27:e5:d0:
                    28:41:03:c5:76:6e:d1:01:38:94:98:b5:3c:f7:33:
                    dd:c6:f8:a3:38:02:43:29:73:d5:80:66:14:95:c4:
                    90:57:cd:7c:fd:90:30:19:aa:f6:20:d3:4b:10:8d:
                    38:b6:c7:19:39:02:35:fd:f0:54:db:24:78:63:76:
                    34:c1:15:86:f0:12:0e:16:af:1e:e8:49:a6:f1:ea:
                    86:0e:8a:13:b4:55:26:d9:23
                Exponent: 65537 (0x10001)
        X509v3 extensions:
            X509v3 Authority Key Identifier: 
            keyid:DB:F8:6A:15:0A:82:53:1F:C2:EB:CC:D0:6E:83:72:57:E4:45:F2:74

            X509v3 Extended Key Usage: 
            TLS Web Server Authentication, TLS Web Client Authentication, Microsoft Server Gated Crypto, Netscape Server Gated Crypto
            X509v3 Basic Constraints: critical
            CA:FALSE
    Signature Algorithm: md5WithRSAEncryption
        55:39:f7:35:f9:37:a1:ed:ba:9a:c7:39:ed:3b:64:84:17:1b:
        68:af:aa:af:7f:0e:99:89:99:58:49:b9:03:ef:13:4b:4b:d0:
        1f:cc:d2:68:d4:33:08:01:bb:ba:c1:e3:d9:0b:16:41:16:b1:
        76:ab:dd:cc:70:6e:17:b8:14:18:82:31:fd:cb:03:83:74:74:
        1d:bd:8d:5b:2e:7d:e0:99:8f:75:c3:7e:38:69:b0:f7:c8:f7:
        ef:a6:e5:af:2a:0d:d4:53:b4:9b:25:65:20:fc:8b:cb:34:3d:
        2d:6a:b9:6f:bf:1c:79:a6:ef:0a:a1:11:3e:7b:6f:1c:3d:e9:
        17:51
-----BEGIN CERTIFICATE-----
MIICwDCCAimgAwIBAgIBJjANBgkqhkiG9w0BAQQFADB9MQswCQYDVQQGEwJNWTEN
MAsGA1UECBMETUFIQTENMAsGA1UEBxMEUFVORTENMAsGA1UEChMEUFNQTDERMA8G
A1UECxMIT0JMSVgtUUExDzANBgNVBAMTBnBzMjQzNjEdMBsGCSqGSIb3DQEJARYO
c2FnYXJAcHNwbC5jb20wHhcNMDgxMjE5MDUyMjAwWhcNMDkxMjE5MDUyMjAwWjBm
MQswCQYDVQQGEwJVUzEUMBIGA1UECBMLTWFoYXJhc3RocmExDTALBgNVBAcTBHB1
bmUxDDAKBgNVBAoTA1BTTDEOMAwGA1UECxMFb2JsaXgxFDASBgNVBAMTC3YtcHM0
NTcyLXYxMIGfMA0GCSqGSIb3DQEBAQUAA4GNADCBiQKBgQCupW1LqxIhoo0lFfie
AwA6LyUyVZ3A2yXL65uQs049yaLw3wVZxgwWHCfl0ChBA8V2btEBOJSYtTz3M93G
+KM4AkMpc9WAZhSVxJBXzXz9kDAZqvYg00sQjTi2xxk5AjX98FTbJHhjdjTBFYbw
Eg4Wrx7oSabx6oYOihO0VSbZIwIDAQABo2cwZTAfBgNVHSMEGDAWgBTb+GoVCoJT
H8LrzNBug3JX5EXydDA0BgNVHSUELTArBggrBgEFBQcDAQYIKwYBBQUHAwIGCisG
AQQBgjcKAwMGCWCGSAGG+EIEATAMBgNVHRMBAf8EAjAAMA0GCSqGSIb3DQEBBAUA
A4GBAFU59zX5N6HtuprHOe07ZIQXG2ivqq9/DpmJmVhJuQPvE0tL0B/M0mjUMwgB
u7rB49kLFkEWsXar3cxwbhe4FBiCMf3LA4N0dB29jVsufeCZj3XDfjhpsPfI9++m
5a8qDdRTtJslZSD8i8s0PS1quW+/HHmm7wqhET57bxw96RdR
-----END CERTIFICATE-----
