Certificate:
    Data:
        Version: 3 (0x2)
        Serial Number: 39 (0x27)
        Signature Algorithm: md5WithRSAEncryption
        Issuer: C=MY, ST=MAHA, L=PUNE, O=PSPL, OU=OBLIX-QA, CN=ps2436/emailAddress=sagar@pspl.com
        Validity
            Not Before: Dec 19 05:26:25 2008 GMT
            Not After : Dec 19 05:26:25 2009 GMT
        Subject: C=IN, ST=Maharasthra, L=pune, O=PSL, OU=oblix, CN=v-ps4572-v1
        Subject Public Key Info:
            Public Key Algorithm: rsaEncryption
            RSA Public Key: (1024 bit)
                Modulus (1024 bit):
                    00:d1:9d:7d:45:55:a6:d1:15:95:22:33:9c:6e:ac:
                    c4:db:88:08:87:43:71:09:05:0a:47:47:80:95:02:
                    2c:bb:3f:15:8b:7b:16:52:c1:89:7b:8c:00:6c:09:
                    05:b4:ab:ee:08:30:50:b8:63:cc:14:4f:84:d0:05:
                    e4:26:1d:da:82:cb:02:f8:09:ac:29:d5:42:71:93:
                    89:f3:cc:49:dd:38:5a:9f:74:7d:91:e8:62:29:9d:
                    79:7a:4c:4c:ef:eb:27:eb:8b:d4:d5:97:b4:34:8a:
                    6d:dc:08:ca:98:2b:be:be:a6:fd:fd:7d:92:54:c3:
                    47:f5:01:f5:6e:37:f0:ff:b7
                Exponent: 65537 (0x10001)
        X509v3 extensions:
            X509v3 Authority Key Identifier: 
            keyid:DB:F8:6A:15:0A:82:53:1F:C2:EB:CC:D0:6E:83:72:57:E4:45:F2:74

            X509v3 Extended Key Usage: 
            TLS Web Server Authentication, TLS Web Client Authentication, Microsoft Server Gated Crypto, Netscape Server Gated Crypto
            X509v3 Basic Constraints: critical
            CA:FALSE
    Signature Algorithm: md5WithRSAEncryption
        bd:93:14:fa:d8:0e:bc:0b:dc:49:05:fe:4d:f2:09:72:71:19:
        0d:fc:f1:5b:34:fe:43:da:31:58:d8:3a:a9:68:34:b0:63:5c:
        0b:65:e7:9f:c9:f4:af:b9:a9:2d:03:11:36:8a:ce:70:39:8c:
        60:11:9e:19:a2:0b:08:3a:00:fb:bd:66:b5:05:f9:fc:ad:13:
        90:9a:3e:9e:f3:83:be:1b:08:49:c0:99:54:74:f3:b5:0f:53:
        c0:e9:79:dc:7f:b0:47:44:2d:88:e4:cb:de:31:26:50:de:be:
        05:e5:06:0d:e3:03:b9:20:ee:1e:5d:ac:d1:85:43:aa:f4:a5:
        95:81
-----BEGIN CERTIFICATE-----
MIICwDCCAimgAwIBAgIBJzANBgkqhkiG9w0BAQQFADB9MQswCQYDVQQGEwJNWTEN
MAsGA1UECBMETUFIQTENMAsGA1UEBxMEUFVORTENMAsGA1UEChMEUFNQTDERMA8G
A1UECxMIT0JMSVgtUUExDzANBgNVBAMTBnBzMjQzNjEdMBsGCSqGSIb3DQEJARYO
c2FnYXJAcHNwbC5jb20wHhcNMDgxMjE5MDUyNjI1WhcNMDkxMjE5MDUyNjI1WjBm
MQswCQYDVQQGEwJJTjEUMBIGA1UECBMLTWFoYXJhc3RocmExDTALBgNVBAcTBHB1
bmUxDDAKBgNVBAoTA1BTTDEOMAwGA1UECxMFb2JsaXgxFDASBgNVBAMTC3YtcHM0
NTcyLXYxMIGfMA0GCSqGSIb3DQEBAQUAA4GNADCBiQKBgQDRnX1FVabRFZUiM5xu
rMTbiAiHQ3EJBQpHR4CVAiy7PxWLexZSwYl7jABsCQW0q+4IMFC4Y8wUT4TQBeQm
HdqCywL4Cawp1UJxk4nzzEndOFqfdH2R6GIpnXl6TEzv6yfri9TVl7Q0im3cCMqY
K76+pv39fZJUw0f1AfVuN/D/twIDAQABo2cwZTAfBgNVHSMEGDAWgBTb+GoVCoJT
H8LrzNBug3JX5EXydDA0BgNVHSUELTArBggrBgEFBQcDAQYIKwYBBQUHAwIGCisG
AQQBgjcKAwMGCWCGSAGG+EIEATAMBgNVHRMBAf8EAjAAMA0GCSqGSIb3DQEBBAUA
A4GBAL2TFPrYDrwL3EkF/k3yCXJxGQ388Vs0/kPaMVjYOqloNLBjXAtl55/J9K+5
qS0DETaKznA5jGARnhmiCwg6APu9ZrUF+fytE5CaPp7zg74bCEnAmVR087UPU8Dp
edx/sEdELYjky94xJlDevgXlBg3jA7kg7h5drNGFQ6r0pZWB
-----END CERTIFICATE-----
