Certificate:
    Data:
        Version: 3 (0x2)
        Serial Number: 40 (0x28)
        Signature Algorithm: md5WithRSAEncryption
        Issuer: C=MY, ST=MAHA, L=PUNE, O=PSPL, OU=OBLIX-QA, CN=ps2436/emailAddress=sagar@pspl.com
        Validity
            Not Before: Dec 19 07:09:29 2008 GMT
            Not After : Dec 19 07:09:29 2009 GMT
        Subject: C=US, ST=California, L=california, O=oracle, OU=oblix, CN=ps3848.persistent.co.in
        Subject Public Key Info:
            Public Key Algorithm: rsaEncryption
            RSA Public Key: (1024 bit)
                Modulus (1024 bit):
                    00:af:fe:ef:49:f2:af:1a:69:55:42:b2:be:d0:64:
                    28:a5:05:16:08:52:f7:3e:5e:ff:b1:1e:f3:04:0a:
                    a8:c9:76:db:e8:01:d5:6f:c0:ab:1c:8d:21:4d:63:
                    e3:bd:f6:0b:97:3b:04:1a:24:93:ca:bd:b8:18:83:
                    3b:5f:7d:cd:7b:40:fc:c0:e8:7d:b4:b7:f1:50:81:
                    b3:84:7e:9a:db:64:d5:8a:42:6f:43:4b:f2:64:49:
                    33:90:ae:f2:cd:9d:aa:0a:78:9e:07:63:ef:e3:5c:
                    d0:47:73:71:a0:c8:64:3c:fa:db:6d:ec:47:c9:62:
                    c4:02:53:4b:ee:a1:03:b3:9f
                Exponent: 65537 (0x10001)
        X509v3 extensions:
            X509v3 Authority Key Identifier: 
            keyid:DB:F8:6A:15:0A:82:53:1F:C2:EB:CC:D0:6E:83:72:57:E4:45:F2:74

            X509v3 Extended Key Usage: 
            TLS Web Server Authentication, TLS Web Client Authentication, Microsoft Server Gated Crypto, Netscape Server Gated Crypto
            X509v3 Basic Constraints: critical
            CA:FALSE
    Signature Algorithm: md5WithRSAEncryption
        87:1b:36:bf:8b:2e:27:fe:a3:a6:e1:5a:ba:81:c5:28:37:19:
        67:f5:20:57:f5:50:57:dd:42:a6:75:19:31:49:a9:76:a1:b0:
        b0:6f:a9:15:0e:16:53:38:10:f3:29:79:2a:dd:94:94:71:0e:
        db:a1:a0:47:4e:ff:45:5d:ad:85:63:9e:ff:1a:c5:14:14:41:
        2f:d7:94:27:60:2c:59:31:ba:f8:06:fe:cf:05:3e:13:80:d1:
        06:df:83:5a:59:55:8f:2a:1d:76:51:eb:bd:3d:67:07:e8:c8:
        a7:d3:27:24:d5:a0:03:87:7c:3a:87:af:b2:ad:78:88:8c:30:
        66:78
-----BEGIN CERTIFICATE-----
MIIC1DCCAj2gAwIBAgIBKDANBgkqhkiG9w0BAQQFADB9MQswCQYDVQQGEwJNWTEN
MAsGA1UECBMETUFIQTENMAsGA1UEBxMEUFVORTENMAsGA1UEChMEUFNQTDERMA8G
A1UECxMIT0JMSVgtUUExDzANBgNVBAMTBnBzMjQzNjEdMBsGCSqGSIb3DQEJARYO
c2FnYXJAcHNwbC5jb20wHhcNMDgxMjE5MDcwOTI5WhcNMDkxMjE5MDcwOTI5WjB6
MQswCQYDVQQGEwJVUzETMBEGA1UECBMKQ2FsaWZvcm5pYTETMBEGA1UEBxMKY2Fs
aWZvcm5pYTEPMA0GA1UEChMGb3JhY2xlMQ4wDAYDVQQLEwVvYmxpeDEgMB4GA1UE
AxMXcHMzODQ4LnBlcnNpc3RlbnQuY28uaW4wgZ8wDQYJKoZIhvcNAQEBBQADgY0A
MIGJAoGBAK/+70nyrxppVUKyvtBkKKUFFghS9z5e/7Ee8wQKqMl22+gB1W/AqxyN
IU1j4732C5c7BBokk8q9uBiDO199zXtA/MDofbS38VCBs4R+mttk1YpCb0NL8mRJ
M5Cu8s2dqgp4ngdj7+Nc0EdzcaDIZDz6223sR8lixAJTS+6hA7OfAgMBAAGjZzBl
MB8GA1UdIwQYMBaAFNv4ahUKglMfwuvM0G6DclfkRfJ0MDQGA1UdJQQtMCsGCCsG
AQUFBwMBBggrBgEFBQcDAgYKKwYBBAGCNwoDAwYJYIZIAYb4QgQBMAwGA1UdEwEB
/wQCMAAwDQYJKoZIhvcNAQEEBQADgYEAhxs2v4suJ/6jpuFauoHFKDcZZ/UgV/VQ
V91CpnUZMUmpdqGwsG+pFQ4WUzgQ8yl5Kt2UlHEO26GgR07/RV2thWOe/xrFFBRB
L9eUJ2AsWTG6+Ab+zwU+E4DRBt+DWllVjyoddlHrvT1nB+jIp9MnJNWgA4d8Ooev
sq14iIwwZng=
-----END CERTIFICATE-----
