Certificate:
    Data:
        Version: 3 (0x2)
        Serial Number: 42 (0x2a)
        Signature Algorithm: md5WithRSAEncryption
        Issuer: C=MY, ST=MAHA, L=PUNE, O=PSPL, OU=OBLIX-QA, CN=ps2436/emailAddress=sagar@pspl.com
        Validity
            Not Before: Dec 22 11:40:34 2008 GMT
            Not After : Dec 22 11:40:34 2009 GMT
        Subject: C=IN, ST=Maharashtra, L=Pune, O=PSL, OU=Oblix, CN=pahalgam.persistent.co.in
        Subject Public Key Info:
            Public Key Algorithm: rsaEncryption
            RSA Public Key: (1024 bit)
                Modulus (1024 bit):
                    00:bd:25:e7:28:9e:d6:fe:1f:fe:c0:fc:cd:d9:0a:
                    c5:64:98:16:e1:28:ad:e6:f6:b8:f7:08:cd:9f:d5:
                    c5:a6:c2:8b:cb:c4:5b:dd:c2:8d:3a:bd:62:c2:61:
                    c1:81:03:1a:67:13:be:ac:f0:f3:c1:92:c8:9b:60:
                    06:76:d7:fe:b3:3f:4c:3e:d6:e0:0b:f4:c8:bf:b3:
                    d1:04:a1:b5:a8:77:58:54:cf:18:3e:5a:0d:09:b4:
                    38:e1:2b:23:7a:94:3b:c9:79:a0:13:5b:62:12:a8:
                    87:28:f6:34:19:33:c6:01:7c:c5:7a:d7:42:44:cb:
                    34:f6:42:2d:08:3b:70:8a:7d
                Exponent: 65537 (0x10001)
        X509v3 extensions:
            X509v3 Authority Key Identifier: 
            keyid:DB:F8:6A:15:0A:82:53:1F:C2:EB:CC:D0:6E:83:72:57:E4:45:F2:74

            X509v3 Extended Key Usage: 
            TLS Web Server Authentication, TLS Web Client Authentication, Microsoft Server Gated Crypto, Netscape Server Gated Crypto
            X509v3 Basic Constraints: critical
            CA:FALSE
    Signature Algorithm: md5WithRSAEncryption
        8c:f8:d3:e7:d6:60:b0:2e:de:de:ba:99:0c:2e:43:16:81:7a:
        29:71:3b:9c:de:c1:62:97:69:f1:62:08:09:f7:d4:9b:5f:51:
        cc:5a:61:ba:a3:aa:21:20:71:0a:17:49:46:fd:62:1a:74:be:
        d6:de:22:de:37:ed:cd:e7:7f:98:76:0f:7b:ce:d8:81:64:6c:
        67:3e:24:ca:31:44:3a:73:23:e4:83:3e:e6:ca:1a:ea:f5:6a:
        79:5a:21:8d:2d:f4:2f:98:73:53:bf:7f:72:b0:22:09:c0:1e:
        60:c2:56:39:69:ca:d8:a2:72:fd:c7:da:96:e2:f4:65:79:1d:
        07:56
-----BEGIN CERTIFICATE-----
MIICzjCCAjegAwIBAgIBKjANBgkqhkiG9w0BAQQFADB9MQswCQYDVQQGEwJNWTEN
MAsGA1UECBMETUFIQTENMAsGA1UEBxMEUFVORTENMAsGA1UEChMEUFNQTDERMA8G
A1UECxMIT0JMSVgtUUExDzANBgNVBAMTBnBzMjQzNjEdMBsGCSqGSIb3DQEJARYO
c2FnYXJAcHNwbC5jb20wHhcNMDgxMjIyMTE0MDM0WhcNMDkxMjIyMTE0MDM0WjB0
MQswCQYDVQQGEwJJTjEUMBIGA1UECBMLTWFoYXJhc2h0cmExDTALBgNVBAcTBFB1
bmUxDDAKBgNVBAoTA1BTTDEOMAwGA1UECxMFT2JsaXgxIjAgBgNVBAMTGXBhaGFs
Z2FtLnBlcnNpc3RlbnQuY28uaW4wgZ8wDQYJKoZIhvcNAQEBBQADgY0AMIGJAoGB
AL0l5yie1v4f/sD8zdkKxWSYFuEoreb2uPcIzZ/VxabCi8vEW93CjTq9YsJhwYED
GmcTvqzw88GSyJtgBnbX/rM/TD7W4Av0yL+z0QShtah3WFTPGD5aDQm0OOErI3qU
O8l5oBNbYhKohyj2NBkzxgF8xXrXQkTLNPZCLQg7cIp9AgMBAAGjZzBlMB8GA1Ud
IwQYMBaAFNv4ahUKglMfwuvM0G6DclfkRfJ0MDQGA1UdJQQtMCsGCCsGAQUFBwMB
BggrBgEFBQcDAgYKKwYBBAGCNwoDAwYJYIZIAYb4QgQBMAwGA1UdEwEB/wQCMAAw
DQYJKoZIhvcNAQEEBQADgYEAjPjT59ZgsC7e3rqZDC5DFoF6KXE7nN7BYpdp8WII
CffUm19RzFphuqOqISBxChdJRv1iGnS+1t4i3jftzed/mHYPe87YgWRsZz4kyjFE
OnMj5IM+5soa6vVqeVohjS30L5hzU79/crAiCcAeYMJWOWnK2KJy/cfaluL0ZXkd
B1Y=
-----END CERTIFICATE-----
