Certificate:
    Data:
        Version: 3 (0x2)
        Serial Number: 44 (0x2c)
        Signature Algorithm: md5WithRSAEncryption
        Issuer: C=MY, ST=MAHA, L=PUNE, O=PSPL, OU=OBLIX-QA, CN=ps2436/emailAddress=sagar@pspl.com
        Validity
            Not Before: Dec 22 12:22:23 2008 GMT
            Not After : Dec 22 12:22:23 2009 GMT
        Subject: C=IN, ST=Mah, L=pune, O=psl, OU=oblixqa, CN=pahalgam.persistent.co.in
        Subject Public Key Info:
            Public Key Algorithm: rsaEncryption
            RSA Public Key: (1024 bit)
                Modulus (1024 bit):
                    00:a0:1f:36:0c:89:6f:78:37:70:86:df:25:ff:4d:
                    bb:aa:c0:26:e5:79:71:d5:42:c4:67:30:d1:94:77:
                    e4:a5:8d:2c:26:c1:13:9f:e1:44:25:7d:81:ad:d2:
                    68:2f:d0:3c:e8:e6:52:02:c2:63:54:fa:61:1a:4e:
                    81:ee:21:c7:c7:ff:fb:bd:2f:2c:91:87:27:9b:3f:
                    a0:14:1f:df:21:fe:63:55:fa:7a:23:f5:bb:f8:f6:
                    33:44:99:1b:c5:80:89:61:e4:bc:35:72:62:1e:81:
                    3b:f9:b2:e0:69:31:c1:3d:8b:13:9a:01:fc:fa:19:
                    48:5e:73:ed:3a:fd:fc:a3:c9
                Exponent: 65537 (0x10001)
        X509v3 extensions:
            X509v3 Authority Key Identifier: 
            keyid:DB:F8:6A:15:0A:82:53:1F:C2:EB:CC:D0:6E:83:72:57:E4:45:F2:74

            X509v3 Extended Key Usage: 
            TLS Web Server Authentication, TLS Web Client Authentication, Microsoft Server Gated Crypto, Netscape Server Gated Crypto
            X509v3 Basic Constraints: critical
            CA:FALSE
    Signature Algorithm: md5WithRSAEncryption
        2b:5a:44:fb:c7:86:db:32:16:fc:47:82:ad:cd:77:93:3a:dd:
        4b:36:d8:c6:92:0a:ef:7f:58:95:cc:bc:33:c9:be:88:51:09:
        39:96:8b:44:e8:85:b2:ec:1b:69:e5:07:4c:b3:e0:92:4b:b4:
        9a:6a:0b:41:83:67:37:a5:77:bb:53:7a:b8:69:20:49:75:2f:
        cb:1f:28:73:66:b8:21:3d:35:03:7f:48:6c:f9:f7:d3:93:05:
        66:ea:e3:ed:53:1c:9d:46:be:0b:f6:cc:ff:92:82:d1:23:c6:
        c2:16:b2:90:87:43:6d:88:c7:59:06:d3:96:e9:5c:83:e0:aa:
        8e:50
-----BEGIN CERTIFICATE-----
MIICyDCCAjGgAwIBAgIBLDANBgkqhkiG9w0BAQQFADB9MQswCQYDVQQGEwJNWTEN
MAsGA1UECBMETUFIQTENMAsGA1UEBxMEUFVORTENMAsGA1UEChMEUFNQTDERMA8G
A1UECxMIT0JMSVgtUUExDzANBgNVBAMTBnBzMjQzNjEdMBsGCSqGSIb3DQEJARYO
c2FnYXJAcHNwbC5jb20wHhcNMDgxMjIyMTIyMjIzWhcNMDkxMjIyMTIyMjIzWjBu
MQswCQYDVQQGEwJJTjEMMAoGA1UECBMDTWFoMQ0wCwYDVQQHEwRwdW5lMQwwCgYD
VQQKEwNwc2wxEDAOBgNVBAsTB29ibGl4cWExIjAgBgNVBAMTGXBhaGFsZ2FtLnBl
cnNpc3RlbnQuY28uaW4wgZ8wDQYJKoZIhvcNAQEBBQADgY0AMIGJAoGBAKAfNgyJ
b3g3cIbfJf9Nu6rAJuV5cdVCxGcw0ZR35KWNLCbBE5/hRCV9ga3SaC/QPOjmUgLC
Y1T6YRpOge4hx8f/+70vLJGHJ5s/oBQf3yH+Y1X6eiP1u/j2M0SZG8WAiWHkvDVy
Yh6BO/my4GkxwT2LE5oB/PoZSF5z7Tr9/KPJAgMBAAGjZzBlMB8GA1UdIwQYMBaA
FNv4ahUKglMfwuvM0G6DclfkRfJ0MDQGA1UdJQQtMCsGCCsGAQUFBwMBBggrBgEF
BQcDAgYKKwYBBAGCNwoDAwYJYIZIAYb4QgQBMAwGA1UdEwEB/wQCMAAwDQYJKoZI
hvcNAQEEBQADgYEAK1pE+8eG2zIW/EeCrc13kzrdSzbYxpIK739Ylcy8M8m+iFEJ
OZaLROiFsuwbaeUHTLPgkku0mmoLQYNnN6V3u1N6uGkgSXUvyx8oc2a4IT01A39I
bPn305MFZurj7VMcnUa+C/bM/5KC0SPGwhaykIdDbYjHWQbTlulcg+CqjlA=
-----END CERTIFICATE-----
