Certificate:
    Data:
        Version: 3 (0x2)
        Serial Number: 45 (0x2d)
        Signature Algorithm: md5WithRSAEncryption
        Issuer: C=MY, ST=MAHA, L=PUNE, O=PSPL, OU=OBLIX-QA, CN=ps2436/emailAddress=sagar@pspl.com
        Validity
            Not Before: Dec 22 12:55:55 2008 GMT
            Not After : Dec 22 12:55:55 2009 GMT
        Subject: C=IN, ST=mah, L=pune, O=psl, OU=oblixqa, CN=pahalgam.persistent.co.in
        Subject Public Key Info:
            Public Key Algorithm: rsaEncryption
            RSA Public Key: (1024 bit)
                Modulus (1024 bit):
                    00:b1:e6:bd:47:d3:6a:45:e2:25:1d:e1:5a:f5:44:
                    91:cc:e4:29:71:67:2c:f9:ed:c3:22:fc:4c:18:02:
                    4a:96:10:54:a9:f3:3c:51:e3:f2:d5:13:50:c8:79:
                    75:0b:5a:ea:eb:03:90:f0:48:2b:e7:b1:05:01:46:
                    f1:81:f2:5a:d8:c3:d2:3b:85:f2:31:b0:58:e8:ec:
                    18:69:3c:7a:45:86:17:86:0e:a3:c8:4a:7c:4d:af:
                    92:05:8f:8e:4f:73:0f:ac:08:0c:3d:68:74:84:a8:
                    58:26:8b:b3:f3:79:5e:32:c8:81:9d:5b:b5:c3:c9:
                    2d:43:69:44:6d:26:1c:e8:8f
                Exponent: 65537 (0x10001)
        X509v3 extensions:
            X509v3 Authority Key Identifier: 
            keyid:DB:F8:6A:15:0A:82:53:1F:C2:EB:CC:D0:6E:83:72:57:E4:45:F2:74

            X509v3 Extended Key Usage: 
            TLS Web Server Authentication, TLS Web Client Authentication, Microsoft Server Gated Crypto, Netscape Server Gated Crypto
            X509v3 Basic Constraints: critical
            CA:FALSE
    Signature Algorithm: md5WithRSAEncryption
        4a:30:0b:a8:4b:27:8b:3d:ea:0e:3a:53:0d:a7:a7:58:1c:cf:
        dc:79:99:bd:cf:54:bc:1e:4f:68:d3:2b:0e:18:8e:72:56:fb:
        74:aa:f6:21:03:db:ac:30:19:b0:1b:1b:61:76:6d:6f:23:45:
        27:21:ba:b1:ab:a9:4b:18:48:1d:2a:9f:b3:a9:b8:4b:d8:5b:
        f3:97:41:d5:af:0c:ad:f8:2d:4f:dd:b1:0c:f9:8e:cd:c9:22:
        8b:a4:b4:5c:31:f9:36:11:3f:e2:61:d4:67:e2:fb:70:27:e4:
        7d:8c:17:c7:e2:3e:51:57:48:be:59:d6:00:39:22:e4:53:ec:
        79:88
-----BEGIN CERTIFICATE-----
MIICyDCCAjGgAwIBAgIBLTANBgkqhkiG9w0BAQQFADB9MQswCQYDVQQGEwJNWTEN
MAsGA1UECBMETUFIQTENMAsGA1UEBxMEUFVORTENMAsGA1UEChMEUFNQTDERMA8G
A1UECxMIT0JMSVgtUUExDzANBgNVBAMTBnBzMjQzNjEdMBsGCSqGSIb3DQEJARYO
c2FnYXJAcHNwbC5jb20wHhcNMDgxMjIyMTI1NTU1WhcNMDkxMjIyMTI1NTU1WjBu
MQswCQYDVQQGEwJJTjEMMAoGA1UECBMDbWFoMQ0wCwYDVQQHEwRwdW5lMQwwCgYD
VQQKEwNwc2wxEDAOBgNVBAsTB29ibGl4cWExIjAgBgNVBAMTGXBhaGFsZ2FtLnBl
cnNpc3RlbnQuY28uaW4wgZ8wDQYJKoZIhvcNAQEBBQADgY0AMIGJAoGBALHmvUfT
akXiJR3hWvVEkczkKXFnLPntwyL8TBgCSpYQVKnzPFHj8tUTUMh5dQta6usDkPBI
K+exBQFG8YHyWtjD0juF8jGwWOjsGGk8ekWGF4YOo8hKfE2vkgWPjk9zD6wIDD1o
dISoWCaLs/N5XjLIgZ1btcPJLUNpRG0mHOiPAgMBAAGjZzBlMB8GA1UdIwQYMBaA
FNv4ahUKglMfwuvM0G6DclfkRfJ0MDQGA1UdJQQtMCsGCCsGAQUFBwMBBggrBgEF
BQcDAgYKKwYBBAGCNwoDAwYJYIZIAYb4QgQBMAwGA1UdEwEB/wQCMAAwDQYJKoZI
hvcNAQEEBQADgYEASjALqEsniz3qDjpTDaenWBzP3HmZvc9UvB5PaNMrDhiOclb7
dKr2IQPbrDAZsBsbYXZtbyNFJyG6saupSxhIHSqfs6m4S9hb85dB1a8MrfgtT92x
DPmOzckii6S0XDH5NhE/4mHUZ+L7cCfkfYwXx+I+UVdIvlnWADki5FPseYg=
-----END CERTIFICATE-----
