Certificate:
    Data:
        Version: 3 (0x2)
        Serial Number: 46 (0x2e)
        Signature Algorithm: md5WithRSAEncryption
        Issuer: C=MY, ST=MAHA, L=PUNE, O=PSPL, OU=OBLIX-QA, CN=ps2436/emailAddress=sagar@pspl.com
        Validity
            Not Before: Dec 22 13:00:28 2008 GMT
            Not After : Dec 22 13:00:29 2009 GMT
        Subject: C=US, ST=Alabama, L=Poona, O=Persistent, OU=Oracle, CN=pahalgam.persistent.co.in
        Subject Public Key Info:
            Public Key Algorithm: rsaEncryption
            RSA Public Key: (1024 bit)
                Modulus (1024 bit):
                    00:c5:0f:e1:2b:63:8e:44:c2:b5:a3:86:68:d7:61:
                    80:34:d6:1a:c1:11:fb:82:3e:53:a5:68:e4:cc:06:
                    fb:5f:a4:cd:2a:4a:94:c7:44:cc:eb:bf:ff:f0:43:
                    ac:6f:b0:8e:76:af:65:0d:4e:7a:4d:1d:1f:1f:b5:
                    b0:d2:e6:c6:dd:c0:00:01:5c:d8:cc:f8:7f:4e:40:
                    f0:5d:97:b2:a3:92:b4:78:54:96:3b:e9:f9:d1:51:
                    df:4e:c7:26:3d:95:8d:95:ae:6c:5f:de:b5:b1:52:
                    b4:65:f9:84:a7:f0:a8:63:cf:b2:ec:01:4c:59:1c:
                    a4:87:db:cf:d4:f6:2f:6e:87
                Exponent: 65537 (0x10001)
        X509v3 extensions:
            X509v3 Authority Key Identifier: 
            keyid:DB:F8:6A:15:0A:82:53:1F:C2:EB:CC:D0:6E:83:72:57:E4:45:F2:74

            X509v3 Extended Key Usage: 
            TLS Web Server Authentication, TLS Web Client Authentication, Microsoft Server Gated Crypto, Netscape Server Gated Crypto
            X509v3 Basic Constraints: critical
            CA:FALSE
    Signature Algorithm: md5WithRSAEncryption
        b4:31:e1:14:08:d8:a3:07:35:76:ad:ed:b4:fb:dc:e4:45:ff:
        8c:37:11:75:20:d5:ba:e3:a0:07:a9:f9:af:2a:59:9a:65:03:
        47:85:66:ca:aa:23:f1:67:92:1a:a3:3c:0d:92:ef:1a:b9:c2:
        ae:c9:04:8d:29:58:32:98:a5:af:17:1c:28:ef:57:74:f9:21:
        b1:96:32:73:2d:00:01:98:8b:72:ec:b2:5b:12:64:ba:ba:f5:
        ed:76:f1:95:ec:31:81:c6:13:87:c3:3d:66:3f:74:d1:be:e4:
        8b:b9:b5:06:c5:c6:2f:0d:6c:d1:93:23:a3:80:c7:1b:ae:a0:
        6f:66
-----BEGIN CERTIFICATE-----
MIIC0zCCAjygAwIBAgIBLjANBgkqhkiG9w0BAQQFADB9MQswCQYDVQQGEwJNWTEN
MAsGA1UECBMETUFIQTENMAsGA1UEBxMEUFVORTENMAsGA1UEChMEUFNQTDERMA8G
A1UECxMIT0JMSVgtUUExDzANBgNVBAMTBnBzMjQzNjEdMBsGCSqGSIb3DQEJARYO
c2FnYXJAcHNwbC5jb20wHhcNMDgxMjIyMTMwMDI4WhcNMDkxMjIyMTMwMDI5WjB5
MQswCQYDVQQGEwJVUzEQMA4GA1UECBMHQWxhYmFtYTEOMAwGA1UEBxMFUG9vbmEx
EzARBgNVBAoTClBlcnNpc3RlbnQxDzANBgNVBAsTBk9yYWNsZTEiMCAGA1UEAxMZ
cGFoYWxnYW0ucGVyc2lzdGVudC5jby5pbjCBnzANBgkqhkiG9w0BAQEFAAOBjQAw
gYkCgYEAxQ/hK2OORMK1o4Zo12GANNYawRH7gj5TpWjkzAb7X6TNKkqUx0TM67//
8EOsb7COdq9lDU56TR0fH7Ww0ubG3cAAAVzYzPh/TkDwXZeyo5K0eFSWO+n50VHf
TscmPZWNla5sX961sVK0ZfmEp/CoY8+y7AFMWRykh9vP1PYvbocCAwEAAaNnMGUw
HwYDVR0jBBgwFoAU2/hqFQqCUx/C68zQboNyV+RF8nQwNAYDVR0lBC0wKwYIKwYB
BQUHAwEGCCsGAQUFBwMCBgorBgEEAYI3CgMDBglghkgBhvhCBAEwDAYDVR0TAQH/
BAIwADANBgkqhkiG9w0BAQQFAAOBgQC0MeEUCNijBzV2re20+9zkRf+MNxF1INW6
46AHqfmvKlmaZQNHhWbKqiPxZ5IaozwNku8aucKuyQSNKVgymKWvFxwo71d0+SGx
ljJzLQABmIty7LJbEmS6uvXtdvGV7DGBxhOHwz1mP3TRvuSLubUGxcYvDWzRkyOj
gMcbrqBvZg==
-----END CERTIFICATE-----
