Certificate:
    Data:
        Version: 3 (0x2)
        Serial Number: 48 (0x30)
        Signature Algorithm: md5WithRSAEncryption
        Issuer: C=MY, ST=MAHA, L=PUNE, O=PSPL, OU=OBLIX-QA, CN=ps2436/emailAddress=sagar@pspl.com
        Validity
            Not Before: Dec 24 10:13:53 2008 GMT
            Not After : Dec 24 10:13:53 2009 GMT
        Subject: CN=Rohit Valiveti/emailAddress=user1k1@Company.com
        Subject Public Key Info:
            Public Key Algorithm: rsaEncryption
            RSA Public Key: (1024 bit)
                Modulus (1024 bit):
                    00:e1:02:46:82:cd:15:d3:22:a7:2b:62:23:25:62:
                    c6:a5:c7:a5:cf:84:66:4e:86:da:c2:54:9e:b1:3e:
                    e1:77:1c:65:82:d6:e8:fe:ac:3b:65:f4:6d:56:06:
                    16:c9:f3:c4:0a:b2:57:aa:54:92:8c:09:b1:15:24:
                    ec:3b:a2:ab:8b:c5:cf:f7:96:27:d4:d1:1d:00:e5:
                    ee:94:b5:10:94:98:66:43:8c:f2:2b:0d:4d:24:fd:
                    90:c6:16:fc:f0:27:40:07:e7:a2:38:8c:d0:d3:ad:
                    24:cb:9a:30:04:18:88:0a:14:da:66:ea:45:5f:2e:
                    bf:5a:62:49:bb:5a:a7:97:c5
                Exponent: 65537 (0x10001)
        X509v3 extensions:
            X509v3 Subject Alternative Name: 
            email:user1k1@Company.com
            X509v3 Basic Constraints: critical
            CA:FALSE
            X509v3 Authority Key Identifier: 
            keyid:DB:F8:6A:15:0A:82:53:1F:C2:EB:CC:D0:6E:83:72:57:E4:45:F2:74

            X509v3 Extended Key Usage: 
            TLS Web Client Authentication, E-mail Protection
    Signature Algorithm: md5WithRSAEncryption
        64:04:4d:ba:1a:7a:39:68:ba:55:43:b2:c7:0d:9d:e1:33:ef:
        ec:87:da:e9:35:17:05:33:98:c9:98:15:97:2c:fb:6c:5e:3b:
        75:82:27:33:a7:5e:9b:36:07:55:bb:18:9f:1d:51:2a:69:d5:
        32:bd:f5:20:ca:73:f6:88:82:4d:15:01:ae:5e:e1:1b:3d:d5:
        c5:db:e8:4b:de:66:89:4f:d0:06:b3:01:dc:4b:3a:c8:e5:dc:
        8c:1c:bb:fc:44:3b:aa:45:6f:8c:60:45:f4:8f:d7:cd:29:45:
        2c:88:cb:3d:c3:8f:b7:1c:28:63:01:4f:52:31:5d:a3:74:d2:
        ea:4b
-----BEGIN CERTIFICATE-----
MIICoDCCAgmgAwIBAgIBMDANBgkqhkiG9w0BAQQFADB9MQswCQYDVQQGEwJNWTEN
MAsGA1UECBMETUFIQTENMAsGA1UEBxMEUFVORTENMAsGA1UEChMEUFNQTDERMA8G
A1UECxMIT0JMSVgtUUExDzANBgNVBAMTBnBzMjQzNjEdMBsGCSqGSIb3DQEJARYO
c2FnYXJAcHNwbC5jb20wHhcNMDgxMjI0MTAxMzUzWhcNMDkxMjI0MTAxMzUzWjA9
MRcwFQYDVQQDEw5Sb2hpdCBWYWxpdmV0aTEiMCAGCSqGSIb3DQEJARYTdXNlcjFr
MUBDb21wYW55LmNvbTCBnzANBgkqhkiG9w0BAQEFAAOBjQAwgYkCgYEA4QJGgs0V
0yKnK2IjJWLGpcelz4RmTobawlSesT7hdxxlgtbo/qw7ZfRtVgYWyfPECrJXqlSS
jAmxFSTsO6Kri8XP95Yn1NEdAOXulLUQlJhmQ4zyKw1NJP2Qxhb88CdAB+eiOIzQ
060ky5owBBiIChTaZupFXy6/WmJJu1qnl8UCAwEAAaNwMG4wHgYDVR0RBBcwFYET
dXNlcjFrMUBDb21wYW55LmNvbTAMBgNVHRMBAf8EAjAAMB8GA1UdIwQYMBaAFNv4
ahUKglMfwuvM0G6DclfkRfJ0MB0GA1UdJQQWMBQGCCsGAQUFBwMCBggrBgEFBQcD
BDANBgkqhkiG9w0BAQQFAAOBgQBkBE26Gno5aLpVQ7LHDZ3hM+/sh9rpNRcFM5jJ
mBWXLPtsXjt1giczp16bNgdVuxifHVEqadUyvfUgynP2iIJNFQGuXuEbPdXF2+hL
3maJT9AGswHcSzrI5dyMHLv8RDuqRW+MYEX0j9fNKUUsiMs9w4+3HChjAU9SMV2j
dNLqSw==
-----END CERTIFICATE-----
