Certificate:
    Data:
        Version: 3 (0x2)
        Serial Number: 49 (0x31)
        Signature Algorithm: md5WithRSAEncryption
        Issuer: C=MY, ST=MAHA, L=PUNE, O=PSPL, OU=OBLIX-QA, CN=ps2436/emailAddress=sagar@pspl.com
        Validity
            Not Before: Dec 25 06:14:37 2008 GMT
            Not After : Dec 25 06:14:37 2009 GMT
        Subject: C=In, ST=maah, L=pune, O=pspl, OU=oblix, CN=ps2436/emailAddress=sagar@psl.com
        Subject Public Key Info:
            Public Key Algorithm: rsaEncryption
            RSA Public Key: (1024 bit)
                Modulus (1024 bit):
                    00:c7:95:43:5c:12:e1:aa:03:8b:00:22:dc:0d:2c:
                    ea:bd:e0:85:43:3f:50:d7:73:ee:f6:63:1c:1f:05:
                    43:82:ca:f4:91:99:0f:44:9a:56:69:fe:7c:9d:18:
                    6c:c0:fe:73:5d:a6:e6:40:c8:93:f8:6b:19:33:a3:
                    8c:75:d0:b0:97:1b:67:75:ea:a4:99:8d:ee:63:4c:
                    24:b8:64:23:d1:d9:e3:19:5f:49:f1:c9:12:29:c3:
                    f7:5a:76:e3:38:f2:09:42:8c:1d:04:34:4b:c7:1e:
                    02:9b:52:3d:5a:8f:ce:6a:f3:74:d1:79:6b:b0:b8:
                    a1:f2:73:12:f3:b7:01:ae:7f
                Exponent: 65537 (0x10001)
        X509v3 extensions:
            X509v3 Authority Key Identifier: 
            keyid:DB:F8:6A:15:0A:82:53:1F:C2:EB:CC:D0:6E:83:72:57:E4:45:F2:74

            X509v3 Extended Key Usage: 
            TLS Web Server Authentication, TLS Web Client Authentication, Microsoft Server Gated Crypto, Netscape Server Gated Crypto
            X509v3 Basic Constraints: critical
            CA:FALSE
    Signature Algorithm: md5WithRSAEncryption
        3f:a8:1f:e0:b0:3d:44:eb:c2:1a:68:cc:9c:14:be:77:8b:b1:
        03:a4:9f:58:53:51:ee:c5:b9:ba:a6:63:27:fa:18:97:88:5e:
        42:cd:0b:b2:75:70:34:98:eb:72:ec:af:80:2a:dd:2f:ac:a8:
        1f:5f:9e:7c:ae:4a:e2:d2:d9:2b:b8:6c:91:b5:e5:bb:e9:7d:
        22:79:ab:53:b0:c0:63:c7:ec:55:89:24:bc:68:0b:95:c3:45:
        23:dd:66:6f:74:b1:a2:f3:0f:e8:4d:a1:a0:7f:db:29:f8:d1:
        64:ec:3e:e1:44:61:28:ad:c3:dc:33:10:1c:76:94:d9:01:29:
        93:c4
-----BEGIN CERTIFICATE-----
MIIC0zCCAjygAwIBAgIBMTANBgkqhkiG9w0BAQQFADB9MQswCQYDVQQGEwJNWTEN
MAsGA1UECBMETUFIQTENMAsGA1UEBxMEUFVORTENMAsGA1UEChMEUFNQTDERMA8G
A1UECxMIT0JMSVgtUUExDzANBgNVBAMTBnBzMjQzNjEdMBsGCSqGSIb3DQEJARYO
c2FnYXJAcHNwbC5jb20wHhcNMDgxMjI1MDYxNDM3WhcNMDkxMjI1MDYxNDM3WjB5
MQswCQYDVQQGEwJJbjENMAsGA1UECBMEbWFhaDENMAsGA1UEBxMEcHVuZTENMAsG
A1UEChMEcHNwbDEOMAwGA1UECxMFb2JsaXgxDzANBgNVBAMTBnBzMjQzNjEcMBoG
CSqGSIb3DQEJARYNc2FnYXJAcHNsLmNvbTCBnzANBgkqhkiG9w0BAQEFAAOBjQAw
gYkCgYEAx5VDXBLhqgOLACLcDSzqveCFQz9Q13Pu9mMcHwVDgsr0kZkPRJpWaf58
nRhswP5zXabmQMiT+GsZM6OMddCwlxtndeqkmY3uY0wkuGQj0dnjGV9J8ckSKcP3
WnbjOPIJQowdBDRLxx4Cm1I9Wo/OavN00XlrsLih8nMS87cBrn8CAwEAAaNnMGUw
HwYDVR0jBBgwFoAU2/hqFQqCUx/C68zQboNyV+RF8nQwNAYDVR0lBC0wKwYIKwYB
BQUHAwEGCCsGAQUFBwMCBgorBgEEAYI3CgMDBglghkgBhvhCBAEwDAYDVR0TAQH/
BAIwADANBgkqhkiG9w0BAQQFAAOBgQA/qB/gsD1E68IaaMycFL53i7EDpJ9YU1Hu
xbm6pmMn+hiXiF5CzQuydXA0mOty7K+AKt0vrKgfX558rkri0tkruGyRteW76X0i
eatTsMBjx+xViSS8aAuVw0Uj3WZvdLGi8w/oTaGgf9sp+NFk7D7hRGEorcPcMxAc
dpTZASmTxA==
-----END CERTIFICATE-----
