Certificate:
    Data:
        Version: 3 (0x2)
        Serial Number: 51 (0x33)
        Signature Algorithm: md5WithRSAEncryption
        Issuer: C=MY, ST=MAHA, L=PUNE, O=PSPL, OU=OBLIX-QA, CN=ps2436/emailAddress=sagar@pspl.com
        Validity
            Not Before: Dec 25 06:29:45 2008 GMT
            Not After : Dec 25 06:29:45 2009 GMT
        Subject: C=in, ST=maha, L=pune, O=pspl, OU=oblix, CN=ps6505
        Subject Public Key Info:
            Public Key Algorithm: rsaEncryption
            RSA Public Key: (1024 bit)
                Modulus (1024 bit):
                    00:b7:c1:d3:b8:a3:33:9c:81:5d:1f:8a:22:89:99:
                    17:ef:0a:ef:90:c3:77:5e:09:7a:1f:f4:22:93:51:
                    e4:01:4a:57:4e:a2:a4:d6:67:95:b1:fa:c5:88:e5:
                    34:6d:a2:23:0e:f0:41:c9:79:8f:18:26:be:2a:cc:
                    43:24:d0:0c:6b:fb:20:95:53:7b:22:f2:15:32:f6:
                    85:57:7d:ba:1d:22:ea:52:c3:4d:66:2d:6f:05:5c:
                    8e:1e:b3:7c:e1:29:a9:29:b0:58:13:de:fd:26:7b:
                    b8:c5:b2:0d:3f:21:b2:ed:28:f3:73:43:f1:37:6b:
                    17:ff:45:b7:54:2f:15:8e:a3
                Exponent: 65537 (0x10001)
        X509v3 extensions:
            X509v3 Authority Key Identifier: 
            keyid:DB:F8:6A:15:0A:82:53:1F:C2:EB:CC:D0:6E:83:72:57:E4:45:F2:74

            X509v3 Extended Key Usage: 
            TLS Web Server Authentication, TLS Web Client Authentication, Microsoft Server Gated Crypto, Netscape Server Gated Crypto
            X509v3 Basic Constraints: critical
            CA:FALSE
    Signature Algorithm: md5WithRSAEncryption
        74:49:b2:8b:1c:b0:09:9a:4b:c9:38:e8:9f:cc:96:41:dd:e8:
        87:1e:b3:b5:4c:23:4f:1e:82:c5:dd:99:94:65:d7:72:49:a7:
        b9:92:32:bf:0b:98:e8:0f:4a:db:04:58:e9:46:b8:b1:5c:ed:
        73:9f:66:cf:c6:ad:e1:bf:3d:34:2d:99:80:38:95:00:79:d0:
        77:88:65:56:5a:aa:13:b2:1d:23:70:c7:04:6b:1e:2a:1f:17:
        1c:4e:80:e4:1a:94:07:7e:7e:b0:38:20:90:cd:30:b2:b1:85:
        0c:08:4b:d7:a7:3c:4a:e9:75:03:b5:a2:f1:4c:09:ab:ea:a5:
        08:d7
-----BEGIN CERTIFICATE-----
MIICtTCCAh6gAwIBAgIBMzANBgkqhkiG9w0BAQQFADB9MQswCQYDVQQGEwJNWTEN
MAsGA1UECBMETUFIQTENMAsGA1UEBxMEUFVORTENMAsGA1UEChMEUFNQTDERMA8G
A1UECxMIT0JMSVgtUUExDzANBgNVBAMTBnBzMjQzNjEdMBsGCSqGSIb3DQEJARYO
c2FnYXJAcHNwbC5jb20wHhcNMDgxMjI1MDYyOTQ1WhcNMDkxMjI1MDYyOTQ1WjBb
MQswCQYDVQQGEwJpbjENMAsGA1UECBMEbWFoYTENMAsGA1UEBxMEcHVuZTENMAsG
A1UEChMEcHNwbDEOMAwGA1UECxMFb2JsaXgxDzANBgNVBAMTBnBzNjUwNTCBnzAN
BgkqhkiG9w0BAQEFAAOBjQAwgYkCgYEAt8HTuKMznIFdH4oiiZkX7wrvkMN3Xgl6
H/Qik1HkAUpXTqKk1meVsfrFiOU0baIjDvBByXmPGCa+KsxDJNAMa/sglVN7IvIV
MvaFV326HSLqUsNNZi1vBVyOHrN84SmpKbBYE979Jnu4xbINPyGy7Sjzc0PxN2sX
/0W3VC8VjqMCAwEAAaNnMGUwHwYDVR0jBBgwFoAU2/hqFQqCUx/C68zQboNyV+RF
8nQwNAYDVR0lBC0wKwYIKwYBBQUHAwEGCCsGAQUFBwMCBgorBgEEAYI3CgMDBglg
hkgBhvhCBAEwDAYDVR0TAQH/BAIwADANBgkqhkiG9w0BAQQFAAOBgQB0SbKLHLAJ
mkvJOOifzJZB3eiHHrO1TCNPHoLF3ZmUZddySae5kjK/C5joD0rbBFjpRrixXO1z
n2bPxq3hvz00LZmAOJUAedB3iGVWWqoTsh0jcMcEax4qHxccToDkGpQHfn6wOCCQ
zTCysYUMCEvXpzxK6XUDtaLxTAmr6qUI1w==
-----END CERTIFICATE-----
