Certificate:
    Data:
        Version: 3 (0x2)
        Serial Number: 53 (0x35)
        Signature Algorithm: md5WithRSAEncryption
        Issuer: C=MY, ST=MAHA, L=PUNE, O=PSPL, OU=OBLIX-QA, CN=ps2436/emailAddress=sagar@pspl.com
        Validity
            Not Before: Dec 25 08:42:29 2008 GMT
            Not After : Dec 25 08:42:29 2009 GMT
        Subject: C=IN, ST=MAH, L=PUNE, O=PSL, OU=OBLIX-QA, CN=spork7.us.oracle.com
        Subject Public Key Info:
            Public Key Algorithm: rsaEncryption
            RSA Public Key: (1024 bit)
                Modulus (1024 bit):
                    00:96:92:75:46:5c:8a:06:52:e7:e6:48:e4:62:2a:
                    b1:a4:61:86:78:fd:68:00:58:28:90:e5:51:5b:1d:
                    0d:db:b6:04:e3:78:db:0f:c7:20:26:01:ce:18:20:
                    c8:d7:ac:68:2c:a6:c8:55:49:46:26:58:a6:be:ba:
                    28:f9:5e:6c:44:1b:07:f9:31:d8:dd:03:a4:6a:c4:
                    19:dc:8a:65:05:67:d1:f9:81:dc:fc:f1:19:bc:85:
                    1c:b6:27:ec:52:c7:63:bf:37:2f:95:41:28:90:ad:
                    d5:01:7c:31:9e:93:0d:80:ba:c5:4c:24:b2:4a:24:
                    1b:aa:c7:7a:2d:28:6f:7b:d3
                Exponent: 65537 (0x10001)
        X509v3 extensions:
            X509v3 Authority Key Identifier: 
            keyid:DB:F8:6A:15:0A:82:53:1F:C2:EB:CC:D0:6E:83:72:57:E4:45:F2:74

            X509v3 Extended Key Usage: 
            TLS Web Server Authentication, TLS Web Client Authentication, Microsoft Server Gated Crypto, Netscape Server Gated Crypto
            X509v3 Basic Constraints: critical
            CA:FALSE
    Signature Algorithm: md5WithRSAEncryption
        0a:17:e8:91:af:34:5b:00:ec:e1:66:97:63:38:50:f6:b4:6d:
        03:8a:26:d0:10:94:4f:08:4c:b9:47:3f:76:45:bc:4a:35:ed:
        0d:51:5b:91:a5:cd:af:b6:e0:bd:2f:c3:35:03:01:b5:6f:6c:
        16:2f:5e:aa:56:e4:0d:7b:b3:ea:ef:c1:2d:82:1e:b7:4c:a6:
        10:6a:19:6a:c3:2d:96:5c:ea:8d:e5:57:4a:6a:e4:ed:13:9c:
        38:c0:ad:76:5b:79:39:a5:ad:d2:1f:38:ab:a3:8a:c0:6f:04:
        3a:8b:84:12:75:82:7b:fd:39:4b:4a:00:77:1e:8b:d6:70:82:
        08:0b
-----BEGIN CERTIFICATE-----
MIICxDCCAi2gAwIBAgIBNTANBgkqhkiG9w0BAQQFADB9MQswCQYDVQQGEwJNWTEN
MAsGA1UECBMETUFIQTENMAsGA1UEBxMEUFVORTENMAsGA1UEChMEUFNQTDERMA8G
A1UECxMIT0JMSVgtUUExDzANBgNVBAMTBnBzMjQzNjEdMBsGCSqGSIb3DQEJARYO
c2FnYXJAcHNwbC5jb20wHhcNMDgxMjI1MDg0MjI5WhcNMDkxMjI1MDg0MjI5WjBq
MQswCQYDVQQGEwJJTjEMMAoGA1UECBMDTUFIMQ0wCwYDVQQHEwRQVU5FMQwwCgYD
VQQKEwNQU0wxETAPBgNVBAsTCE9CTElYLVFBMR0wGwYDVQQDExRzcG9yazcudXMu
b3JhY2xlLmNvbTCBnzANBgkqhkiG9w0BAQEFAAOBjQAwgYkCgYEAlpJ1RlyKBlLn
5kjkYiqxpGGGeP1oAFgokOVRWx0N27YE43jbD8cgJgHOGCDI16xoLKbIVUlGJlim
vroo+V5sRBsH+THY3QOkasQZ3IplBWfR+YHc/PEZvIUctifsUsdjvzcvlUEokK3V
AXwxnpMNgLrFTCSySiQbqsd6LShve9MCAwEAAaNnMGUwHwYDVR0jBBgwFoAU2/hq
FQqCUx/C68zQboNyV+RF8nQwNAYDVR0lBC0wKwYIKwYBBQUHAwEGCCsGAQUFBwMC
BgorBgEEAYI3CgMDBglghkgBhvhCBAEwDAYDVR0TAQH/BAIwADANBgkqhkiG9w0B
AQQFAAOBgQAKF+iRrzRbAOzhZpdjOFD2tG0DiibQEJRPCEy5Rz92RbxKNe0NUVuR
pc2vtuC9L8M1AwG1b2wWL16qVuQNe7Pq78Etgh63TKYQahlqwy2WXOqN5VdKauTt
E5w4wK12W3k5pa3SHziro4rAbwQ6i4QSdYJ7/TlLSgB3HovWcIIICw==
-----END CERTIFICATE-----
