Certificate:
    Data:
        Version: 3 (0x2)
        Serial Number: 55 (0x37)
        Signature Algorithm: md5WithRSAEncryption
        Issuer: C=MY, ST=MAHA, L=PUNE, O=PSPL, OU=OBLIX-QA, CN=ps2436/emailAddress=sagar@pspl.com
        Validity
            Not Before: Dec 26 09:41:25 2008 GMT
            Not After : Dec 26 09:41:25 2009 GMT
        Subject: C=IN, ST=MAHARASHTRA, L=PUNE, O=PSL, OU=OBLIX, CN=v-ps5166-v2.persistent.co.in
        Subject Public Key Info:
            Public Key Algorithm: rsaEncryption
            RSA Public Key: (1024 bit)
                Modulus (1024 bit):
                    00:e7:64:54:65:b9:41:7f:7f:7d:46:44:36:fe:96:
                    6a:6a:8d:3a:59:ea:88:40:15:47:c5:f2:07:de:1b:
                    6e:be:2a:60:0a:ae:ee:38:3c:83:bc:de:ff:8d:d4:
                    68:30:59:bb:f9:8c:e9:30:5e:5c:ee:e9:89:64:b8:
                    9a:36:93:c1:b8:a9:23:c0:56:83:c1:77:6c:24:fc:
                    ba:02:88:81:ea:b7:ef:5b:26:28:f3:cb:e2:16:26:
                    c7:1c:10:77:ea:51:62:55:c9:fa:8e:ca:1d:8e:30:
                    7a:ec:0e:2e:1b:72:06:24:de:ef:18:41:76:b9:ed:
                    93:21:1a:df:4f:cd:ff:c5:a1
                Exponent: 65537 (0x10001)
        X509v3 extensions:
            X509v3 Authority Key Identifier: 
            keyid:DB:F8:6A:15:0A:82:53:1F:C2:EB:CC:D0:6E:83:72:57:E4:45:F2:74

            X509v3 Extended Key Usage: 
            TLS Web Server Authentication, TLS Web Client Authentication, Microsoft Server Gated Crypto, Netscape Server Gated Crypto
            X509v3 Basic Constraints: critical
            CA:FALSE
    Signature Algorithm: md5WithRSAEncryption
        b2:1d:98:93:f4:e1:d6:42:18:ea:f3:75:c2:e5:f3:50:e5:fb:
        ae:3e:7b:57:0a:15:84:83:97:ef:eb:3d:3a:a4:86:a5:60:57:
        99:a2:92:4a:8e:36:62:72:7a:c0:30:33:76:db:24:a2:19:d9:
        8b:c2:b8:19:12:29:73:5a:8f:be:e5:f3:71:bf:95:f2:30:7f:
        57:30:a3:87:4b:a2:33:92:b4:52:11:49:0e:12:3b:8a:a2:6e:
        3d:e7:33:d0:84:7a:6f:e8:a0:8e:ca:b7:10:7e:3e:17:72:9f:
        e8:48:b5:09:8d:79:35:22:d0:09:6b:24:c4:e2:35:00:09:f8:
        95:e7
-----BEGIN CERTIFICATE-----
MIIC0TCCAjqgAwIBAgIBNzANBgkqhkiG9w0BAQQFADB9MQswCQYDVQQGEwJNWTEN
MAsGA1UECBMETUFIQTENMAsGA1UEBxMEUFVORTENMAsGA1UEChMEUFNQTDERMA8G
A1UECxMIT0JMSVgtUUExDzANBgNVBAMTBnBzMjQzNjEdMBsGCSqGSIb3DQEJARYO
c2FnYXJAcHNwbC5jb20wHhcNMDgxMjI2MDk0MTI1WhcNMDkxMjI2MDk0MTI1WjB3
MQswCQYDVQQGEwJJTjEUMBIGA1UECBMLTUFIQVJBU0hUUkExDTALBgNVBAcTBFBV
TkUxDDAKBgNVBAoTA1BTTDEOMAwGA1UECxMFT0JMSVgxJTAjBgNVBAMTHHYtcHM1
MTY2LXYyLnBlcnNpc3RlbnQuY28uaW4wgZ8wDQYJKoZIhvcNAQEBBQADgY0AMIGJ
AoGBAOdkVGW5QX9/fUZENv6WamqNOlnqiEAVR8XyB94bbr4qYAqu7jg8g7ze/43U
aDBZu/mM6TBeXO7piWS4mjaTwbipI8BWg8F3bCT8ugKIgeq371smKPPL4hYmxxwQ
d+pRYlXJ+o7KHY4weuwOLhtyBiTe7xhBdrntkyEa30/N/8WhAgMBAAGjZzBlMB8G
A1UdIwQYMBaAFNv4ahUKglMfwuvM0G6DclfkRfJ0MDQGA1UdJQQtMCsGCCsGAQUF
BwMBBggrBgEFBQcDAgYKKwYBBAGCNwoDAwYJYIZIAYb4QgQBMAwGA1UdEwEB/wQC
MAAwDQYJKoZIhvcNAQEEBQADgYEAsh2Yk/Th1kIY6vN1wuXzUOX7rj57VwoVhIOX
7+s9OqSGpWBXmaKSSo42YnJ6wDAzdtskohnZi8K4GRIpc1qPvuXzcb+V8jB/VzCj
h0uiM5K0UhFJDhI7iqJuPecz0IR6b+igjsq3EH4+F3Kf6Ei1CY15NSLQCWskxOI1
AAn4lec=
-----END CERTIFICATE-----
