Certificate:
    Data:
        Version: 3 (0x2)
        Serial Number: 58 (0x3a)
        Signature Algorithm: md5WithRSAEncryption
        Issuer: C=MY, ST=MAHA, L=PUNE, O=PSPL, OU=OBLIX-QA, CN=ps2436/emailAddress=sagar@pspl.com
        Validity
            Not Before: Dec 26 14:56:17 2008 GMT
            Not After : Dec 26 14:56:17 2009 GMT
        Subject: C=IN, ST=Maharashtra, L=Pune, O=PSL, OU=Oblix, CN=v-ps5166-v2.persistent.co.in
        Subject Public Key Info:
            Public Key Algorithm: rsaEncryption
            RSA Public Key: (1024 bit)
                Modulus (1024 bit):
                    00:cb:89:10:4b:46:d8:91:42:23:86:d8:6f:81:a0:
                    fa:9d:5c:2a:9b:7c:d0:b9:f2:12:c1:f0:74:e4:c0:
                    5f:f4:c7:c4:ab:8c:8f:fd:35:a3:bf:02:1b:64:a9:
                    b4:5c:c0:41:b6:9b:0d:92:0b:5c:e2:9a:1e:66:fe:
                    16:1c:9b:d0:92:9d:52:39:95:6b:f2:0c:32:be:78:
                    b1:0f:67:a9:55:c2:40:ec:e6:78:89:45:05:18:c6:
                    5d:40:5c:26:36:f8:f1:d0:79:da:e6:db:eb:46:1f:
                    fc:e5:e9:61:aa:c4:53:9c:ca:26:66:e8:a1:f7:67:
                    08:2a:7b:b6:7f:bc:0b:e1:17
                Exponent: 65537 (0x10001)
        X509v3 extensions:
            X509v3 Authority Key Identifier: 
            keyid:DB:F8:6A:15:0A:82:53:1F:C2:EB:CC:D0:6E:83:72:57:E4:45:F2:74

            X509v3 Extended Key Usage: 
            TLS Web Server Authentication, TLS Web Client Authentication, Microsoft Server Gated Crypto, Netscape Server Gated Crypto
            X509v3 Basic Constraints: critical
            CA:FALSE
    Signature Algorithm: md5WithRSAEncryption
        56:e6:e1:36:47:53:98:e8:35:86:14:2b:ab:59:1e:e6:0e:9f:
        09:24:f1:21:a9:84:ce:69:61:57:e0:ca:12:a9:ba:16:72:74:
        e0:ed:75:37:22:4c:a9:24:c7:60:5e:88:b2:a1:bd:63:b0:51:
        8d:14:69:db:0a:07:ac:67:54:6c:05:89:0c:2b:a5:30:04:e7:
        06:b9:ad:3e:80:65:a0:3f:6c:81:e1:16:0f:a5:ef:97:bc:5d:
        fa:84:e4:ae:8b:88:53:01:ea:49:e0:92:31:97:01:f3:0c:63:
        de:4b:a2:f2:3b:57:e2:3e:e8:c2:3c:b3:2c:85:a8:0b:ef:f2:
        09:65
-----BEGIN CERTIFICATE-----
MIIC0TCCAjqgAwIBAgIBOjANBgkqhkiG9w0BAQQFADB9MQswCQYDVQQGEwJNWTEN
MAsGA1UECBMETUFIQTENMAsGA1UEBxMEUFVORTENMAsGA1UEChMEUFNQTDERMA8G
A1UECxMIT0JMSVgtUUExDzANBgNVBAMTBnBzMjQzNjEdMBsGCSqGSIb3DQEJARYO
c2FnYXJAcHNwbC5jb20wHhcNMDgxMjI2MTQ1NjE3WhcNMDkxMjI2MTQ1NjE3WjB3
MQswCQYDVQQGEwJJTjEUMBIGA1UECBMLTWFoYXJhc2h0cmExDTALBgNVBAcTBFB1
bmUxDDAKBgNVBAoTA1BTTDEOMAwGA1UECxMFT2JsaXgxJTAjBgNVBAMTHHYtcHM1
MTY2LXYyLnBlcnNpc3RlbnQuY28uaW4wgZ8wDQYJKoZIhvcNAQEBBQADgY0AMIGJ
AoGBAMuJEEtG2JFCI4bYb4Gg+p1cKpt80LnyEsHwdOTAX/THxKuMj/01o78CG2Sp
tFzAQbabDZILXOKaHmb+Fhyb0JKdUjmVa/IMMr54sQ9nqVXCQOzmeIlFBRjGXUBc
Jjb48dB52ubb60Yf/OXpYarEU5zKJmboofdnCCp7tn+8C+EXAgMBAAGjZzBlMB8G
A1UdIwQYMBaAFNv4ahUKglMfwuvM0G6DclfkRfJ0MDQGA1UdJQQtMCsGCCsGAQUF
BwMBBggrBgEFBQcDAgYKKwYBBAGCNwoDAwYJYIZIAYb4QgQBMAwGA1UdEwEB/wQC
MAAwDQYJKoZIhvcNAQEEBQADgYEAVubhNkdTmOg1hhQrq1ke5g6fCSTxIamEzmlh
V+DKEqm6FnJ04O11NyJMqSTHYF6IsqG9Y7BRjRRp2woHrGdUbAWJDCulMATnBrmt
PoBloD9sgeEWD6Xvl7xd+oTkrouIUwHqSeCSMZcB8wxj3kui8jtX4j7owjyzLIWo
C+/yCWU=
-----END CERTIFICATE-----
