Certificate:
    Data:
        Version: 3 (0x2)
        Serial Number: 60 (0x3c)
        Signature Algorithm: md5WithRSAEncryption
        Issuer: C=MY, ST=MAHA, L=PUNE, O=PSPL, OU=OBLIX-QA, CN=ps2436/emailAddress=sagar@pspl.com
        Validity
            Not Before: Dec 30 08:48:39 2008 GMT
            Not After : Dec 30 08:48:39 2009 GMT
        Subject: C=US, ST=MH, L=PU, O=PSL, OU=Oblix, CN=ps2979
        Subject Public Key Info:
            Public Key Algorithm: rsaEncryption
            RSA Public Key: (1024 bit)
                Modulus (1024 bit):
                    00:99:d4:f1:43:8a:6a:b9:91:d8:d9:a9:6d:7f:79:
                    34:ed:e6:ca:cf:28:2f:78:bc:da:5b:6a:cb:aa:b7:
                    e4:e3:51:61:93:74:75:a5:30:bb:f4:39:3d:c1:e0:
                    60:7e:c9:b7:6c:d1:f1:c7:f3:f6:22:0a:4b:7b:9a:
                    e3:81:6c:b8:1d:8f:ea:a4:0d:d8:ce:e9:09:42:48:
                    86:bb:b6:7a:fe:8b:7a:1b:2b:f4:06:83:db:71:77:
                    7c:3a:ae:1d:08:69:20:bf:5c:84:8c:d4:69:9b:e1:
                    ea:9f:3a:e2:6b:7b:77:f0:53:e0:68:4d:41:1f:f0:
                    a3:36:28:98:82:6b:09:8e:6b
                Exponent: 65537 (0x10001)
        X509v3 extensions:
            X509v3 Authority Key Identifier: 
            keyid:DB:F8:6A:15:0A:82:53:1F:C2:EB:CC:D0:6E:83:72:57:E4:45:F2:74

            X509v3 Extended Key Usage: 
            TLS Web Server Authentication, TLS Web Client Authentication, Microsoft Server Gated Crypto, Netscape Server Gated Crypto
            X509v3 Basic Constraints: critical
            CA:FALSE
    Signature Algorithm: md5WithRSAEncryption
        35:22:9e:7e:c5:fd:64:27:4d:7a:29:6d:ac:1a:62:24:f4:c8:
        17:7a:ee:55:f1:0d:a8:86:e7:fc:a4:22:dd:c6:e1:28:a2:68:
        db:63:6d:26:21:86:d7:16:8b:c1:62:18:a1:ff:a4:44:75:93:
        52:17:e9:15:02:7f:4f:1b:cc:c9:4e:1b:f1:51:1c:71:89:4f:
        e3:d7:a3:a1:65:41:b1:54:47:60:96:90:d7:0b:82:89:ae:ca:
        67:d5:f3:6f:1f:e2:08:c9:2d:1f:a9:b7:c2:32:c7:f0:5e:28:
        5a:c3:cb:85:c1:c6:c7:e5:0e:e9:f1:93:6e:50:61:de:67:0c:
        b9:68
-----BEGIN CERTIFICATE-----
MIICsDCCAhmgAwIBAgIBPDANBgkqhkiG9w0BAQQFADB9MQswCQYDVQQGEwJNWTEN
MAsGA1UECBMETUFIQTENMAsGA1UEBxMEUFVORTENMAsGA1UEChMEUFNQTDERMA8G
A1UECxMIT0JMSVgtUUExDzANBgNVBAMTBnBzMjQzNjEdMBsGCSqGSIb3DQEJARYO
c2FnYXJAcHNwbC5jb20wHhcNMDgxMjMwMDg0ODM5WhcNMDkxMjMwMDg0ODM5WjBW
MQswCQYDVQQGEwJVUzELMAkGA1UECBMCTUgxCzAJBgNVBAcTAlBVMQwwCgYDVQQK
EwNQU0wxDjAMBgNVBAsTBU9ibGl4MQ8wDQYDVQQDEwZwczI5NzkwgZ8wDQYJKoZI
hvcNAQEBBQADgY0AMIGJAoGBAJnU8UOKarmR2NmpbX95NO3mys8oL3i82ltqy6q3
5ONRYZN0daUwu/Q5PcHgYH7Jt2zR8cfz9iIKS3ua44FsuB2P6qQN2M7pCUJIhru2
ev6Lehsr9AaD23F3fDquHQhpIL9chIzUaZvh6p864mt7d/BT4GhNQR/wozYomIJr
CY5rAgMBAAGjZzBlMB8GA1UdIwQYMBaAFNv4ahUKglMfwuvM0G6DclfkRfJ0MDQG
A1UdJQQtMCsGCCsGAQUFBwMBBggrBgEFBQcDAgYKKwYBBAGCNwoDAwYJYIZIAYb4
QgQBMAwGA1UdEwEB/wQCMAAwDQYJKoZIhvcNAQEEBQADgYEANSKefsX9ZCdNeilt
rBpiJPTIF3ruVfENqIbn/KQi3cbhKKJo22NtJiGG1xaLwWIYof+kRHWTUhfpFQJ/
TxvMyU4b8VEccYlP49ejoWVBsVRHYJaQ1wuCia7KZ9Xzbx/iCMktH6m3wjLH8F4o
WsPLhcHGx+UO6fGTblBh3mcMuWg=
-----END CERTIFICATE-----
