Certificate:
    Data:
        Version: 3 (0x2)
        Serial Number: 61 (0x3d)
        Signature Algorithm: md5WithRSAEncryption
        Issuer: C=MY, ST=MAHA, L=PUNE, O=PSPL, OU=OBLIX-QA, CN=ps2436/emailAddress=sagar@pspl.com
        Validity
            Not Before: Dec 31 08:14:57 2008 GMT
            Not After : Dec 31 08:14:57 2009 GMT
        Subject: C=US, ST=California, L=Redwood, O=oracle, OU=oblix, CN=godzilla
        Subject Public Key Info:
            Public Key Algorithm: rsaEncryption
            RSA Public Key: (1024 bit)
                Modulus (1024 bit):
                    00:b0:d6:04:c9:d5:1b:97:3d:75:a1:5d:34:aa:82:
                    55:42:97:c6:70:0f:01:21:88:2f:89:4d:08:e8:f6:
                    16:4c:76:b2:21:c3:dc:59:39:e8:cb:4d:dd:6e:3c:
                    c6:96:1e:1d:c4:2c:72:52:2d:1c:c1:69:5d:eb:aa:
                    55:cc:75:36:46:98:07:1a:fc:4d:74:2c:b7:96:02:
                    fb:e8:88:cd:82:45:2c:63:27:70:64:ea:b6:7a:d4:
                    9a:53:c7:25:f5:b6:92:b2:9b:74:ab:bb:95:9f:6d:
                    7a:bb:b0:a7:e8:ed:6d:6f:15:0c:2f:ac:c0:18:0a:
                    8e:c2:54:63:38:85:e9:7a:79
                Exponent: 65537 (0x10001)
        X509v3 extensions:
            X509v3 Authority Key Identifier: 
            keyid:DB:F8:6A:15:0A:82:53:1F:C2:EB:CC:D0:6E:83:72:57:E4:45:F2:74

            X509v3 Extended Key Usage: 
            TLS Web Server Authentication, TLS Web Client Authentication, Microsoft Server Gated Crypto, Netscape Server Gated Crypto
            X509v3 Basic Constraints: critical
            CA:FALSE
    Signature Algorithm: md5WithRSAEncryption
        14:60:2a:52:b2:fc:03:4b:6f:62:68:be:f0:ba:0d:46:83:d9:
        84:a5:76:94:e1:da:5e:f1:0b:38:b5:b2:f4:94:37:2f:fb:8f:
        09:3e:e7:38:85:cf:30:e3:0e:e8:51:76:d9:67:1d:c2:86:6f:
        8a:61:6b:3b:8d:2f:36:4a:df:48:f0:19:69:e6:f4:4d:02:39:
        62:c7:96:87:c8:d2:f7:69:b8:b4:d7:be:90:51:d6:2e:59:6f:
        89:f9:b7:af:1d:87:08:11:dc:5a:84:d6:c6:d8:8a:c2:46:f0:
        5d:7d:8f:49:7c:6b:ec:8b:09:32:40:24:39:d6:48:c3:dd:00:
        a3:76
-----BEGIN CERTIFICATE-----
MIICwjCCAiugAwIBAgIBPTANBgkqhkiG9w0BAQQFADB9MQswCQYDVQQGEwJNWTEN
MAsGA1UECBMETUFIQTENMAsGA1UEBxMEUFVORTENMAsGA1UEChMEUFNQTDERMA8G
A1UECxMIT0JMSVgtUUExDzANBgNVBAMTBnBzMjQzNjEdMBsGCSqGSIb3DQEJARYO
c2FnYXJAcHNwbC5jb20wHhcNMDgxMjMxMDgxNDU3WhcNMDkxMjMxMDgxNDU3WjBo
MQswCQYDVQQGEwJVUzETMBEGA1UECBMKQ2FsaWZvcm5pYTEQMA4GA1UEBxMHUmVk
d29vZDEPMA0GA1UEChMGb3JhY2xlMQ4wDAYDVQQLEwVvYmxpeDERMA8GA1UEAxMI
Z29kemlsbGEwgZ8wDQYJKoZIhvcNAQEBBQADgY0AMIGJAoGBALDWBMnVG5c9daFd
NKqCVUKXxnAPASGIL4lNCOj2Fkx2siHD3Fk56MtN3W48xpYeHcQsclItHMFpXeuq
Vcx1NkaYBxr8TXQst5YC++iIzYJFLGMncGTqtnrUmlPHJfW2krKbdKu7lZ9teruw
p+jtbW8VDC+swBgKjsJUYziF6Xp5AgMBAAGjZzBlMB8GA1UdIwQYMBaAFNv4ahUK
glMfwuvM0G6DclfkRfJ0MDQGA1UdJQQtMCsGCCsGAQUFBwMBBggrBgEFBQcDAgYK
KwYBBAGCNwoDAwYJYIZIAYb4QgQBMAwGA1UdEwEB/wQCMAAwDQYJKoZIhvcNAQEE
BQADgYEAFGAqUrL8A0tvYmi+8LoNRoPZhKV2lOHaXvELOLWy9JQ3L/uPCT7nOIXP
MOMO6FF22WcdwoZvimFrO40vNkrfSPAZaeb0TQI5YseWh8jS92m4tNe+kFHWLllv
ifm3rx2HCBHcWoTWxtiKwkbwXX2PSXxr7IsJMkAkOdZIw90Ao3Y=
-----END CERTIFICATE-----
