Certificate:
    Data:
        Version: 3 (0x2)
        Serial Number: 63 (0x3f)
        Signature Algorithm: md5WithRSAEncryption
        Issuer: C=MY, ST=MAHA, L=PUNE, O=PSPL, OU=OBLIX-QA, CN=ps2436/emailAddress=sagar@pspl.com
        Validity
            Not Before: Jan  1 08:07:34 2009 GMT
            Not After : Jan  1 08:07:34 2010 GMT
        Subject: C=IN, ST=maharashtra, L=poona, O=psl, OU=oblix, CN=v-ps5166-v2.persistent.co.in
        Subject Public Key Info:
            Public Key Algorithm: rsaEncryption
            RSA Public Key: (1024 bit)
                Modulus (1024 bit):
                    00:be:22:0f:f9:fe:cd:1d:74:33:3a:b3:49:5d:37:
                    b8:47:c7:59:ba:80:b8:22:e8:f9:bc:60:d6:6c:28:
                    a3:ef:eb:f6:cd:c8:7d:ab:90:cd:ac:21:ea:cd:d6:
                    aa:52:ab:5f:10:8a:5b:c7:25:d3:fb:64:3d:ff:de:
                    9d:c9:47:8c:ae:8e:e8:4f:55:12:d7:06:60:e1:c2:
                    2e:00:61:f1:78:1f:ac:5a:c4:a5:45:2a:c3:35:b4:
                    c0:1c:35:9e:e4:a4:b9:0a:61:c0:ba:ef:32:a3:2c:
                    80:3b:9e:db:9a:b5:1b:d6:8f:3b:1d:09:71:3e:59:
                    5c:45:cb:61:b3:16:79:a8:89
                Exponent: 65537 (0x10001)
        X509v3 extensions:
            X509v3 Authority Key Identifier: 
            keyid:DB:F8:6A:15:0A:82:53:1F:C2:EB:CC:D0:6E:83:72:57:E4:45:F2:74

            X509v3 Extended Key Usage: 
            TLS Web Server Authentication, TLS Web Client Authentication, Microsoft Server Gated Crypto, Netscape Server Gated Crypto
            X509v3 Basic Constraints: critical
            CA:FALSE
    Signature Algorithm: md5WithRSAEncryption
        69:13:01:72:eb:32:d2:ba:8d:8e:45:0f:a6:05:44:0e:e0:68:
        d7:f3:83:bd:27:e0:44:04:fa:7a:45:b2:8a:0c:5f:40:a2:a6:
        e3:db:76:23:f5:1b:ad:0a:f9:ec:c7:46:67:e9:cc:eb:34:d8:
        43:b5:87:64:79:20:69:87:52:43:f6:4d:b0:ea:42:11:c5:1c:
        26:1d:2b:a8:c3:7f:7b:1d:96:af:b6:a3:27:40:9a:d7:64:af:
        7c:43:de:17:9b:77:3c:94:ef:43:80:4c:98:3a:38:d7:bf:29:
        c4:27:4a:db:73:ec:b6:78:ee:8a:bc:20:b4:ac:49:ae:db:88:
        7d:97
-----BEGIN CERTIFICATE-----
MIIC0jCCAjugAwIBAgIBPzANBgkqhkiG9w0BAQQFADB9MQswCQYDVQQGEwJNWTEN
MAsGA1UECBMETUFIQTENMAsGA1UEBxMEUFVORTENMAsGA1UEChMEUFNQTDERMA8G
A1UECxMIT0JMSVgtUUExDzANBgNVBAMTBnBzMjQzNjEdMBsGCSqGSIb3DQEJARYO
c2FnYXJAcHNwbC5jb20wHhcNMDkwMTAxMDgwNzM0WhcNMTAwMTAxMDgwNzM0WjB4
MQswCQYDVQQGEwJJTjEUMBIGA1UECBMLbWFoYXJhc2h0cmExDjAMBgNVBAcTBXBv
b25hMQwwCgYDVQQKEwNwc2wxDjAMBgNVBAsTBW9ibGl4MSUwIwYDVQQDExx2LXBz
NTE2Ni12Mi5wZXJzaXN0ZW50LmNvLmluMIGfMA0GCSqGSIb3DQEBAQUAA4GNADCB
iQKBgQC+Ig/5/s0ddDM6s0ldN7hHx1m6gLgi6Pm8YNZsKKPv6/bNyH2rkM2sIerN
1qpSq18QilvHJdP7ZD3/3p3JR4yujuhPVRLXBmDhwi4AYfF4H6xaxKVFKsM1tMAc
NZ7kpLkKYcC67zKjLIA7ntuatRvWjzsdCXE+WVxFy2GzFnmoiQIDAQABo2cwZTAf
BgNVHSMEGDAWgBTb+GoVCoJTH8LrzNBug3JX5EXydDA0BgNVHSUELTArBggrBgEF
BQcDAQYIKwYBBQUHAwIGCisGAQQBgjcKAwMGCWCGSAGG+EIEATAMBgNVHRMBAf8E
AjAAMA0GCSqGSIb3DQEBBAUAA4GBAGkTAXLrMtK6jY5FD6YFRA7gaNfzg70n4EQE
+npFsooMX0CipuPbdiP1G60K+ezHRmfpzOs02EO1h2R5IGmHUkP2TbDqQhHFHCYd
K6jDf3sdlq+2oydAmtdkr3xD3hebdzyU70OATJg6ONe/KcQnSttz7LZ47oq8ILSs
Sa7biH2X
-----END CERTIFICATE-----
