Certificate:
    Data:
        Version: 3 (0x2)
        Serial Number: 65 (0x41)
        Signature Algorithm: md5WithRSAEncryption
        Issuer: C=MY, ST=MAHA, L=PUNE, O=PSPL, OU=OBLIX-QA, CN=ps2436/emailAddress=sagar@pspl.com
        Validity
            Not Before: Jan  1 12:20:32 2009 GMT
            Not After : Jan  1 12:20:32 2010 GMT
        Subject: C=US, ST=California, L=Redwood, O=oracle, OU=oblix, CN=obsun3
        Subject Public Key Info:
            Public Key Algorithm: rsaEncryption
            RSA Public Key: (1024 bit)
                Modulus (1024 bit):
                    00:d2:74:57:3b:5d:30:eb:34:bc:13:b0:7e:bd:4a:
                    10:6e:db:aa:03:14:82:05:48:82:33:5a:47:09:17:
                    1c:ac:0f:96:04:ec:89:06:eb:e3:be:95:75:ed:10:
                    ad:61:d8:ae:16:6b:2e:f2:81:eb:f3:64:81:c8:37:
                    c2:6c:c5:05:49:86:cf:4b:84:62:86:87:5e:39:ca:
                    c5:29:b0:f1:c1:6d:41:78:57:66:ce:42:64:bc:e9:
                    09:30:f7:d8:4a:03:cb:4e:97:cb:9c:7f:aa:51:b3:
                    e0:dc:f4:93:08:8d:bd:38:0d:89:7d:af:da:71:57:
                    b7:fc:f9:dd:50:b1:49:4b:f3
                Exponent: 65537 (0x10001)
        X509v3 extensions:
            X509v3 Authority Key Identifier: 
            keyid:DB:F8:6A:15:0A:82:53:1F:C2:EB:CC:D0:6E:83:72:57:E4:45:F2:74

            X509v3 Extended Key Usage: 
            TLS Web Server Authentication, TLS Web Client Authentication, Microsoft Server Gated Crypto, Netscape Server Gated Crypto
            X509v3 Basic Constraints: critical
            CA:FALSE
    Signature Algorithm: md5WithRSAEncryption
        3b:ec:50:ab:29:05:7c:c0:ee:22:41:20:a0:22:0a:96:47:ea:
        52:72:ea:a4:68:db:80:7e:92:bf:1b:98:52:4d:d0:7a:fa:24:
        23:e7:b4:9c:1f:4c:28:8a:f7:32:03:3b:5a:02:18:99:a7:41:
        aa:20:c5:0e:b9:ec:4b:a6:d4:d7:f0:12:b9:a8:0d:a8:96:9e:
        79:25:cb:61:fa:2a:e1:ad:a1:2d:d1:f0:d5:78:8b:4e:74:cb:
        73:9b:8a:e0:85:69:76:26:ae:68:f3:d3:6c:a8:47:50:fd:44:
        06:1f:6b:c9:b2:0a:5b:26:17:17:74:26:d5:5b:83:92:9f:0d:
        cc:8c
-----BEGIN CERTIFICATE-----
MIICwDCCAimgAwIBAgIBQTANBgkqhkiG9w0BAQQFADB9MQswCQYDVQQGEwJNWTEN
MAsGA1UECBMETUFIQTENMAsGA1UEBxMEUFVORTENMAsGA1UEChMEUFNQTDERMA8G
A1UECxMIT0JMSVgtUUExDzANBgNVBAMTBnBzMjQzNjEdMBsGCSqGSIb3DQEJARYO
c2FnYXJAcHNwbC5jb20wHhcNMDkwMTAxMTIyMDMyWhcNMTAwMTAxMTIyMDMyWjBm
MQswCQYDVQQGEwJVUzETMBEGA1UECBMKQ2FsaWZvcm5pYTEQMA4GA1UEBxMHUmVk
d29vZDEPMA0GA1UEChMGb3JhY2xlMQ4wDAYDVQQLEwVvYmxpeDEPMA0GA1UEAxMG
b2JzdW4zMIGfMA0GCSqGSIb3DQEBAQUAA4GNADCBiQKBgQDSdFc7XTDrNLwTsH69
ShBu26oDFIIFSIIzWkcJFxysD5YE7IkG6+O+lXXtEK1h2K4Way7ygevzZIHIN8Js
xQVJhs9LhGKGh145ysUpsPHBbUF4V2bOQmS86Qkw99hKA8tOl8ucf6pRs+Dc9JMI
jb04DYl9r9pxV7f8+d1QsUlL8wIDAQABo2cwZTAfBgNVHSMEGDAWgBTb+GoVCoJT
H8LrzNBug3JX5EXydDA0BgNVHSUELTArBggrBgEFBQcDAQYIKwYBBQUHAwIGCisG
AQQBgjcKAwMGCWCGSAGG+EIEATAMBgNVHRMBAf8EAjAAMA0GCSqGSIb3DQEBBAUA
A4GBADvsUKspBXzA7iJBIKAiCpZH6lJy6qRo24B+kr8bmFJN0Hr6JCPntJwfTCiK
9zIDO1oCGJmnQaogxQ657Eum1NfwErmoDaiWnnkly2H6KuGtoS3R8NV4i050y3Ob
iuCFaXYmrmjz02yoR1D9RAYfa8myClsmFxd0JtVbg5KfDcyM
-----END CERTIFICATE-----
