Certificate:
    Data:
        Version: 3 (0x2)
        Serial Number: 66 (0x42)
        Signature Algorithm: md5WithRSAEncryption
        Issuer: C=MY, ST=MAHA, L=PUNE, O=PSPL, OU=OBLIX-QA, CN=ps2436/emailAddress=sagar@pspl.com
        Validity
            Not Before: Jan  2 08:05:58 2009 GMT
            Not After : Jan  2 08:05:58 2010 GMT
        Subject: CN= Van Oman /emailAddress= user1k7@Company.com
        Subject Public Key Info:
            Public Key Algorithm: rsaEncryption
            RSA Public Key: (1024 bit)
                Modulus (1024 bit):
                    00:ce:4e:ba:2e:f1:e5:f5:a3:3e:e2:ad:17:1a:ea:
                    30:50:96:65:eb:9f:28:5a:1b:9b:df:0f:74:fe:97:
                    99:0d:79:60:4c:04:90:81:83:5b:1f:f4:f5:75:b6:
                    d7:d7:f2:ac:62:a3:1f:d6:92:d7:1d:23:0f:80:d7:
                    2e:d6:54:b6:20:24:4b:e9:df:a1:8e:a0:61:25:db:
                    f0:f3:83:fa:8d:28:35:5b:43:65:f9:4d:f9:88:22:
                    2c:59:f8:67:b4:cd:0e:ec:c3:ef:63:f1:47:69:8f:
                    73:b8:e1:fc:14:74:29:1e:a6:65:ac:55:bb:e3:94:
                    e7:f7:b2:35:fb:78:6b:f1:39
                Exponent: 65537 (0x10001)
        X509v3 extensions:
            X509v3 Subject Alternative Name: 
            email: user1k7@Company.com
            X509v3 Basic Constraints: critical
            CA:FALSE
            X509v3 Authority Key Identifier: 
            keyid:DB:F8:6A:15:0A:82:53:1F:C2:EB:CC:D0:6E:83:72:57:E4:45:F2:74

            X509v3 Extended Key Usage: 
            TLS Web Client Authentication, E-mail Protection
    Signature Algorithm: md5WithRSAEncryption
        b5:49:1f:b7:d3:d9:79:8b:ad:9f:72:d1:da:9a:b9:b7:11:54:
        d5:19:13:88:23:9b:2a:cb:84:29:2a:14:6b:e4:3d:42:3a:13:
        e5:29:de:86:c0:08:fd:b1:d4:2f:18:b9:10:cd:a2:b5:1e:78:
        c6:88:3a:d2:1c:01:ff:8c:b6:d9:37:9e:be:f8:f2:fc:6f:c5:
        73:35:1f:10:f5:e5:dc:1c:5e:18:ef:2d:54:e1:92:3f:94:ff:
        a2:b5:6b:5b:56:de:63:b0:75:64:3e:e9:39:ce:3a:11:0d:8a:
        92:7b:3f:5c:06:31:63:26:71:d9:4f:c2:62:11:04:ff:dc:3c:
        98:b5
-----BEGIN CERTIFICATE-----
MIICnjCCAgegAwIBAgIBQjANBgkqhkiG9w0BAQQFADB9MQswCQYDVQQGEwJNWTEN
MAsGA1UECBMETUFIQTENMAsGA1UEBxMEUFVORTENMAsGA1UEChMEUFNQTDERMA8G
A1UECxMIT0JMSVgtUUExDzANBgNVBAMTBnBzMjQzNjEdMBsGCSqGSIb3DQEJARYO
c2FnYXJAcHNwbC5jb20wHhcNMDkwMTAyMDgwNTU4WhcNMTAwMTAyMDgwNTU4WjA6
MRMwEQYDVQQDEwogVmFuIE9tYW4gMSMwIQYJKoZIhvcNAQkBFhQgdXNlcjFrN0BD
b21wYW55LmNvbTCBnzANBgkqhkiG9w0BAQEFAAOBjQAwgYkCgYEAzk66LvHl9aM+
4q0XGuowUJZl658oWhub3w90/peZDXlgTASQgYNbH/T1dbbX1/KsYqMf1pLXHSMP
gNcu1lS2ICRL6d+hjqBhJdvw84P6jSg1W0Nl+U35iCIsWfhntM0O7MPvY/FHaY9z
uOH8FHQpHqZlrFW745Tn97I1+3hr8TkCAwEAAaNxMG8wHwYDVR0RBBgwFoEUIHVz
ZXIxazdAQ29tcGFueS5jb20wDAYDVR0TAQH/BAIwADAfBgNVHSMEGDAWgBTb+GoV
CoJTH8LrzNBug3JX5EXydDAdBgNVHSUEFjAUBggrBgEFBQcDAgYIKwYBBQUHAwQw
DQYJKoZIhvcNAQEEBQADgYEAtUkft9PZeYutn3LR2pq5txFU1RkTiCObKsuEKSoU
a+Q9QjoT5SnehsAI/bHULxi5EM2itR54xog60hwB/4y22Teevvjy/G/FczUfEPXl
3BxeGO8tVOGSP5T/orVrW1beY7B1ZD7pOc46EQ2Kkns/XAYxYyZx2U/CYhEE/9w8
mLU=
-----END CERTIFICATE-----
