Certificate:
    Data:
        Version: 3 (0x2)
        Serial Number: 68 (0x44)
        Signature Algorithm: md5WithRSAEncryption
        Issuer: C=MY, ST=MAHA, L=PUNE, O=PSPL, OU=OBLIX-QA, CN=ps2436/emailAddress=sagar@pspl.com
        Validity
            Not Before: Jan  2 09:40:37 2009 GMT
            Not After : Jan  2 09:40:37 2010 GMT
        Subject: C=US, ST=MH, L=pu, O=PSPL, OU=Oblix, CN=kalindi
        Subject Public Key Info:
            Public Key Algorithm: rsaEncryption
            RSA Public Key: (512 bit)
                Modulus (512 bit):
                    00:ea:b4:17:b9:5a:e6:5d:f0:78:c2:0c:e5:6c:86:
                    4d:77:2c:fe:66:14:bc:b7:ac:26:a4:45:a8:8e:5f:
                    a6:74:41:35:a9:8c:b7:39:3a:99:f4:35:5d:a0:55:
                    fa:24:1a:98:62:5c:34:3a:09:60:10:63:4a:f6:d4:
                    c6:2b:d5:0c:69
                Exponent: 65537 (0x10001)
        X509v3 extensions:
            X509v3 Authority Key Identifier: 
            keyid:DB:F8:6A:15:0A:82:53:1F:C2:EB:CC:D0:6E:83:72:57:E4:45:F2:74

            X509v3 Extended Key Usage: 
            TLS Web Server Authentication, TLS Web Client Authentication, Microsoft Server Gated Crypto, Netscape Server Gated Crypto
            X509v3 Basic Constraints: critical
            CA:FALSE
    Signature Algorithm: md5WithRSAEncryption
        02:91:63:13:c0:d4:8f:af:e6:eb:c9:1f:93:14:de:9c:f7:8c:
        07:42:ec:62:fa:c9:2e:83:ca:53:eb:90:dd:7d:3e:25:7c:18:
        ae:d8:81:a5:08:55:d2:27:7b:eb:7d:f5:75:5d:68:db:c5:30:
        67:0f:55:aa:20:e6:80:5e:51:a3:cf:4e:9f:f8:04:9f:8b:d4:
        12:61:47:71:7b:d2:f7:7e:ef:c5:2b:e9:a1:09:b1:47:13:d9:
        30:63:0f:8f:f4:7a:84:b6:37:0e:95:c9:c6:db:06:c1:83:e9:
        f0:7a:45:c8:a0:12:bf:c1:b6:54:7a:ad:7f:17:fc:00:fa:76:
        81:de
-----BEGIN CERTIFICATE-----
MIICbjCCAdegAwIBAgIBRDANBgkqhkiG9w0BAQQFADB9MQswCQYDVQQGEwJNWTEN
MAsGA1UECBMETUFIQTENMAsGA1UEBxMEUFVORTENMAsGA1UEChMEUFNQTDERMA8G
A1UECxMIT0JMSVgtUUExDzANBgNVBAMTBnBzMjQzNjEdMBsGCSqGSIb3DQEJARYO
c2FnYXJAcHNwbC5jb20wHhcNMDkwMTAyMDk0MDM3WhcNMTAwMTAyMDk0MDM3WjBY
MQswCQYDVQQGEwJVUzELMAkGA1UECBMCTUgxCzAJBgNVBAcTAnB1MQ0wCwYDVQQK
EwRQU1BMMQ4wDAYDVQQLEwVPYmxpeDEQMA4GA1UEAxMHa2FsaW5kaTBcMA0GCSqG
SIb3DQEBAQUAA0sAMEgCQQDqtBe5WuZd8HjCDOVshk13LP5mFLy3rCakRaiOX6Z0
QTWpjLc5Opn0NV2gVfokGphiXDQ6CWAQY0r21MYr1QxpAgMBAAGjZzBlMB8GA1Ud
IwQYMBaAFNv4ahUKglMfwuvM0G6DclfkRfJ0MDQGA1UdJQQtMCsGCCsGAQUFBwMB
BggrBgEFBQcDAgYKKwYBBAGCNwoDAwYJYIZIAYb4QgQBMAwGA1UdEwEB/wQCMAAw
DQYJKoZIhvcNAQEEBQADgYEAApFjE8DUj6/m68kfkxTenPeMB0LsYvrJLoPKU+uQ
3X0+JXwYrtiBpQhV0id76331dV1o28UwZw9VqiDmgF5Ro89On/gEn4vUEmFHcXvS
937vxSvpoQmxRxPZMGMPj/R6hLY3DpXJxtsGwYPp8HpFyKASv8G2VHqtfxf8APp2
gd4=
-----END CERTIFICATE-----
