Certificate:
    Data:
        Version: 3 (0x2)
        Serial Number: 69 (0x45)
        Signature Algorithm: md5WithRSAEncryption
        Issuer: C=MY, ST=MAHA, L=PUNE, O=PSPL, OU=OBLIX-QA, CN=ps2436/emailAddress=sagar@pspl.com
        Validity
            Not Before: Jan  6 13:16:45 2009 GMT
            Not After : Jan  6 13:16:45 2010 GMT
        Subject: C=US, ST=maha, L=Pune, O=psl, OU=Oblix, CN=ps6505
        Subject Public Key Info:
            Public Key Algorithm: rsaEncryption
            RSA Public Key: (1024 bit)
                Modulus (1024 bit):
                    00:be:10:04:0f:e1:a6:aa:d2:6f:b8:15:88:94:e0:
                    92:9e:c2:87:c4:37:29:12:70:17:de:76:b4:0b:85:
                    fb:67:fa:93:0f:55:60:e1:05:da:3b:9b:cd:24:47:
                    84:9d:48:2b:a4:a4:95:3b:14:40:43:b9:fd:3f:2a:
                    2b:3e:72:35:06:35:3d:8a:cb:f3:b1:ca:23:a7:0a:
                    40:da:ba:06:cb:da:9e:67:63:50:cd:2a:d4:e1:e8:
                    7d:a1:ee:b9:e2:b4:e2:ea:e9:43:ff:46:12:5d:24:
                    39:76:2a:41:80:00:4d:f4:5e:d7:e9:df:38:90:48:
                    d0:9a:c9:30:64:81:f5:7e:49
                Exponent: 65537 (0x10001)
        X509v3 extensions:
            X509v3 Authority Key Identifier: 
            keyid:DB:F8:6A:15:0A:82:53:1F:C2:EB:CC:D0:6E:83:72:57:E4:45:F2:74

            X509v3 Extended Key Usage: 
            TLS Web Server Authentication, TLS Web Client Authentication, Microsoft Server Gated Crypto, Netscape Server Gated Crypto
            X509v3 Basic Constraints: critical
            CA:FALSE
    Signature Algorithm: md5WithRSAEncryption
        81:3f:ca:97:eb:c4:ff:de:5b:33:a7:17:9c:61:c8:86:70:39:
        3e:bf:2c:69:49:a2:bd:87:c0:89:fa:04:e5:f3:b5:64:cc:6c:
        e6:60:2f:11:d6:d1:83:44:28:4e:af:f0:d0:f9:d9:04:38:2c:
        3f:74:aa:09:98:fb:64:50:64:52:3a:f1:3b:ca:d4:c1:61:7d:
        98:51:b8:4a:d0:ac:32:e1:2c:68:bd:b2:37:af:19:51:81:6e:
        32:fd:13:09:d7:dc:a3:6f:04:89:9d:2c:e0:a9:11:90:9d:bb:
        63:56:72:ef:09:cd:5b:8a:1a:17:ee:fc:99:64:bf:7c:60:9d:
        70:81
-----BEGIN CERTIFICATE-----
MIICtDCCAh2gAwIBAgIBRTANBgkqhkiG9w0BAQQFADB9MQswCQYDVQQGEwJNWTEN
MAsGA1UECBMETUFIQTENMAsGA1UEBxMEUFVORTENMAsGA1UEChMEUFNQTDERMA8G
A1UECxMIT0JMSVgtUUExDzANBgNVBAMTBnBzMjQzNjEdMBsGCSqGSIb3DQEJARYO
c2FnYXJAcHNwbC5jb20wHhcNMDkwMTA2MTMxNjQ1WhcNMTAwMTA2MTMxNjQ1WjBa
MQswCQYDVQQGEwJVUzENMAsGA1UECBMEbWFoYTENMAsGA1UEBxMEUHVuZTEMMAoG
A1UEChMDcHNsMQ4wDAYDVQQLEwVPYmxpeDEPMA0GA1UEAxMGcHM2NTA1MIGfMA0G
CSqGSIb3DQEBAQUAA4GNADCBiQKBgQC+EAQP4aaq0m+4FYiU4JKewofENykScBfe
drQLhftn+pMPVWDhBdo7m80kR4SdSCukpJU7FEBDuf0/Kis+cjUGNT2Ky/OxyiOn
CkDaugbL2p5nY1DNKtTh6H2h7rnitOLq6UP/RhJdJDl2KkGAAE30Xtfp3ziQSNCa
yTBkgfV+SQIDAQABo2cwZTAfBgNVHSMEGDAWgBTb+GoVCoJTH8LrzNBug3JX5EXy
dDA0BgNVHSUELTArBggrBgEFBQcDAQYIKwYBBQUHAwIGCisGAQQBgjcKAwMGCWCG
SAGG+EIEATAMBgNVHRMBAf8EAjAAMA0GCSqGSIb3DQEBBAUAA4GBAIE/ypfrxP/e
WzOnF5xhyIZwOT6/LGlJor2HwIn6BOXztWTMbOZgLxHW0YNEKE6v8ND52QQ4LD90
qgmY+2RQZFI68TvK1MFhfZhRuErQrDLhLGi9sjevGVGBbjL9EwnX3KNvBImdLOCp
EZCdu2NWcu8JzVuKGhfu/Jlkv3xgnXCB
-----END CERTIFICATE-----
