Certificate:
    Data:
        Version: 3 (0x2)
        Serial Number: 71 (0x47)
        Signature Algorithm: md5WithRSAEncryption
        Issuer: C=MY, ST=MAHA, L=PUNE, O=PSPL, OU=OBLIX-QA, CN=ps2436/emailAddress=sagar@pspl.com
        Validity
            Not Before: Jan  7 07:50:21 2009 GMT
            Not After : Jan  7 07:50:21 2010 GMT
        Subject: C=in, ST=maharashtra, L=pune, O=psl, OU=oblix, CN=ps2786
        Subject Public Key Info:
            Public Key Algorithm: rsaEncryption
            RSA Public Key: (1024 bit)
                Modulus (1024 bit):
                    00:a9:13:12:45:84:ba:3e:88:e1:5b:42:a8:19:a5:
                    9c:fe:05:59:22:d8:e1:2c:6e:4e:f1:a7:11:1e:72:
                    af:87:ac:0b:7f:28:b1:4c:c2:ca:07:a4:db:f0:8e:
                    15:5f:03:ce:a8:7a:45:14:e1:06:85:8f:3a:2b:d9:
                    99:61:fe:ef:9d:48:e8:02:67:00:4e:53:e2:46:b0:
                    c9:47:00:88:ae:35:49:5c:11:3d:a0:b6:88:83:32:
                    be:61:12:e1:8d:51:7e:9a:eb:eb:53:9a:af:b8:66:
                    d6:0e:01:3c:1c:49:29:50:db:de:3e:4b:74:8e:fe:
                    5c:3d:d2:9f:4a:8c:83:bb:ef
                Exponent: 65537 (0x10001)
        X509v3 extensions:
            X509v3 Authority Key Identifier: 
            keyid:DB:F8:6A:15:0A:82:53:1F:C2:EB:CC:D0:6E:83:72:57:E4:45:F2:74

            X509v3 Extended Key Usage: 
            TLS Web Server Authentication, TLS Web Client Authentication, Microsoft Server Gated Crypto, Netscape Server Gated Crypto
            X509v3 Basic Constraints: critical
            CA:FALSE
    Signature Algorithm: md5WithRSAEncryption
        5a:b9:6a:01:e8:ff:76:c3:07:4c:3a:bd:87:f6:dd:0e:55:99:
        72:6f:fc:fa:9c:d8:c5:a6:aa:93:ea:b3:04:34:0d:be:41:18:
        ae:9e:67:4a:0e:c8:f6:2f:75:2e:3c:2b:7f:57:7e:a2:8c:aa:
        27:5d:95:c2:eb:fe:3c:80:91:f2:bb:d3:6d:c1:c2:9c:f1:d1:
        3a:ba:53:47:4d:c6:9f:3b:07:28:ae:54:7b:e9:f8:3d:44:1f:
        48:9a:6a:27:69:91:32:82:a3:b0:f9:60:6d:02:5b:c9:77:86:
        c7:f0:c6:6c:fc:fb:5c:77:c9:7b:00:9c:ce:24:40:40:18:10:
        b9:d6
-----BEGIN CERTIFICATE-----
MIICuzCCAiSgAwIBAgIBRzANBgkqhkiG9w0BAQQFADB9MQswCQYDVQQGEwJNWTEN
MAsGA1UECBMETUFIQTENMAsGA1UEBxMEUFVORTENMAsGA1UEChMEUFNQTDERMA8G
A1UECxMIT0JMSVgtUUExDzANBgNVBAMTBnBzMjQzNjEdMBsGCSqGSIb3DQEJARYO
c2FnYXJAcHNwbC5jb20wHhcNMDkwMTA3MDc1MDIxWhcNMTAwMTA3MDc1MDIxWjBh
MQswCQYDVQQGEwJpbjEUMBIGA1UECBMLbWFoYXJhc2h0cmExDTALBgNVBAcTBHB1
bmUxDDAKBgNVBAoTA3BzbDEOMAwGA1UECxMFb2JsaXgxDzANBgNVBAMTBnBzMjc4
NjCBnzANBgkqhkiG9w0BAQEFAAOBjQAwgYkCgYEAqRMSRYS6PojhW0KoGaWc/gVZ
ItjhLG5O8acRHnKvh6wLfyixTMLKB6Tb8I4VXwPOqHpFFOEGhY86K9mZYf7vnUjo
AmcATlPiRrDJRwCIrjVJXBE9oLaIgzK+YRLhjVF+muvrU5qvuGbWDgE8HEkpUNve
Pkt0jv5cPdKfSoyDu+8CAwEAAaNnMGUwHwYDVR0jBBgwFoAU2/hqFQqCUx/C68zQ
boNyV+RF8nQwNAYDVR0lBC0wKwYIKwYBBQUHAwEGCCsGAQUFBwMCBgorBgEEAYI3
CgMDBglghkgBhvhCBAEwDAYDVR0TAQH/BAIwADANBgkqhkiG9w0BAQQFAAOBgQBa
uWoB6P92wwdMOr2H9t0OVZlyb/z6nNjFpqqT6rMENA2+QRiunmdKDsj2L3UuPCt/
V36ijKonXZXC6/48gJHyu9NtwcKc8dE6ulNHTcafOwcorlR76fg9RB9ImmonaZEy
gqOw+WBtAlvJd4bH8MZs/Ptcd8l7AJzOJEBAGBC51g==
-----END CERTIFICATE-----
