Certificate:
    Data:
        Version: 3 (0x2)
        Serial Number: 75 (0x4b)
        Signature Algorithm: md5WithRSAEncryption
        Issuer: C=MY, ST=MAHA, L=PUNE, O=PSPL, OU=OBLIX-QA, CN=ps2436/emailAddress=sagar@pspl.com
        Validity
            Not Before: Jan  9 11:24:14 2009 GMT
            Not After : Jan  9 11:24:14 2010 GMT
        Subject: C=in, ST=maha, L=pune123, O=pspl123, OU=oblix123, CN=ps6505
        Subject Public Key Info:
            Public Key Algorithm: rsaEncryption
            RSA Public Key: (1024 bit)
                Modulus (1024 bit):
                    00:d0:3b:62:cb:f0:28:ea:01:97:59:66:3d:d1:80:
                    97:5b:fa:65:b9:67:3b:e9:ac:8d:0d:8e:dc:2c:89:
                    17:89:83:ee:9a:b8:64:40:08:1e:af:23:51:f6:eb:
                    fb:74:91:e0:d6:86:72:9d:b8:9b:d6:b9:fa:b7:30:
                    44:99:0a:d9:18:62:2f:b3:e4:73:86:54:85:13:c2:
                    36:d9:8b:1d:8d:5a:f1:e6:b4:a2:4b:4e:ec:1e:94:
                    0a:6b:87:90:dd:2f:a1:8f:e4:dc:e1:cf:ba:cd:a7:
                    a8:47:49:14:b0:83:a8:63:c0:d0:e9:c8:e4:fd:bc:
                    46:40:17:15:00:14:3d:fe:75
                Exponent: 65537 (0x10001)
        X509v3 extensions:
            X509v3 Authority Key Identifier: 
            keyid:DB:F8:6A:15:0A:82:53:1F:C2:EB:CC:D0:6E:83:72:57:E4:45:F2:74

            X509v3 Extended Key Usage: 
            TLS Web Server Authentication, TLS Web Client Authentication, Microsoft Server Gated Crypto, Netscape Server Gated Crypto
            X509v3 Basic Constraints: critical
            CA:FALSE
    Signature Algorithm: md5WithRSAEncryption
        ad:a1:05:8c:91:3e:99:21:0b:55:5a:c4:de:bb:c4:3e:df:1f:
        e9:61:20:ec:7f:9b:a3:b2:4e:0b:86:ca:96:9d:f3:8d:e9:be:
        f5:d1:b6:94:ed:43:93:16:62:b2:9b:8b:ca:67:db:02:1d:c1:
        b9:f5:1f:a2:54:4b:5c:10:86:86:8a:09:4e:47:b3:f7:c3:2e:
        52:34:a9:5d:6b:ac:4a:9f:89:dc:32:e6:44:a9:be:6e:99:8b:
        1a:16:fe:79:bc:71:a6:71:3a:f9:b9:ea:19:e2:f5:a2:c5:28:
        52:80:22:e0:80:92:4a:84:79:2e:c6:e5:6b:67:34:f9:6d:b7:
        78:b8
-----BEGIN CERTIFICATE-----
MIICvjCCAiegAwIBAgIBSzANBgkqhkiG9w0BAQQFADB9MQswCQYDVQQGEwJNWTEN
MAsGA1UECBMETUFIQTENMAsGA1UEBxMEUFVORTENMAsGA1UEChMEUFNQTDERMA8G
A1UECxMIT0JMSVgtUUExDzANBgNVBAMTBnBzMjQzNjEdMBsGCSqGSIb3DQEJARYO
c2FnYXJAcHNwbC5jb20wHhcNMDkwMTA5MTEyNDE0WhcNMTAwMTA5MTEyNDE0WjBk
MQswCQYDVQQGEwJpbjENMAsGA1UECBMEbWFoYTEQMA4GA1UEBxMHcHVuZTEyMzEQ
MA4GA1UEChMHcHNwbDEyMzERMA8GA1UECxMIb2JsaXgxMjMxDzANBgNVBAMTBnBz
NjUwNTCBnzANBgkqhkiG9w0BAQEFAAOBjQAwgYkCgYEA0Dtiy/Ao6gGXWWY90YCX
W/pluWc76ayNDY7cLIkXiYPumrhkQAgeryNR9uv7dJHg1oZynbib1rn6tzBEmQrZ
GGIvs+RzhlSFE8I22YsdjVrx5rSiS07sHpQKa4eQ3S+hj+Tc4c+6zaeoR0kUsIOo
Y8DQ6cjk/bxGQBcVABQ9/nUCAwEAAaNnMGUwHwYDVR0jBBgwFoAU2/hqFQqCUx/C
68zQboNyV+RF8nQwNAYDVR0lBC0wKwYIKwYBBQUHAwEGCCsGAQUFBwMCBgorBgEE
AYI3CgMDBglghkgBhvhCBAEwDAYDVR0TAQH/BAIwADANBgkqhkiG9w0BAQQFAAOB
gQCtoQWMkT6ZIQtVWsTeu8Q+3x/pYSDsf5ujsk4LhsqWnfON6b710baU7UOTFmKy
m4vKZ9sCHcG59R+iVEtcEIaGiglOR7P3wy5SNKlda6xKn4ncMuZEqb5umYsaFv55
vHGmcTr5ueoZ4vWixShSgCLggJJKhHkuxuVrZzT5bbd4uA==
-----END CERTIFICATE-----
