Certificate:
    Data:
        Version: 3 (0x2)
        Serial Number: 77 (0x4d)
        Signature Algorithm: md5WithRSAEncryption
        Issuer: C=MY, ST=MAHA, L=PUNE, O=PSPL, OU=OBLIX-QA, CN=ps2436/emailAddress=sagar@pspl.com
        Validity
            Not Before: Jan 12 11:59:09 2009 GMT
            Not After : Jan 12 11:59:09 2010 GMT
        Subject: C=IN, ST=Maharashtra, L=Punee, O=PSL, OU=Oblixqa, CN=ps3848.persistent.co.in
        Subject Public Key Info:
            Public Key Algorithm: rsaEncryption
            RSA Public Key: (1024 bit)
                Modulus (1024 bit):
                    00:db:6a:6d:be:50:e1:93:66:6d:dd:09:59:2c:13:
                    78:b4:c8:3c:2a:6b:a7:d6:e5:ac:fe:99:b7:ae:58:
                    60:1a:e4:41:f0:41:17:93:ea:29:be:81:46:0c:e7:
                    c8:03:52:1f:49:57:5b:98:61:df:1e:b1:db:ce:de:
                    f4:ce:93:48:dd:1f:f1:03:f8:31:0a:20:84:85:aa:
                    ba:14:dc:3a:16:6a:bf:4a:2f:b6:46:81:4f:2c:66:
                    02:9c:11:80:d5:9c:c8:1f:38:d4:85:81:d4:d8:82:
                    a3:b8:43:04:46:f6:b3:fd:26:26:b6:1f:68:9d:f6:
                    5c:bc:1a:91:1a:47:30:f5:03
                Exponent: 65537 (0x10001)
        X509v3 extensions:
            X509v3 Authority Key Identifier: 
            keyid:DB:F8:6A:15:0A:82:53:1F:C2:EB:CC:D0:6E:83:72:57:E4:45:F2:74

            X509v3 Extended Key Usage: 
            TLS Web Server Authentication, TLS Web Client Authentication, Microsoft Server Gated Crypto, Netscape Server Gated Crypto
            X509v3 Basic Constraints: critical
            CA:FALSE
    Signature Algorithm: md5WithRSAEncryption
        04:d6:44:7d:bb:b0:81:52:d0:cf:9c:46:eb:74:11:57:44:25:
        6f:67:6c:c9:85:1a:c8:b2:98:39:a8:c1:81:bf:f1:8d:84:70:
        3f:06:99:fa:de:36:96:11:ff:76:fb:97:97:c4:bc:1f:6b:4d:
        1e:1d:69:9b:6d:96:b9:fc:dd:59:14:07:dc:57:d3:c4:22:bc:
        0c:8f:f7:aa:2e:d2:74:1d:04:d4:e4:9b:dd:97:3e:fd:f7:3a:
        67:36:46:4c:f6:e8:d7:78:18:6d:35:6e:bc:ad:9a:51:05:05:
        f3:a0:e1:67:5e:7b:04:b4:e5:ea:bb:7f:ed:07:59:6c:da:8a:
        a4:e6
-----BEGIN CERTIFICATE-----
MIICzzCCAjigAwIBAgIBTTANBgkqhkiG9w0BAQQFADB9MQswCQYDVQQGEwJNWTEN
MAsGA1UECBMETUFIQTENMAsGA1UEBxMEUFVORTENMAsGA1UEChMEUFNQTDERMA8G
A1UECxMIT0JMSVgtUUExDzANBgNVBAMTBnBzMjQzNjEdMBsGCSqGSIb3DQEJARYO
c2FnYXJAcHNwbC5jb20wHhcNMDkwMTEyMTE1OTA5WhcNMTAwMTEyMTE1OTA5WjB1
MQswCQYDVQQGEwJJTjEUMBIGA1UECBMLTWFoYXJhc2h0cmExDjAMBgNVBAcTBVB1
bmVlMQwwCgYDVQQKEwNQU0wxEDAOBgNVBAsTB09ibGl4cWExIDAeBgNVBAMTF3Bz
Mzg0OC5wZXJzaXN0ZW50LmNvLmluMIGfMA0GCSqGSIb3DQEBAQUAA4GNADCBiQKB
gQDbam2+UOGTZm3dCVksE3i0yDwqa6fW5az+mbeuWGAa5EHwQReT6im+gUYM58gD
Uh9JV1uYYd8esdvO3vTOk0jdH/ED+DEKIISFqroU3DoWar9KL7ZGgU8sZgKcEYDV
nMgfONSFgdTYgqO4QwRG9rP9Jia2H2id9ly8GpEaRzD1AwIDAQABo2cwZTAfBgNV
HSMEGDAWgBTb+GoVCoJTH8LrzNBug3JX5EXydDA0BgNVHSUELTArBggrBgEFBQcD
AQYIKwYBBQUHAwIGCisGAQQBgjcKAwMGCWCGSAGG+EIEATAMBgNVHRMBAf8EAjAA
MA0GCSqGSIb3DQEBBAUAA4GBAATWRH27sIFS0M+cRut0EVdEJW9nbMmFGsiymDmo
wYG/8Y2EcD8GmfreNpYR/3b7l5fEvB9rTR4daZttlrn83VkUB9xX08QivAyP96ou
0nQdBNTkm92XPv33Omc2Rkz26Nd4GG01brytmlEFBfOg4WdeewS05eq7f+0HWWza
iqTm
-----END CERTIFICATE-----
