Certificate:
    Data:
        Version: 3 (0x2)
        Serial Number: 80 (0x50)
        Signature Algorithm: md5WithRSAEncryption
        Issuer: C=MY, ST=MAHA, L=PUNE, O=PSPL, OU=OBLIX-QA, CN=ps2436/emailAddress=sagar@pspl.com
        Validity
            Not Before: Jan 14 10:22:27 2009 GMT
            Not After : Jan 14 10:22:27 2010 GMT
        Subject: CN=kangra.persistent.co.in/emailAddress=kangra@psl.com
        Subject Public Key Info:
            Public Key Algorithm: rsaEncryption
            RSA Public Key: (1024 bit)
                Modulus (1024 bit):
                    00:be:5e:0c:75:ea:ba:18:a6:ec:8d:be:c6:63:8f:
                    a0:b4:19:b3:2b:8c:a0:c5:bc:e1:bb:65:9f:f4:bc:
                    16:4a:98:2d:a2:8b:2e:97:38:8b:ca:fd:83:d9:93:
                    69:15:bc:6e:38:9d:43:75:ea:d0:07:ae:24:9a:b5:
                    9d:af:13:c1:3f:39:13:b7:09:e9:e7:cd:b5:d1:a1:
                    4c:05:29:3f:ae:ee:89:c1:f1:bb:01:6b:48:b8:ca:
                    d7:74:9b:b3:c8:bd:87:0a:ae:23:b9:f6:bc:f8:13:
                    e1:41:23:5f:6f:f8:96:9f:3d:4e:0a:c5:16:26:97:
                    47:87:e4:44:dd:1d:36:ad:af
                Exponent: 65537 (0x10001)
        X509v3 extensions:
            X509v3 Subject Alternative Name: 
            email:kangra@psl.com
            X509v3 Basic Constraints: critical
            CA:FALSE
            X509v3 Authority Key Identifier: 
            keyid:DB:F8:6A:15:0A:82:53:1F:C2:EB:CC:D0:6E:83:72:57:E4:45:F2:74

            X509v3 Extended Key Usage: 
            TLS Web Client Authentication, E-mail Protection
    Signature Algorithm: md5WithRSAEncryption
        3e:dd:08:27:32:74:12:9c:7d:56:9e:29:0f:61:4a:d6:92:7c:
        0c:ec:85:32:2e:fa:34:56:be:5a:fb:5b:59:8b:1b:5f:fb:c8:
        7c:09:7c:7a:aa:f4:75:f5:7f:e3:80:5c:ca:22:c0:d3:83:82:
        ff:be:e8:6c:ba:b9:29:04:14:38:03:99:6b:36:86:a6:57:1f:
        22:15:e1:0a:95:be:d5:1c:ad:9c:59:3d:96:ce:ff:a6:de:66:
        1d:9b:2a:bf:cb:39:83:24:1d:da:2d:cf:00:4e:11:d2:29:39:
        0f:01:f0:f8:42:d4:68:62:24:9b:b8:4d:a1:bf:0e:e0:fd:63:
        4e:21
-----BEGIN CERTIFICATE-----
MIICnzCCAgigAwIBAgIBUDANBgkqhkiG9w0BAQQFADB9MQswCQYDVQQGEwJNWTEN
MAsGA1UECBMETUFIQTENMAsGA1UEBxMEUFVORTENMAsGA1UEChMEUFNQTDERMA8G
A1UECxMIT0JMSVgtUUExDzANBgNVBAMTBnBzMjQzNjEdMBsGCSqGSIb3DQEJARYO
c2FnYXJAcHNwbC5jb20wHhcNMDkwMTE0MTAyMjI3WhcNMTAwMTE0MTAyMjI3WjBB
MSAwHgYDVQQDExdrYW5ncmEucGVyc2lzdGVudC5jby5pbjEdMBsGCSqGSIb3DQEJ
ARYOa2FuZ3JhQHBzbC5jb20wgZ8wDQYJKoZIhvcNAQEBBQADgY0AMIGJAoGBAL5e
DHXquhim7I2+xmOPoLQZsyuMoMW84btln/S8FkqYLaKLLpc4i8r9g9mTaRW8bjid
Q3Xq0AeuJJq1na8TwT85E7cJ6efNtdGhTAUpP67uicHxuwFrSLjK13Sbs8i9hwqu
I7n2vPgT4UEjX2/4lp89TgrFFiaXR4fkRN0dNq2vAgMBAAGjazBpMBkGA1UdEQQS
MBCBDmthbmdyYUBwc2wuY29tMAwGA1UdEwEB/wQCMAAwHwYDVR0jBBgwFoAU2/hq
FQqCUx/C68zQboNyV+RF8nQwHQYDVR0lBBYwFAYIKwYBBQUHAwIGCCsGAQUFBwME
MA0GCSqGSIb3DQEBBAUAA4GBAD7dCCcydBKcfVaeKQ9hStaSfAzshTIu+jRWvlr7
W1mLG1/7yHwJfHqq9HX1f+OAXMoiwNODgv++6Gy6uSkEFDgDmWs2hqZXHyIV4QqV
vtUcrZxZPZbO/6beZh2bKr/LOYMkHdotzwBOEdIpOQ8B8PhC1GhiJJu4TaG/DuD9
Y04h
-----END CERTIFICATE-----
