Certificate:
    Data:
        Version: 3 (0x2)
        Serial Number: 81 (0x51)
        Signature Algorithm: md5WithRSAEncryption
        Issuer: C=MY, ST=MAHA, L=PUNE, O=PSPL, OU=OBLIX-QA, CN=ps2436/emailAddress=sagar@pspl.com
        Validity
            Not Before: Jan 14 10:28:15 2009 GMT
            Not After : Jan 14 10:28:15 2010 GMT
        Subject: C=IN, ST=MH, L=pune, O=PSL, OU=Oblix, CN=kangra.persistent.co.in
        Subject Public Key Info:
            Public Key Algorithm: rsaEncryption
            RSA Public Key: (1024 bit)
                Modulus (1024 bit):
                    00:b9:e4:66:a4:4a:94:64:a3:57:72:49:39:3b:29:
                    b4:cd:d2:4a:42:1c:d9:b2:7d:94:76:31:f4:72:29:
                    38:de:86:b4:80:8f:c2:2c:47:e5:2f:5d:a9:aa:51:
                    9b:d5:90:76:f0:d9:cb:88:18:a1:66:40:80:5b:28:
                    2a:eb:8b:e0:0d:54:fa:1a:28:7e:56:bd:17:26:0b:
                    8b:95:d4:41:3f:77:0b:9a:d6:61:5e:a8:94:fb:49:
                    2a:a9:69:d2:14:de:c2:4b:e9:ea:df:c9:35:bf:6e:
                    0c:f2:a8:8d:60:14:fc:4b:d4:bf:63:49:b8:09:3f:
                    f6:32:1d:e3:e8:75:d6:2f:5f
                Exponent: 65537 (0x10001)
        X509v3 extensions:
            X509v3 Authority Key Identifier: 
            keyid:DB:F8:6A:15:0A:82:53:1F:C2:EB:CC:D0:6E:83:72:57:E4:45:F2:74

            X509v3 Extended Key Usage: 
            TLS Web Server Authentication, TLS Web Client Authentication, Microsoft Server Gated Crypto, Netscape Server Gated Crypto
            X509v3 Basic Constraints: critical
            CA:FALSE
    Signature Algorithm: md5WithRSAEncryption
        99:6d:bd:b9:a7:aa:0b:f1:a2:57:e0:6b:c3:41:2c:21:4e:81:
        71:1d:bf:27:4a:54:57:19:6e:d2:25:d8:3b:e6:d8:63:6e:23:
        a4:37:91:e5:3e:ae:00:97:36:32:24:4a:f7:b7:22:f5:f8:e7:
        34:26:94:12:7d:75:5a:3b:59:2a:d0:df:b0:b9:19:d0:fe:5b:
        34:b3:29:cc:1b:5a:64:96:40:72:13:d7:86:45:f8:dc:20:8f:
        ab:0f:fc:f5:5e:ab:2b:53:df:bf:8c:38:44:21:e9:e1:9c:41:
        25:6a:75:2e:2a:d5:db:89:a2:1b:35:17:82:63:ef:19:06:84:
        d5:0d
-----BEGIN CERTIFICATE-----
MIICwzCCAiygAwIBAgIBUTANBgkqhkiG9w0BAQQFADB9MQswCQYDVQQGEwJNWTEN
MAsGA1UECBMETUFIQTENMAsGA1UEBxMEUFVORTENMAsGA1UEChMEUFNQTDERMA8G
A1UECxMIT0JMSVgtUUExDzANBgNVBAMTBnBzMjQzNjEdMBsGCSqGSIb3DQEJARYO
c2FnYXJAcHNwbC5jb20wHhcNMDkwMTE0MTAyODE1WhcNMTAwMTE0MTAyODE1WjBp
MQswCQYDVQQGEwJJTjELMAkGA1UECBMCTUgxDTALBgNVBAcTBHB1bmUxDDAKBgNV
BAoTA1BTTDEOMAwGA1UECxMFT2JsaXgxIDAeBgNVBAMTF2thbmdyYS5wZXJzaXN0
ZW50LmNvLmluMIGfMA0GCSqGSIb3DQEBAQUAA4GNADCBiQKBgQC55GakSpRko1dy
STk7KbTN0kpCHNmyfZR2MfRyKTjehrSAj8IsR+UvXamqUZvVkHbw2cuIGKFmQIBb
KCrri+ANVPoaKH5WvRcmC4uV1EE/dwua1mFeqJT7SSqpadIU3sJL6erfyTW/bgzy
qI1gFPxL1L9jSbgJP/YyHePoddYvXwIDAQABo2cwZTAfBgNVHSMEGDAWgBTb+GoV
CoJTH8LrzNBug3JX5EXydDA0BgNVHSUELTArBggrBgEFBQcDAQYIKwYBBQUHAwIG
CisGAQQBgjcKAwMGCWCGSAGG+EIEATAMBgNVHRMBAf8EAjAAMA0GCSqGSIb3DQEB
BAUAA4GBAJltvbmnqgvxolfga8NBLCFOgXEdvydKVFcZbtIl2Dvm2GNuI6Q3keU+
rgCXNjIkSve3IvX45zQmlBJ9dVo7WSrQ37C5GdD+WzSzKcwbWmSWQHIT14ZF+Nwg
j6sP/PVeqytT37+MOEQh6eGcQSVqdS4q1duJohs1F4Jj7xkGhNUN
-----END CERTIFICATE-----
