Certificate:
    Data:
        Version: 3 (0x2)
        Serial Number: 82 (0x52)
        Signature Algorithm: md5WithRSAEncryption
        Issuer: C=MY, ST=MAHA, L=PUNE, O=PSPL, OU=OBLIX-QA, CN=ps2436/emailAddress=sagar@pspl.com
        Validity
            Not Before: Jan 14 13:53:09 2009 GMT
            Not After : Jan 14 13:53:09 2010 GMT
        Subject: C=US, ST=Maharashtra, L=pune, O=oracle, OU=oblix, CN=wxdev2.us.oracle.com
        Subject Public Key Info:
            Public Key Algorithm: rsaEncryption
            RSA Public Key: (1024 bit)
                Modulus (1024 bit):
                    00:bc:e1:f3:2a:2a:5e:0b:e0:59:0a:07:03:46:6a:
                    35:fb:2e:7c:15:16:3e:cc:88:95:25:d6:30:17:07:
                    e9:54:c3:8a:f8:57:30:f1:62:8f:ae:09:f7:17:de:
                    44:a4:bd:95:e4:bd:8f:b2:b0:63:08:05:d0:fe:e4:
                    6c:b0:43:f1:d2:35:fc:a7:18:0e:49:4a:8c:c0:0c:
                    be:d5:c5:40:0f:0e:c3:7c:33:ce:fc:89:02:2a:92:
                    d1:17:4a:89:43:4d:b7:8e:58:89:08:f4:cb:39:89:
                    b6:06:49:22:f2:7e:2b:c1:76:bb:a0:68:12:3d:9a:
                    bf:b2:bf:e5:42:99:43:37:d9
                Exponent: 65537 (0x10001)
        X509v3 extensions:
            X509v3 Authority Key Identifier: 
            keyid:DB:F8:6A:15:0A:82:53:1F:C2:EB:CC:D0:6E:83:72:57:E4:45:F2:74

            X509v3 Extended Key Usage: 
            TLS Web Server Authentication, TLS Web Client Authentication, Microsoft Server Gated Crypto, Netscape Server Gated Crypto
            X509v3 Basic Constraints: critical
            CA:FALSE
    Signature Algorithm: md5WithRSAEncryption
        1a:9b:e4:26:fa:a0:c3:f6:7b:51:c9:76:09:57:c6:3c:cc:8e:
        48:d6:f4:1b:75:97:93:7a:f2:d6:64:c2:39:d2:fb:80:17:46:
        c9:b3:66:af:cf:eb:85:ee:99:20:15:8f:22:d8:71:55:9e:5f:
        0c:bd:77:7d:00:20:75:3b:dd:18:7f:9f:7a:39:3e:73:16:3b:
        92:2c:cc:4c:a8:f2:c7:b3:46:9b:91:5d:b3:82:15:14:68:4d:
        c9:42:f8:51:07:7d:25:fd:1f:27:78:84:8b:f6:e0:ee:6e:15:
        c1:b9:de:b1:22:18:dd:eb:11:7d:3a:fe:51:ad:8e:4f:2c:49:
        3b:b7
-----BEGIN CERTIFICATE-----
MIICzDCCAjWgAwIBAgIBUjANBgkqhkiG9w0BAQQFADB9MQswCQYDVQQGEwJNWTEN
MAsGA1UECBMETUFIQTENMAsGA1UEBxMEUFVORTENMAsGA1UEChMEUFNQTDERMA8G
A1UECxMIT0JMSVgtUUExDzANBgNVBAMTBnBzMjQzNjEdMBsGCSqGSIb3DQEJARYO
c2FnYXJAcHNwbC5jb20wHhcNMDkwMTE0MTM1MzA5WhcNMTAwMTE0MTM1MzA5WjBy
MQswCQYDVQQGEwJVUzEUMBIGA1UECBMLTWFoYXJhc2h0cmExDTALBgNVBAcTBHB1
bmUxDzANBgNVBAoTBm9yYWNsZTEOMAwGA1UECxMFb2JsaXgxHTAbBgNVBAMTFHd4
ZGV2Mi51cy5vcmFjbGUuY29tMIGfMA0GCSqGSIb3DQEBAQUAA4GNADCBiQKBgQC8
4fMqKl4L4FkKBwNGajX7LnwVFj7MiJUl1jAXB+lUw4r4VzDxYo+uCfcX3kSkvZXk
vY+ysGMIBdD+5GywQ/HSNfynGA5JSozADL7VxUAPDsN8M878iQIqktEXSolDTbeO
WIkI9Ms5ibYGSSLyfivBdrugaBI9mr+yv+VCmUM32QIDAQABo2cwZTAfBgNVHSME
GDAWgBTb+GoVCoJTH8LrzNBug3JX5EXydDA0BgNVHSUELTArBggrBgEFBQcDAQYI
KwYBBQUHAwIGCisGAQQBgjcKAwMGCWCGSAGG+EIEATAMBgNVHRMBAf8EAjAAMA0G
CSqGSIb3DQEBBAUAA4GBABqb5Cb6oMP2e1HJdglXxjzMjkjW9Bt1l5N68tZkwjnS
+4AXRsmzZq/P64XumSAVjyLYcVWeXwy9d30AIHU73Rh/n3o5PnMWO5IszEyo8sez
RpuRXbOCFRRoTclC+FEHfSX9Hyd4hIv24O5uFcG53rEiGN3rEX06/lGtjk8sSTu3
-----END CERTIFICATE-----
