Certificate:
    Data:
        Version: 3 (0x2)
        Serial Number: 84 (0x54)
        Signature Algorithm: md5WithRSAEncryption
        Issuer: C=MY, ST=MAHA, L=PUNE, O=PSPL, OU=OBLIX-QA, CN=ps2436/emailAddress=sagar@pspl.com
        Validity
            Not Before: Jan 16 06:02:55 2009 GMT
            Not After : Jan 16 06:02:55 2010 GMT
        Subject: C=In, ST=maha, L=pune, O=oblix, OU=oblix-qa, CN=ps2633
        Subject Public Key Info:
            Public Key Algorithm: rsaEncryption
            RSA Public Key: (1024 bit)
                Modulus (1024 bit):
                    00:c3:03:c1:b9:c5:59:85:20:67:3c:dc:af:f0:e3:
                    df:1a:b8:1e:1a:ea:b0:e9:2b:ca:99:1c:0c:29:a1:
                    9a:5c:f4:15:8c:99:47:37:35:6b:e6:51:71:0b:44:
                    54:92:a5:06:13:c1:65:8b:e0:e7:5c:a0:53:d2:98:
                    53:43:74:26:03:19:26:ee:00:b6:9d:e2:74:0a:8c:
                    7d:35:ba:62:50:6a:43:f6:70:05:35:ea:7e:3b:eb:
                    43:f8:ce:f9:b4:48:62:57:91:5f:7f:c1:f5:2c:80:
                    71:e1:4d:e1:51:a4:9d:93:9e:a2:92:d8:9e:4f:29:
                    17:0b:10:76:8b:cf:aa:3f:53
                Exponent: 65537 (0x10001)
        X509v3 extensions:
            X509v3 Authority Key Identifier: 
            keyid:DB:F8:6A:15:0A:82:53:1F:C2:EB:CC:D0:6E:83:72:57:E4:45:F2:74

            X509v3 Extended Key Usage: 
            TLS Web Server Authentication, TLS Web Client Authentication, Microsoft Server Gated Crypto, Netscape Server Gated Crypto
            X509v3 Basic Constraints: critical
            CA:FALSE
    Signature Algorithm: md5WithRSAEncryption
        90:2c:8c:d7:09:29:02:4c:03:e1:7b:ac:52:3a:8c:3a:c1:c7:
        d9:77:3c:f6:22:c9:b8:3d:2e:a6:e0:7c:69:00:56:81:39:f2:
        5f:50:c3:b1:3e:5a:69:b5:21:78:ba:14:20:de:fe:75:d1:e6:
        d7:cc:36:78:7b:dc:bc:c5:44:81:82:d2:e5:29:76:48:65:6e:
        e7:c4:be:53:67:af:8d:18:d3:ef:ac:d7:04:78:b2:15:68:9e:
        b0:9d:92:57:c3:42:ed:f3:af:ba:23:ea:5f:63:25:59:10:ed:
        50:de:27:93:6e:85:27:5b:3a:0d:c9:db:0c:2c:b7:6f:a0:50:
        44:40
-----BEGIN CERTIFICATE-----
MIICuTCCAiKgAwIBAgIBVDANBgkqhkiG9w0BAQQFADB9MQswCQYDVQQGEwJNWTEN
MAsGA1UECBMETUFIQTENMAsGA1UEBxMEUFVORTENMAsGA1UEChMEUFNQTDERMA8G
A1UECxMIT0JMSVgtUUExDzANBgNVBAMTBnBzMjQzNjEdMBsGCSqGSIb3DQEJARYO
c2FnYXJAcHNwbC5jb20wHhcNMDkwMTE2MDYwMjU1WhcNMTAwMTE2MDYwMjU1WjBf
MQswCQYDVQQGEwJJbjENMAsGA1UECBMEbWFoYTENMAsGA1UEBxMEcHVuZTEOMAwG
A1UEChMFb2JsaXgxETAPBgNVBAsTCG9ibGl4LXFhMQ8wDQYDVQQDEwZwczI2MzMw
gZ8wDQYJKoZIhvcNAQEBBQADgY0AMIGJAoGBAMMDwbnFWYUgZzzcr/Dj3xq4Hhrq
sOkrypkcDCmhmlz0FYyZRzc1a+ZRcQtEVJKlBhPBZYvg51ygU9KYU0N0JgMZJu4A
tp3idAqMfTW6YlBqQ/ZwBTXqfjvrQ/jO+bRIYleRX3/B9SyAceFN4VGknZOeopLY
nk8pFwsQdovPqj9TAgMBAAGjZzBlMB8GA1UdIwQYMBaAFNv4ahUKglMfwuvM0G6D
clfkRfJ0MDQGA1UdJQQtMCsGCCsGAQUFBwMBBggrBgEFBQcDAgYKKwYBBAGCNwoD
AwYJYIZIAYb4QgQBMAwGA1UdEwEB/wQCMAAwDQYJKoZIhvcNAQEEBQADgYEAkCyM
1wkpAkwD4XusUjqMOsHH2Xc89iLJuD0upuB8aQBWgTnyX1DDsT5aabUheLoUIN7+
ddHm18w2eHvcvMVEgYLS5Sl2SGVu58S+U2evjRjT76zXBHiyFWiesJ2SV8NC7fOv
uiPqX2MlWRDtUN4nk26FJ1s6DcnbDCy3b6BQREA=
-----END CERTIFICATE-----
