Certificate:
    Data:
        Version: 3 (0x2)
        Serial Number: 85 (0x55)
        Signature Algorithm: md5WithRSAEncryption
        Issuer: C=MY, ST=MAHA, L=PUNE, O=PSPL, OU=OBLIX-QA, CN=ps2436/emailAddress=sagar@pspl.com
        Validity
            Not Before: Jan 16 06:18:50 2009 GMT
            Not After : Jan 16 06:18:50 2010 GMT
        Subject: C=In, ST=ma, L=pune, O=oblix, OU=oblixoblix, CN=ps2633.persistent.co.in
        Subject Public Key Info:
            Public Key Algorithm: rsaEncryption
            RSA Public Key: (1024 bit)
                Modulus (1024 bit):
                    00:c3:12:02:e5:47:c8:97:35:b4:5c:55:af:4a:d7:
                    98:b1:69:bc:ad:32:07:18:19:d3:69:bd:a1:f3:b6:
                    13:f2:51:7b:9b:f3:69:93:a6:03:36:fa:ed:db:19:
                    43:dd:d1:00:b4:7c:95:e8:b3:cd:68:8a:17:aa:9f:
                    d6:74:76:37:d0:19:42:62:19:7e:bf:9e:b2:b7:0d:
                    c3:2f:b6:1e:39:1c:55:9c:c9:20:75:fc:6d:0e:e8:
                    d7:e5:4c:5f:a0:2f:4d:d2:08:09:8a:03:cb:72:24:
                    0a:6d:df:dd:54:ca:a8:2a:1c:20:af:c8:b6:76:63:
                    d7:06:65:39:18:cd:5e:a9:93
                Exponent: 65537 (0x10001)
        X509v3 extensions:
            X509v3 Authority Key Identifier: 
            keyid:DB:F8:6A:15:0A:82:53:1F:C2:EB:CC:D0:6E:83:72:57:E4:45:F2:74

            X509v3 Extended Key Usage: 
            TLS Web Server Authentication, TLS Web Client Authentication, Microsoft Server Gated Crypto, Netscape Server Gated Crypto
            X509v3 Basic Constraints: critical
            CA:FALSE
    Signature Algorithm: md5WithRSAEncryption
        a9:5e:d1:b8:8f:dc:eb:99:66:68:e3:95:30:e6:fc:8e:45:5d:
        b0:d3:7a:52:6a:6e:b0:c0:53:bc:04:e4:2c:6d:cc:66:f4:ce:
        40:e8:c9:08:68:52:ff:73:44:be:f6:22:82:00:48:d8:c7:97:
        c4:f1:3d:cb:5d:a3:6f:ca:29:d7:73:21:cd:84:e5:5e:6d:86:
        55:30:92:6b:62:27:70:01:ce:f6:ff:b4:49:6f:48:8a:a0:92:
        3a:b1:e1:e7:72:e3:73:5c:c2:14:bc:8c:6d:5f:b6:56:cb:e4:
        6e:b0:c7:74:a0:c0:84:fa:71:49:9a:2a:ee:3c:19:24:c0:06:
        01:4d
-----BEGIN CERTIFICATE-----
MIICyjCCAjOgAwIBAgIBVTANBgkqhkiG9w0BAQQFADB9MQswCQYDVQQGEwJNWTEN
MAsGA1UECBMETUFIQTENMAsGA1UEBxMEUFVORTENMAsGA1UEChMEUFNQTDERMA8G
A1UECxMIT0JMSVgtUUExDzANBgNVBAMTBnBzMjQzNjEdMBsGCSqGSIb3DQEJARYO
c2FnYXJAcHNwbC5jb20wHhcNMDkwMTE2MDYxODUwWhcNMTAwMTE2MDYxODUwWjBw
MQswCQYDVQQGEwJJbjELMAkGA1UECBMCbWExDTALBgNVBAcTBHB1bmUxDjAMBgNV
BAoTBW9ibGl4MRMwEQYDVQQLEwpvYmxpeG9ibGl4MSAwHgYDVQQDExdwczI2MzMu
cGVyc2lzdGVudC5jby5pbjCBnzANBgkqhkiG9w0BAQEFAAOBjQAwgYkCgYEAwxIC
5UfIlzW0XFWvSteYsWm8rTIHGBnTab2h87YT8lF7m/Npk6YDNvrt2xlD3dEAtHyV
6LPNaIoXqp/WdHY30BlCYhl+v56ytw3DL7YeORxVnMkgdfxtDujX5UxfoC9N0ggJ
igPLciQKbd/dVMqoKhwgr8i2dmPXBmU5GM1eqZMCAwEAAaNnMGUwHwYDVR0jBBgw
FoAU2/hqFQqCUx/C68zQboNyV+RF8nQwNAYDVR0lBC0wKwYIKwYBBQUHAwEGCCsG
AQUFBwMCBgorBgEEAYI3CgMDBglghkgBhvhCBAEwDAYDVR0TAQH/BAIwADANBgkq
hkiG9w0BAQQFAAOBgQCpXtG4j9zrmWZo45Uw5vyORV2w03pSam6wwFO8BOQsbcxm
9M5A6MkIaFL/c0S+9iKCAEjYx5fE8T3LXaNvyinXcyHNhOVebYZVMJJrYidwAc72
/7RJb0iKoJI6seHncuNzXMIUvIxtX7ZWy+RusMd0oMCE+nFJmiruPBkkwAYBTQ==
-----END CERTIFICATE-----
