Certificate:
    Data:
        Version: 3 (0x2)
        Serial Number: 86 (0x56)
        Signature Algorithm: md5WithRSAEncryption
        Issuer: C=MY, ST=MAHA, L=PUNE, O=PSPL, OU=OBLIX-QA, CN=ps2436/emailAddress=sagar@pspl.com
        Validity
            Not Before: Jan 16 06:26:32 2009 GMT
            Not After : Jan 16 06:26:32 2010 GMT
        Subject: C=In, ST=ma, L=Poona, O=ObliQA, OU=Oracle, CN=ps2633.persistent.co.in
        Subject Public Key Info:
            Public Key Algorithm: rsaEncryption
            RSA Public Key: (1024 bit)
                Modulus (1024 bit):
                    00:c3:b1:91:9f:e4:9a:3d:68:88:9b:63:f8:41:f6:
                    76:73:74:db:d0:96:53:37:74:41:b9:e5:7c:a3:c2:
                    d3:1e:49:a0:58:59:6a:5f:9f:b2:6c:03:bd:5d:49:
                    58:73:3c:d7:b8:33:99:80:50:22:ec:24:bd:de:5b:
                    5c:42:7a:8f:29:79:ed:83:ac:30:c5:60:85:b8:ed:
                    17:64:ce:bf:71:09:d5:ad:99:bc:e8:49:b2:e0:0b:
                    5f:eb:62:53:9e:fe:cc:73:75:2b:a2:72:97:3b:67:
                    9d:30:f8:49:91:a6:d5:05:1c:b3:62:84:32:ac:5f:
                    e5:22:a7:31:e7:51:a1:33:75
                Exponent: 65537 (0x10001)
        X509v3 extensions:
            X509v3 Authority Key Identifier: 
            keyid:DB:F8:6A:15:0A:82:53:1F:C2:EB:CC:D0:6E:83:72:57:E4:45:F2:74

            X509v3 Extended Key Usage: 
            TLS Web Server Authentication, TLS Web Client Authentication, Microsoft Server Gated Crypto, Netscape Server Gated Crypto
            X509v3 Basic Constraints: critical
            CA:FALSE
    Signature Algorithm: md5WithRSAEncryption
        0e:81:10:36:47:b4:d8:7a:6d:0a:80:e3:05:1e:35:0e:a0:fe:
        58:77:7a:45:4c:43:d3:dc:0d:8d:b6:80:b3:8f:ba:4b:e4:65:
        44:e6:83:40:a9:61:be:56:60:4d:e9:96:d9:4c:6c:34:8f:ea:
        1f:c8:2a:4a:00:a2:41:5b:e2:71:ef:aa:33:77:31:49:db:32:
        48:8d:db:84:f5:6f:5f:92:bc:33:7e:e9:ef:57:0e:b4:a1:ab:
        c1:96:08:6b:24:f0:13:f3:b8:c8:2b:b6:56:e2:8a:33:2b:30:
        5f:1a:ec:9a:53:c3:68:f8:a9:29:02:57:47:2b:d4:85:f6:4b:
        a8:f6
-----BEGIN CERTIFICATE-----
MIICyDCCAjGgAwIBAgIBVjANBgkqhkiG9w0BAQQFADB9MQswCQYDVQQGEwJNWTEN
MAsGA1UECBMETUFIQTENMAsGA1UEBxMEUFVORTENMAsGA1UEChMEUFNQTDERMA8G
A1UECxMIT0JMSVgtUUExDzANBgNVBAMTBnBzMjQzNjEdMBsGCSqGSIb3DQEJARYO
c2FnYXJAcHNwbC5jb20wHhcNMDkwMTE2MDYyNjMyWhcNMTAwMTE2MDYyNjMyWjBu
MQswCQYDVQQGEwJJbjELMAkGA1UECBMCbWExDjAMBgNVBAcTBVBvb25hMQ8wDQYD
VQQKEwZPYmxpUUExDzANBgNVBAsTBk9yYWNsZTEgMB4GA1UEAxMXcHMyNjMzLnBl
cnNpc3RlbnQuY28uaW4wgZ8wDQYJKoZIhvcNAQEBBQADgY0AMIGJAoGBAMOxkZ/k
mj1oiJtj+EH2dnN029CWUzd0QbnlfKPC0x5JoFhZal+fsmwDvV1JWHM817gzmYBQ
Iuwkvd5bXEJ6jyl57YOsMMVghbjtF2TOv3EJ1a2ZvOhJsuALX+tiU57+zHN1K6Jy
lztnnTD4SZGm1QUcs2KEMqxf5SKnMedRoTN1AgMBAAGjZzBlMB8GA1UdIwQYMBaA
FNv4ahUKglMfwuvM0G6DclfkRfJ0MDQGA1UdJQQtMCsGCCsGAQUFBwMBBggrBgEF
BQcDAgYKKwYBBAGCNwoDAwYJYIZIAYb4QgQBMAwGA1UdEwEB/wQCMAAwDQYJKoZI
hvcNAQEEBQADgYEADoEQNke02HptCoDjBR41DqD+WHd6RUxD09wNjbaAs4+6S+Rl
ROaDQKlhvlZgTemW2UxsNI/qH8gqSgCiQVvice+qM3cxSdsySI3bhPVvX5K8M37p
71cOtKGrwZYIayTwE/O4yCu2VuKKMyswXxrsmlPDaPipKQJXRyvUhfZLqPY=
-----END CERTIFICATE-----
