Certificate:
    Data:
        Version: 3 (0x2)
        Serial Number: 87 (0x57)
        Signature Algorithm: md5WithRSAEncryption
        Issuer: C=MY, ST=MAHA, L=PUNE, O=PSPL, OU=OBLIX-QA, CN=ps2436/emailAddress=sagar@pspl.com
        Validity
            Not Before: Jan 16 06:27:55 2009 GMT
            Not After : Jan 16 06:27:55 2010 GMT
        Subject: C=In, ST=Maha, L=Pune, O=OblixQA, OU=Oracle, CN=ps2633.persistent.co.in
        Subject Public Key Info:
            Public Key Algorithm: rsaEncryption
            RSA Public Key: (1024 bit)
                Modulus (1024 bit):
                    00:cf:e4:e4:f7:7b:c2:e5:e2:f2:3e:5e:5f:e9:79:
                    6d:db:0a:aa:e3:46:e2:97:7b:2a:a8:53:18:ac:51:
                    8f:d7:e5:fd:78:f5:ad:5b:3b:71:b7:4b:7c:ce:f6:
                    55:c7:98:a1:1f:90:94:13:0e:2e:48:9f:6c:70:3c:
                    f6:03:70:29:06:ac:82:a9:3e:2c:3c:f2:4a:a4:7a:
                    7e:2b:cf:8a:a6:92:2b:af:4f:e5:3f:a4:c0:49:35:
                    5f:e6:71:fe:56:cf:a4:5a:c7:55:ff:00:69:f4:e2:
                    69:e4:7c:4a:53:89:46:49:90:27:48:04:fd:d9:42:
                    65:7b:7a:30:70:eb:62:15:a7
                Exponent: 65537 (0x10001)
        X509v3 extensions:
            X509v3 Authority Key Identifier: 
            keyid:DB:F8:6A:15:0A:82:53:1F:C2:EB:CC:D0:6E:83:72:57:E4:45:F2:74

            X509v3 Extended Key Usage: 
            TLS Web Server Authentication, TLS Web Client Authentication, Microsoft Server Gated Crypto, Netscape Server Gated Crypto
            X509v3 Basic Constraints: critical
            CA:FALSE
    Signature Algorithm: md5WithRSAEncryption
        2c:91:19:80:18:83:30:73:69:29:24:e6:ed:20:31:32:b5:47:
        3d:c7:2d:a5:08:8c:f8:34:90:10:41:3a:12:a4:bf:35:e2:b8:
        e1:92:f4:13:ed:de:48:ae:61:4e:d9:ce:ba:78:58:a0:55:fb:
        16:23:e6:f3:07:9a:1f:ef:9c:2b:cd:4c:14:4e:da:0a:43:eb:
        53:b3:aa:f7:9f:d4:f3:8d:71:17:9c:fc:ef:92:7b:3c:97:58:
        6c:54:5c:c8:b6:f6:82:9a:18:00:73:b0:93:0b:96:05:ca:5f:
        b8:b8:14:85:54:56:a0:6f:4c:44:14:39:5e:23:97:4e:32:62:
        83:b0
-----BEGIN CERTIFICATE-----
MIICyjCCAjOgAwIBAgIBVzANBgkqhkiG9w0BAQQFADB9MQswCQYDVQQGEwJNWTEN
MAsGA1UECBMETUFIQTENMAsGA1UEBxMEUFVORTENMAsGA1UEChMEUFNQTDERMA8G
A1UECxMIT0JMSVgtUUExDzANBgNVBAMTBnBzMjQzNjEdMBsGCSqGSIb3DQEJARYO
c2FnYXJAcHNwbC5jb20wHhcNMDkwMTE2MDYyNzU1WhcNMTAwMTE2MDYyNzU1WjBw
MQswCQYDVQQGEwJJbjENMAsGA1UECBMETWFoYTENMAsGA1UEBxMEUHVuZTEQMA4G
A1UEChMHT2JsaXhRQTEPMA0GA1UECxMGT3JhY2xlMSAwHgYDVQQDExdwczI2MzMu
cGVyc2lzdGVudC5jby5pbjCBnzANBgkqhkiG9w0BAQEFAAOBjQAwgYkCgYEAz+Tk
93vC5eLyPl5f6Xlt2wqq40bil3sqqFMYrFGP1+X9ePWtWztxt0t8zvZVx5ihH5CU
Ew4uSJ9scDz2A3ApBqyCqT4sPPJKpHp+K8+KppIrr0/lP6TASTVf5nH+Vs+kWsdV
/wBp9OJp5HxKU4lGSZAnSAT92UJle3owcOtiFacCAwEAAaNnMGUwHwYDVR0jBBgw
FoAU2/hqFQqCUx/C68zQboNyV+RF8nQwNAYDVR0lBC0wKwYIKwYBBQUHAwEGCCsG
AQUFBwMCBgorBgEEAYI3CgMDBglghkgBhvhCBAEwDAYDVR0TAQH/BAIwADANBgkq
hkiG9w0BAQQFAAOBgQAskRmAGIMwc2kpJObtIDEytUc9xy2lCIz4NJAQQToSpL81
4rjhkvQT7d5IrmFO2c66eFigVfsWI+bzB5of75wrzUwUTtoKQ+tTs6r3n9TzjXEX
nPzvkns8l1hsVFzItvaCmhgAc7CTC5YFyl+4uBSFVFagb0xEFDleI5dOMmKDsA==
-----END CERTIFICATE-----
