Certificate:
    Data:
        Version: 3 (0x2)
        Serial Number: 91 (0x5b)
        Signature Algorithm: md5WithRSAEncryption
        Issuer: C=MY, ST=MAHA, L=PUNE, O=PSPL, OU=OBLIX-QA, CN=ps2436/emailAddress=sagar@pspl.com
        Validity
            Not Before: Feb  2 11:02:40 2009 GMT
            Not After : Feb  2 11:02:40 2010 GMT
        Subject: C=IN, ST=Maha, L=Pune, O=PSL, OU=Oblix, CN=ps3848.persistent.co.in
        Subject Public Key Info:
            Public Key Algorithm: rsaEncryption
            RSA Public Key: (1024 bit)
                Modulus (1024 bit):
                    00:ec:ee:9a:16:58:03:6f:81:ae:64:bb:21:da:92:
                    83:1c:17:c6:c3:bd:26:d8:68:07:94:57:62:a0:a2:
                    a7:92:8b:80:8d:17:c2:a1:47:9a:71:15:2b:cf:94:
                    f5:5d:f2:17:e7:be:61:14:5b:ba:89:9f:d6:5c:8f:
                    43:ae:f7:da:6b:4b:b0:c1:e7:9e:7a:84:f7:66:14:
                    a8:27:88:e9:6e:eb:ba:35:ab:28:9e:d4:c4:46:49:
                    51:a6:60:e6:68:8e:88:27:a8:34:cd:c7:01:4e:9b:
                    c7:fa:16:b9:c1:44:45:c1:51:a1:3c:b6:21:81:60:
                    49:c5:b1:6d:52:c6:9b:f4:31
                Exponent: 65537 (0x10001)
        X509v3 extensions:
            X509v3 Authority Key Identifier: 
            keyid:DB:F8:6A:15:0A:82:53:1F:C2:EB:CC:D0:6E:83:72:57:E4:45:F2:74

            X509v3 Extended Key Usage: 
            TLS Web Server Authentication, TLS Web Client Authentication, Microsoft Server Gated Crypto, Netscape Server Gated Crypto
            X509v3 Basic Constraints: critical
            CA:FALSE
    Signature Algorithm: md5WithRSAEncryption
        18:e8:f3:b7:8e:e8:7e:06:c5:d7:b0:ea:c3:bf:29:ff:e8:90:
        b0:42:7c:09:66:73:b0:6d:67:1c:3d:7e:7f:3b:2c:9a:db:fb:
        c3:27:e4:dd:e2:1f:36:7e:1a:60:81:1c:ed:e7:4c:ae:e0:0c:
        20:fe:c6:1d:85:c8:ba:ac:91:d1:64:d5:80:0f:eb:5a:42:cd:
        75:12:22:14:9d:b0:52:ae:c1:f5:df:63:83:f5:e0:c1:61:0d:
        f6:6f:2e:56:7a:35:da:b3:3c:95:09:0c:08:26:d9:3d:f7:c2:
        69:b6:2c:e5:7c:e5:9e:c5:46:11:c0:e9:88:19:e2:92:70:e9:
        c6:5c
-----BEGIN CERTIFICATE-----
MIICxTCCAi6gAwIBAgIBWzANBgkqhkiG9w0BAQQFADB9MQswCQYDVQQGEwJNWTEN
MAsGA1UECBMETUFIQTENMAsGA1UEBxMEUFVORTENMAsGA1UEChMEUFNQTDERMA8G
A1UECxMIT0JMSVgtUUExDzANBgNVBAMTBnBzMjQzNjEdMBsGCSqGSIb3DQEJARYO
c2FnYXJAcHNwbC5jb20wHhcNMDkwMjAyMTEwMjQwWhcNMTAwMjAyMTEwMjQwWjBr
MQswCQYDVQQGEwJJTjENMAsGA1UECBMETWFoYTENMAsGA1UEBxMEUHVuZTEMMAoG
A1UEChMDUFNMMQ4wDAYDVQQLEwVPYmxpeDEgMB4GA1UEAxMXcHMzODQ4LnBlcnNp
c3RlbnQuY28uaW4wgZ8wDQYJKoZIhvcNAQEBBQADgY0AMIGJAoGBAOzumhZYA2+B
rmS7IdqSgxwXxsO9JthoB5RXYqCip5KLgI0XwqFHmnEVK8+U9V3yF+e+YRRbuomf
1lyPQ6732mtLsMHnnnqE92YUqCeI6W7rujWrKJ7UxEZJUaZg5miOiCeoNM3HAU6b
x/oWucFERcFRoTy2IYFgScWxbVLGm/QxAgMBAAGjZzBlMB8GA1UdIwQYMBaAFNv4
ahUKglMfwuvM0G6DclfkRfJ0MDQGA1UdJQQtMCsGCCsGAQUFBwMBBggrBgEFBQcD
AgYKKwYBBAGCNwoDAwYJYIZIAYb4QgQBMAwGA1UdEwEB/wQCMAAwDQYJKoZIhvcN
AQEEBQADgYEAGOjzt47ofgbF17Dqw78p/+iQsEJ8CWZzsG1nHD1+fzssmtv7wyfk
3eIfNn4aYIEc7edMruAMIP7GHYXIuqyR0WTVgA/rWkLNdRIiFJ2wUq7B9d9jg/Xg
wWEN9m8uVno12rM8lQkMCCbZPffCabYs5XzlnsVGEcDpiBniknDpxlw=
-----END CERTIFICATE-----
