Certificate:
    Data:
        Version: 3 (0x2)
        Serial Number: 92 (0x5c)
        Signature Algorithm: md5WithRSAEncryption
        Issuer: C=MY, ST=MAHA, L=PUNE, O=PSPL, OU=OBLIX-QA, CN=ps2436/emailAddress=sagar@pspl.com
        Validity
            Not Before: Feb  3 10:17:47 2009 GMT
            Not After : Feb  3 10:17:47 2010 GMT
        Subject: C=US, ST=California, L=us, O=oracle, OU=oracle, CN=ps6663
        Subject Public Key Info:
            Public Key Algorithm: rsaEncryption
            RSA Public Key: (1024 bit)
                Modulus (1024 bit):
                    00:aa:b8:23:76:c2:0f:d3:8a:73:30:fb:89:61:f1:
                    b5:db:8a:f5:cf:ed:e2:fd:20:a8:7b:ad:3a:17:46:
                    d4:4c:0e:5e:80:9c:58:61:07:4b:fe:a3:1d:8e:d0:
                    2e:03:90:ef:24:b2:ee:ad:76:91:e1:ce:31:e2:d4:
                    ae:f6:33:0f:9f:2a:88:3d:9f:2a:06:e6:30:85:6a:
                    25:d1:2e:c2:8e:0a:58:15:03:1e:b9:70:39:7f:c5:
                    b5:b9:d8:88:94:d2:4d:79:7d:ec:1f:68:fe:f7:40:
                    51:06:14:09:20:a2:fc:a4:3c:c1:63:1b:3a:a0:5d:
                    be:bd:5b:e2:20:8f:12:e4:3d
                Exponent: 65537 (0x10001)
        X509v3 extensions:
            X509v3 Authority Key Identifier: 
            keyid:DB:F8:6A:15:0A:82:53:1F:C2:EB:CC:D0:6E:83:72:57:E4:45:F2:74

            X509v3 Extended Key Usage: 
            TLS Web Server Authentication, TLS Web Client Authentication, Microsoft Server Gated Crypto, Netscape Server Gated Crypto
            X509v3 Basic Constraints: critical
            CA:FALSE
    Signature Algorithm: md5WithRSAEncryption
        50:fb:10:9b:f0:ff:e7:67:36:7b:0d:a7:19:d9:5f:06:91:c7:
        a4:17:51:4a:1c:25:ec:fe:6b:cb:8f:d1:ce:4f:12:05:29:07:
        bd:93:66:48:f7:47:d8:25:fb:67:d6:e2:0a:e3:71:48:48:f4:
        ab:a6:41:f4:fd:49:70:41:c4:9c:9d:66:1f:cf:12:40:83:88:
        60:80:bc:5a:b9:66:77:66:71:ba:f9:e6:d9:ef:9b:bb:3f:98:
        7b:e2:15:8e:34:72:07:2d:77:47:cd:f5:00:25:21:81:01:d8:
        b2:ce:5a:17:ef:ca:15:6b:d0:83:9b:00:af:a5:68:d5:97:53:
        cf:a3
-----BEGIN CERTIFICATE-----
MIICvDCCAiWgAwIBAgIBXDANBgkqhkiG9w0BAQQFADB9MQswCQYDVQQGEwJNWTEN
MAsGA1UECBMETUFIQTENMAsGA1UEBxMEUFVORTENMAsGA1UEChMEUFNQTDERMA8G
A1UECxMIT0JMSVgtUUExDzANBgNVBAMTBnBzMjQzNjEdMBsGCSqGSIb3DQEJARYO
c2FnYXJAcHNwbC5jb20wHhcNMDkwMjAzMTAxNzQ3WhcNMTAwMjAzMTAxNzQ3WjBi
MQswCQYDVQQGEwJVUzETMBEGA1UECBMKQ2FsaWZvcm5pYTELMAkGA1UEBxMCdXMx
DzANBgNVBAoTBm9yYWNsZTEPMA0GA1UECxMGb3JhY2xlMQ8wDQYDVQQDEwZwczY2
NjMwgZ8wDQYJKoZIhvcNAQEBBQADgY0AMIGJAoGBAKq4I3bCD9OKczD7iWHxtduK
9c/t4v0gqHutOhdG1EwOXoCcWGEHS/6jHY7QLgOQ7ySy7q12keHOMeLUrvYzD58q
iD2fKgbmMIVqJdEuwo4KWBUDHrlwOX/FtbnYiJTSTXl97B9o/vdAUQYUCSCi/KQ8
wWMbOqBdvr1b4iCPEuQ9AgMBAAGjZzBlMB8GA1UdIwQYMBaAFNv4ahUKglMfwuvM
0G6DclfkRfJ0MDQGA1UdJQQtMCsGCCsGAQUFBwMBBggrBgEFBQcDAgYKKwYBBAGC
NwoDAwYJYIZIAYb4QgQBMAwGA1UdEwEB/wQCMAAwDQYJKoZIhvcNAQEEBQADgYEA
UPsQm/D/52c2ew2nGdlfBpHHpBdRShwl7P5ry4/Rzk8SBSkHvZNmSPdH2CX7Z9bi
CuNxSEj0q6ZB9P1JcEHEnJ1mH88SQIOIYIC8Wrlmd2Zxuvnm2e+buz+Ye+IVjjRy
By13R831ACUhgQHYss5aF+/KFWvQg5sAr6Vo1ZdTz6M=
-----END CERTIFICATE-----
