Certificate:
    Data:
        Version: 3 (0x2)
        Serial Number: 94 (0x5e)
        Signature Algorithm: md5WithRSAEncryption
        Issuer: C=MY, ST=MAHA, L=PUNE, O=PSPL, OU=OBLIX-QA, CN=ps2436/emailAddress=sagar@pspl.com
        Validity
            Not Before: Feb 10 11:45:26 2009 GMT
            Not After : Feb 10 11:45:26 2010 GMT
        Subject: CN=Rohit Valiveti/emailAddress=user1k1@company.com
        Subject Public Key Info:
            Public Key Algorithm: rsaEncryption
            RSA Public Key: (1024 bit)
                Modulus (1024 bit):
                    00:c5:f4:a4:e7:ee:c2:fc:b9:a0:21:ef:af:2b:b7:
                    18:f9:6d:60:a4:8a:32:ff:6a:3e:5b:78:e6:56:9f:
                    58:43:bd:0e:e5:98:14:0e:b7:1e:d9:4d:31:fc:15:
                    69:25:e4:55:dc:7e:17:64:b4:a7:02:ca:16:d8:77:
                    17:4e:a7:38:25:67:8d:0b:0b:e8:23:7b:48:7f:50:
                    fe:81:d3:0f:22:0c:23:62:55:68:42:99:c4:35:ef:
                    bd:78:8e:8b:61:4a:c8:41:3a:77:36:7a:88:58:a6:
                    86:9f:d4:ec:85:09:20:33:92:f5:5f:12:e5:9f:57:
                    c4:23:40:d1:41:15:7a:61:7f
                Exponent: 65537 (0x10001)
        X509v3 extensions:
            X509v3 Subject Alternative Name: 
            email:user1k1@company.com
            X509v3 Basic Constraints: critical
            CA:FALSE
            X509v3 Authority Key Identifier: 
            keyid:DB:F8:6A:15:0A:82:53:1F:C2:EB:CC:D0:6E:83:72:57:E4:45:F2:74

            X509v3 Extended Key Usage: 
            TLS Web Client Authentication, E-mail Protection
    Signature Algorithm: md5WithRSAEncryption
        36:36:b5:a5:37:43:52:23:8c:c6:fd:f5:db:67:07:36:9e:c4:
        a6:7b:3c:35:53:1e:44:e2:9e:06:16:aa:00:d5:b5:87:fc:cd:
        f3:7c:9f:38:92:53:6f:37:32:f9:c7:7d:2c:f7:c3:12:67:e1:
        8b:75:ef:c2:2a:3f:36:fe:2c:25:5b:d7:f7:92:21:a6:fb:0b:
        42:19:b9:c4:88:7f:4b:21:53:00:77:e5:a8:44:b3:a5:b8:4f:
        03:07:98:c2:c5:52:93:a4:94:cb:ba:5d:93:8e:f6:5c:5d:9a:
        4c:42:0c:b3:de:e7:7b:ea:38:a6:d6:cb:dd:3b:08:d6:6d:95:
        1f:97
-----BEGIN CERTIFICATE-----
MIICoDCCAgmgAwIBAgIBXjANBgkqhkiG9w0BAQQFADB9MQswCQYDVQQGEwJNWTEN
MAsGA1UECBMETUFIQTENMAsGA1UEBxMEUFVORTENMAsGA1UEChMEUFNQTDERMA8G
A1UECxMIT0JMSVgtUUExDzANBgNVBAMTBnBzMjQzNjEdMBsGCSqGSIb3DQEJARYO
c2FnYXJAcHNwbC5jb20wHhcNMDkwMjEwMTE0NTI2WhcNMTAwMjEwMTE0NTI2WjA9
MRcwFQYDVQQDEw5Sb2hpdCBWYWxpdmV0aTEiMCAGCSqGSIb3DQEJARYTdXNlcjFr
MUBjb21wYW55LmNvbTCBnzANBgkqhkiG9w0BAQEFAAOBjQAwgYkCgYEAxfSk5+7C
/LmgIe+vK7cY+W1gpIoy/2o+W3jmVp9YQ70O5ZgUDrce2U0x/BVpJeRV3H4XZLSn
AsoW2HcXTqc4JWeNCwvoI3tIf1D+gdMPIgwjYlVoQpnENe+9eI6LYUrIQTp3NnqI
WKaGn9TshQkgM5L1XxLln1fEI0DRQRV6YX8CAwEAAaNwMG4wHgYDVR0RBBcwFYET
dXNlcjFrMUBjb21wYW55LmNvbTAMBgNVHRMBAf8EAjAAMB8GA1UdIwQYMBaAFNv4
ahUKglMfwuvM0G6DclfkRfJ0MB0GA1UdJQQWMBQGCCsGAQUFBwMCBggrBgEFBQcD
BDANBgkqhkiG9w0BAQQFAAOBgQA2NrWlN0NSI4zG/fXbZwc2nsSmezw1Ux5E4p4G
FqoA1bWH/M3zfJ84klNvNzL5x30s98MSZ+GLde/CKj82/iwlW9f3kiGm+wtCGbnE
iH9LIVMAd+WoRLOluE8DB5jCxVKTpJTLul2TjvZcXZpMQgyz3ud76jim1svdOwjW
bZUflw==
-----END CERTIFICATE-----
