Certificate:
    Data:
        Version: 3 (0x2)
        Serial Number: 96 (0x60)
        Signature Algorithm: md5WithRSAEncryption
        Issuer: C=MY, ST=MAHA, L=PUNE, O=PSPL, OU=OBLIX-QA, CN=ps2436/emailAddress=sagar@pspl.com
        Validity
            Not Before: Feb 14 06:31:34 2009 GMT
            Not After : Feb 14 06:31:34 2010 GMT
        Subject: CN=Rohit Valiveti/emailAddress=user1k1@Company.com
        Subject Public Key Info:
            Public Key Algorithm: rsaEncryption
            RSA Public Key: (1024 bit)
                Modulus (1024 bit):
                    00:a9:68:9d:aa:8b:0d:6b:4e:29:93:ed:a4:2a:8f:
                    85:2f:95:c3:e7:b3:e1:61:92:a1:6c:4c:cf:5e:03:
                    41:52:8b:2c:fb:5d:27:6a:c8:1c:91:a4:53:a0:1c:
                    6c:74:79:33:d0:05:76:56:46:93:52:d2:bb:7b:11:
                    94:b9:16:c5:f5:0e:7e:43:ae:ed:51:18:9f:6e:59:
                    84:1d:86:6f:1c:46:19:34:50:8e:f8:68:36:0e:ca:
                    0e:e7:89:c6:db:63:0b:33:a0:58:af:73:08:69:cc:
                    78:32:4a:06:fd:0b:ff:f8:9a:e9:af:23:94:6b:a7:
                    08:99:aa:0d:93:46:0c:84:05
                Exponent: 65537 (0x10001)
        X509v3 extensions:
            X509v3 Subject Alternative Name: 
            email:user1k1@Company.com
            X509v3 Basic Constraints: critical
            CA:FALSE
            X509v3 Authority Key Identifier: 
            keyid:DB:F8:6A:15:0A:82:53:1F:C2:EB:CC:D0:6E:83:72:57:E4:45:F2:74

            X509v3 Extended Key Usage: 
            TLS Web Client Authentication, E-mail Protection
    Signature Algorithm: md5WithRSAEncryption
        b5:2b:4a:fb:2d:58:50:ff:81:ae:87:18:66:b5:e2:77:bb:ec:
        92:c8:1e:27:8e:8a:4b:1b:74:49:d2:27:5f:df:d1:bd:36:23:
        43:2d:53:4e:43:95:06:f8:c9:19:0c:3e:be:d3:e5:07:e0:1c:
        87:b7:33:c6:87:e7:a4:8f:f7:95:d3:24:c6:1c:bc:8d:e7:7b:
        4e:dc:a5:45:c3:53:30:2b:ca:7d:88:04:0f:c3:ed:36:2a:81:
        31:fa:db:7d:5b:91:c3:a5:b8:8e:99:5c:2f:62:4c:61:f3:bc:
        e8:33:40:4a:40:ff:ba:dd:ce:ee:95:15:dd:6f:4a:6c:b7:3b:
        c4:cb
-----BEGIN CERTIFICATE-----
MIICoDCCAgmgAwIBAgIBYDANBgkqhkiG9w0BAQQFADB9MQswCQYDVQQGEwJNWTEN
MAsGA1UECBMETUFIQTENMAsGA1UEBxMEUFVORTENMAsGA1UEChMEUFNQTDERMA8G
A1UECxMIT0JMSVgtUUExDzANBgNVBAMTBnBzMjQzNjEdMBsGCSqGSIb3DQEJARYO
c2FnYXJAcHNwbC5jb20wHhcNMDkwMjE0MDYzMTM0WhcNMTAwMjE0MDYzMTM0WjA9
MRcwFQYDVQQDEw5Sb2hpdCBWYWxpdmV0aTEiMCAGCSqGSIb3DQEJARYTdXNlcjFr
MUBDb21wYW55LmNvbTCBnzANBgkqhkiG9w0BAQEFAAOBjQAwgYkCgYEAqWidqosN
a04pk+2kKo+FL5XD57PhYZKhbEzPXgNBUoss+10nasgckaRToBxsdHkz0AV2VkaT
UtK7exGUuRbF9Q5+Q67tURifblmEHYZvHEYZNFCO+Gg2DsoO54nG22MLM6BYr3MI
acx4MkoG/Qv/+JrpryOUa6cImaoNk0YMhAUCAwEAAaNwMG4wHgYDVR0RBBcwFYET
dXNlcjFrMUBDb21wYW55LmNvbTAMBgNVHRMBAf8EAjAAMB8GA1UdIwQYMBaAFNv4
ahUKglMfwuvM0G6DclfkRfJ0MB0GA1UdJQQWMBQGCCsGAQUFBwMCBggrBgEFBQcD
BDANBgkqhkiG9w0BAQQFAAOBgQC1K0r7LVhQ/4GuhxhmteJ3u+ySyB4njopLG3RJ
0idf39G9NiNDLVNOQ5UG+MkZDD6+0+UH4ByHtzPGh+ekj/eV0yTGHLyN53tO3KVF
w1MwK8p9iAQPw+02KoEx+tt9W5HDpbiOmVwvYkxh87zoM0BKQP+63c7ulRXdb0ps
tzvEyw==
-----END CERTIFICATE-----
