Certificate:
    Data:
        Version: 3 (0x2)
        Serial Number: 97 (0x61)
        Signature Algorithm: md5WithRSAEncryption
        Issuer: C=MY, ST=MAHA, L=PUNE, O=PSPL, OU=OBLIX-QA, CN=ps2436/emailAddress=sagar@pspl.com
        Validity
            Not Before: Feb 17 09:35:01 2009 GMT
            Not After : Feb 17 09:35:01 2010 GMT
        Subject: C=IN, ST=maha, L=pune, O=psl, OU=oblix, CN=v-ps4572-v3.persistent.co.in
        Subject Public Key Info:
            Public Key Algorithm: rsaEncryption
            RSA Public Key: (1024 bit)
                Modulus (1024 bit):
                    00:b9:6b:a0:67:13:b6:ce:0d:dc:7f:39:77:a4:18:
                    1e:d6:b9:5b:ea:20:fc:76:35:7a:26:98:49:9d:66:
                    14:83:28:8e:a0:15:fc:6c:d6:5c:6d:22:38:b5:74:
                    fc:85:75:1d:ed:65:2d:ab:56:fc:d1:e8:ef:ed:77:
                    ef:47:48:d0:af:2b:13:a5:d6:c4:e4:0f:21:1c:5d:
                    8a:08:14:73:4c:64:fb:d6:40:ca:f2:a0:04:c9:34:
                    11:25:b4:8b:cb:de:dc:27:2d:11:88:73:7d:12:87:
                    56:a5:62:62:24:91:0c:a6:47:ef:82:d0:f0:66:e6:
                    b0:f9:3d:9e:1b:16:3c:d1:35
                Exponent: 65537 (0x10001)
        X509v3 extensions:
            X509v3 Authority Key Identifier: 
            keyid:DB:F8:6A:15:0A:82:53:1F:C2:EB:CC:D0:6E:83:72:57:E4:45:F2:74

            X509v3 Extended Key Usage: 
            TLS Web Server Authentication, TLS Web Client Authentication, Microsoft Server Gated Crypto, Netscape Server Gated Crypto
            X509v3 Basic Constraints: critical
            CA:FALSE
    Signature Algorithm: md5WithRSAEncryption
        7d:9d:00:a7:02:83:96:18:56:b9:ba:6d:b9:4b:5d:de:26:a7:
        8b:bb:49:27:60:88:a1:59:57:89:5b:44:cd:47:b1:18:63:7e:
        7a:2a:29:41:be:f2:9a:1b:ab:21:a0:a5:72:f5:f8:3d:14:95:
        55:92:26:cd:38:d2:50:4f:0c:bf:b0:cb:b5:d0:d7:00:f0:c7:
        db:bf:a6:db:e6:dc:fd:53:e9:6d:91:07:78:eb:de:fa:3e:b3:
        65:b5:da:5e:fd:97:14:e4:b6:92:9a:ce:e1:13:2c:bf:e9:ab:
        1b:36:8a:72:ab:ee:cd:ea:e5:96:63:1f:cb:9d:9f:a8:11:c8:
        2a:f4
-----BEGIN CERTIFICATE-----
MIICyjCCAjOgAwIBAgIBYTANBgkqhkiG9w0BAQQFADB9MQswCQYDVQQGEwJNWTEN
MAsGA1UECBMETUFIQTENMAsGA1UEBxMEUFVORTENMAsGA1UEChMEUFNQTDERMA8G
A1UECxMIT0JMSVgtUUExDzANBgNVBAMTBnBzMjQzNjEdMBsGCSqGSIb3DQEJARYO
c2FnYXJAcHNwbC5jb20wHhcNMDkwMjE3MDkzNTAxWhcNMTAwMjE3MDkzNTAxWjBw
MQswCQYDVQQGEwJJTjENMAsGA1UECBMEbWFoYTENMAsGA1UEBxMEcHVuZTEMMAoG
A1UEChMDcHNsMQ4wDAYDVQQLEwVvYmxpeDElMCMGA1UEAxMcdi1wczQ1NzItdjMu
cGVyc2lzdGVudC5jby5pbjCBnzANBgkqhkiG9w0BAQEFAAOBjQAwgYkCgYEAuWug
ZxO2zg3cfzl3pBge1rlb6iD8djV6JphJnWYUgyiOoBX8bNZcbSI4tXT8hXUd7WUt
q1b80ejv7XfvR0jQrysTpdbE5A8hHF2KCBRzTGT71kDK8qAEyTQRJbSLy97cJy0R
iHN9EodWpWJiJJEMpkfvgtDwZuaw+T2eGxY80TUCAwEAAaNnMGUwHwYDVR0jBBgw
FoAU2/hqFQqCUx/C68zQboNyV+RF8nQwNAYDVR0lBC0wKwYIKwYBBQUHAwEGCCsG
AQUFBwMCBgorBgEEAYI3CgMDBglghkgBhvhCBAEwDAYDVR0TAQH/BAIwADANBgkq
hkiG9w0BAQQFAAOBgQB9nQCnAoOWGFa5um25S13eJqeLu0knYIihWVeJW0TNR7EY
Y356KilBvvKaG6shoKVy9fg9FJVVkibNONJQTwy/sMu10NcA8Mfbv6bb5tz9U+lt
kQd46976PrNltdpe/ZcU5LaSms7hEyy/6asbNopyq+7N6uWWYx/LnZ+oEcgq9A==
-----END CERTIFICATE-----
