Certificate:
    Data:
        Version: 3 (0x2)
        Serial Number: 99 (0x63)
        Signature Algorithm: md5WithRSAEncryption
        Issuer: C=MY, ST=MAHA, L=PUNE, O=PSPL, OU=OBLIX-QA, CN=ps2436/emailAddress=sagar@pspl.com
        Validity
            Not Before: Feb 17 10:54:25 2009 GMT
            Not After : Feb 17 10:54:25 2010 GMT
        Subject: CN=Van Oman/emailAddress=user1k7@Company.com
        Subject Public Key Info:
            Public Key Algorithm: rsaEncryption
            RSA Public Key: (1024 bit)
                Modulus (1024 bit):
                    00:d3:52:e9:5d:3d:e2:9e:a6:ab:1d:7e:5a:2b:66:
                    65:a7:70:51:68:ef:38:52:5b:16:d9:b1:7a:23:d6:
                    96:2d:d9:28:b0:04:f4:c2:ac:70:4e:68:00:66:78:
                    28:dc:17:81:5a:e6:87:93:74:48:89:70:b4:82:99:
                    0a:dd:23:50:a7:4a:fc:cd:02:98:2f:00:8c:09:12:
                    48:39:78:01:a0:60:8f:75:2b:41:87:f5:0e:6b:c5:
                    d3:59:9b:f7:58:89:06:95:ee:75:3f:54:0b:19:bc:
                    05:b0:a6:4b:c7:dd:4c:a8:74:e2:ea:fe:cb:69:bd:
                    8d:6c:e6:bf:a5:35:92:93:07
                Exponent: 65537 (0x10001)
        X509v3 extensions:
            X509v3 Subject Alternative Name: 
            email:user1k7@Company.com
            X509v3 Basic Constraints: critical
            CA:FALSE
            X509v3 Authority Key Identifier: 
            keyid:DB:F8:6A:15:0A:82:53:1F:C2:EB:CC:D0:6E:83:72:57:E4:45:F2:74

            X509v3 Extended Key Usage: 
            TLS Web Client Authentication, E-mail Protection
    Signature Algorithm: md5WithRSAEncryption
        15:6d:a5:3b:32:cc:36:5d:bd:8a:ce:a6:29:d4:d6:d9:bd:b3:
        a1:85:5b:06:4c:b6:87:25:37:95:d2:55:15:40:0b:4c:af:7f:
        38:31:ab:3d:8d:58:f1:58:58:95:e5:e6:96:75:a0:5c:69:c4:
        99:38:65:dc:09:ae:2d:94:6c:bc:27:e2:02:0f:4f:73:2b:23:
        1c:29:b5:92:17:76:22:69:43:d4:f2:2a:1d:4c:e0:37:fb:30:
        71:0e:11:f2:a5:5d:69:a7:4b:33:6d:9c:e0:45:99:85:b9:a4:
        e9:71:84:17:9e:b1:95:8b:33:94:03:c6:f8:1b:41:4a:f8:34:
        db:13
-----BEGIN CERTIFICATE-----
MIICmjCCAgOgAwIBAgIBYzANBgkqhkiG9w0BAQQFADB9MQswCQYDVQQGEwJNWTEN
MAsGA1UECBMETUFIQTENMAsGA1UEBxMEUFVORTENMAsGA1UEChMEUFNQTDERMA8G
A1UECxMIT0JMSVgtUUExDzANBgNVBAMTBnBzMjQzNjEdMBsGCSqGSIb3DQEJARYO
c2FnYXJAcHNwbC5jb20wHhcNMDkwMjE3MTA1NDI1WhcNMTAwMjE3MTA1NDI1WjA3
MREwDwYDVQQDEwhWYW4gT21hbjEiMCAGCSqGSIb3DQEJARYTdXNlcjFrN0BDb21w
YW55LmNvbTCBnzANBgkqhkiG9w0BAQEFAAOBjQAwgYkCgYEA01LpXT3inqarHX5a
K2Zlp3BRaO84UlsW2bF6I9aWLdkosAT0wqxwTmgAZngo3BeBWuaHk3RIiXC0gpkK
3SNQp0r8zQKYLwCMCRJIOXgBoGCPdStBh/UOa8XTWZv3WIkGle51P1QLGbwFsKZL
x91MqHTi6v7Lab2NbOa/pTWSkwcCAwEAAaNwMG4wHgYDVR0RBBcwFYETdXNlcjFr
N0BDb21wYW55LmNvbTAMBgNVHRMBAf8EAjAAMB8GA1UdIwQYMBaAFNv4ahUKglMf
wuvM0G6DclfkRfJ0MB0GA1UdJQQWMBQGCCsGAQUFBwMCBggrBgEFBQcDBDANBgkq
hkiG9w0BAQQFAAOBgQAVbaU7Msw2Xb2KzqYp1NbZvbOhhVsGTLaHJTeV0lUVQAtM
r384Mas9jVjxWFiV5eaWdaBcacSZOGXcCa4tlGy8J+ICD09zKyMcKbWSF3YiaUPU
8iodTOA3+zBxDhHypV1pp0szbZzgRZmFuaTpcYQXnrGVizOUA8b4G0FK+DTbEw==
-----END CERTIFICATE-----
