Certificate:
    Data:
        Version: 3 (0x2)
        Serial Number: 100 (0x64)
        Signature Algorithm: md5WithRSAEncryption
        Issuer: C=MY, ST=MAHA, L=PUNE, O=PSPL, OU=OBLIX-QA, CN=ps2436/emailAddress=sagar@pspl.com
        Validity
            Not Before: Feb 18 05:43:43 2009 GMT
            Not After : Feb 18 05:43:43 2010 GMT
        Subject: C=In, ST=maha, L=Pune, O=Pspl, OU=Oblix, CN=ps2633.persistent.co.in
        Subject Public Key Info:
            Public Key Algorithm: rsaEncryption
            RSA Public Key: (1024 bit)
                Modulus (1024 bit):
                    00:c5:58:d4:1f:0e:70:e4:85:92:54:27:8f:2a:e1:
                    13:72:79:00:02:93:38:31:ba:85:0a:0a:df:90:db:
                    b8:7f:7b:f4:b7:aa:89:bb:4e:6f:8c:54:ee:f0:b5:
                    db:6b:78:4d:e4:8d:0e:49:30:37:44:a0:af:e9:79:
                    20:05:2e:7a:d8:74:d5:19:61:72:b5:82:48:08:4f:
                    ed:af:bc:a5:58:51:80:73:79:6c:73:7b:36:17:b6:
                    a8:55:f5:1c:76:10:46:6f:29:47:77:d7:cd:4a:a7:
                    3e:98:75:f1:8d:42:c6:c8:db:59:51:89:1d:76:77:
                    6f:26:6b:29:d6:a2:5c:4f:4b
                Exponent: 65537 (0x10001)
        X509v3 extensions:
            X509v3 Authority Key Identifier: 
            keyid:DB:F8:6A:15:0A:82:53:1F:C2:EB:CC:D0:6E:83:72:57:E4:45:F2:74

            X509v3 Extended Key Usage: 
            TLS Web Server Authentication, TLS Web Client Authentication, Microsoft Server Gated Crypto, Netscape Server Gated Crypto
            X509v3 Basic Constraints: critical
            CA:FALSE
    Signature Algorithm: md5WithRSAEncryption
        ad:14:fd:c2:20:5f:90:3d:89:ad:d9:73:7c:94:a6:f3:39:25:
        8e:79:5c:47:cf:83:7e:ac:d4:93:f1:f7:f4:1a:9f:70:c6:28:
        63:03:96:af:53:b7:be:b8:5a:6e:b6:e0:6e:44:70:a0:44:bf:
        11:74:b4:6d:ac:44:e4:45:2e:0c:5c:ec:2f:d4:db:4a:97:0c:
        7f:06:ee:0f:78:28:02:41:8b:ee:43:11:e7:2b:cb:aa:b6:07:
        57:bf:92:4e:22:07:b9:34:f0:31:25:19:7e:5e:a9:8a:df:46:
        67:43:46:9c:9c:72:70:f4:2c:0a:fb:a2:d2:37:ed:ec:1f:b3:
        45:2b
-----BEGIN CERTIFICATE-----
MIICxjCCAi+gAwIBAgIBZDANBgkqhkiG9w0BAQQFADB9MQswCQYDVQQGEwJNWTEN
MAsGA1UECBMETUFIQTENMAsGA1UEBxMEUFVORTENMAsGA1UEChMEUFNQTDERMA8G
A1UECxMIT0JMSVgtUUExDzANBgNVBAMTBnBzMjQzNjEdMBsGCSqGSIb3DQEJARYO
c2FnYXJAcHNwbC5jb20wHhcNMDkwMjE4MDU0MzQzWhcNMTAwMjE4MDU0MzQzWjBs
MQswCQYDVQQGEwJJbjENMAsGA1UECBMEbWFoYTENMAsGA1UEBxMEUHVuZTENMAsG
A1UEChMEUHNwbDEOMAwGA1UECxMFT2JsaXgxIDAeBgNVBAMTF3BzMjYzMy5wZXJz
aXN0ZW50LmNvLmluMIGfMA0GCSqGSIb3DQEBAQUAA4GNADCBiQKBgQDFWNQfDnDk
hZJUJ48q4RNyeQACkzgxuoUKCt+Q27h/e/S3qom7Tm+MVO7wtdtreE3kjQ5JMDdE
oK/peSAFLnrYdNUZYXK1gkgIT+2vvKVYUYBzeWxzezYXtqhV9Rx2EEZvKUd3181K
pz6YdfGNQsbI21lRiR12d28maynWolxPSwIDAQABo2cwZTAfBgNVHSMEGDAWgBTb
+GoVCoJTH8LrzNBug3JX5EXydDA0BgNVHSUELTArBggrBgEFBQcDAQYIKwYBBQUH
AwIGCisGAQQBgjcKAwMGCWCGSAGG+EIEATAMBgNVHRMBAf8EAjAAMA0GCSqGSIb3
DQEBBAUAA4GBAK0U/cIgX5A9ia3Zc3yUpvM5JY55XEfPg36s1JPx9/Qan3DGKGMD
lq9Tt764Wm624G5EcKBEvxF0tG2sRORFLgxc7C/U20qXDH8G7g94KAJBi+5DEecr
y6q2B1e/kk4iB7k08DElGX5eqYrfRmdDRpyccnD0LAr7otI37ewfs0Ur
-----END CERTIFICATE-----
