Certificate:
    Data:
        Version: 3 (0x2)
        Serial Number: 101 (0x65)
        Signature Algorithm: md5WithRSAEncryption
        Issuer: C=MY, ST=MAHA, L=PUNE, O=PSPL, OU=OBLIX-QA, CN=ps2436/emailAddress=sagar@pspl.com
        Validity
            Not Before: Feb 20 12:38:15 2009 GMT
            Not After : Feb 20 12:38:15 2010 GMT
        Subject: C=IN, ST=MAHARASHTRA, L=PUNE, O=PSL, OU=ORACLE, CN=ps2261.persistent.co.in/emailAddress=ps2261@psl.com
        Subject Public Key Info:
            Public Key Algorithm: rsaEncryption
            RSA Public Key: (1024 bit)
                Modulus (1024 bit):
                    00:d7:d4:7c:c5:06:e7:91:5b:3d:e4:2b:79:5d:63:
                    7c:76:61:9e:67:3e:37:d8:01:da:0e:bb:b7:0d:97:
                    a4:b2:5d:aa:93:dd:97:73:b0:c8:af:41:4e:03:b5:
                    ce:04:26:d3:25:89:a2:ca:01:47:57:d8:8e:2e:38:
                    aa:a3:90:ef:8d:a7:b9:5a:cb:02:fd:c0:20:82:f0:
                    d6:49:b4:16:9d:aa:2c:4b:09:69:95:4b:d3:0e:c5:
                    e1:9a:66:fa:75:8e:6f:dc:81:3d:32:f3:c6:54:b4:
                    19:20:0f:e1:96:04:9f:3a:90:a3:7b:62:a7:c8:ec:
                    3a:a9:35:32:9b:67:67:fe:53
                Exponent: 65537 (0x10001)
        X509v3 extensions:
            X509v3 Authority Key Identifier: 
            keyid:DB:F8:6A:15:0A:82:53:1F:C2:EB:CC:D0:6E:83:72:57:E4:45:F2:74

            X509v3 Extended Key Usage: 
            TLS Web Server Authentication, TLS Web Client Authentication, Microsoft Server Gated Crypto, Netscape Server Gated Crypto
            X509v3 Basic Constraints: critical
            CA:FALSE
    Signature Algorithm: md5WithRSAEncryption
        45:89:84:57:a7:f3:e2:f6:1a:58:cb:74:9b:70:12:bd:7c:94:
        97:1f:bb:ad:62:57:9c:30:31:08:7d:a4:4a:c5:e0:f8:75:c0:
        83:11:72:e0:56:11:cd:3d:3a:b9:64:8d:08:95:29:97:0d:9b:
        39:eb:1b:8d:9c:79:1b:5a:f1:95:14:f9:a2:3f:76:f4:39:0e:
        d3:ed:55:1c:e7:e1:03:bb:73:14:13:18:29:ae:3f:5e:38:0a:
        7b:e2:d3:52:dd:00:ef:8d:9e:89:b4:cd:3f:ea:41:1d:6c:79:
        39:73:62:6d:27:38:73:6a:4c:e4:c1:6e:0f:4d:a5:cf:51:55:
        21:3a
-----BEGIN CERTIFICATE-----
MIIC7TCCAlagAwIBAgIBZTANBgkqhkiG9w0BAQQFADB9MQswCQYDVQQGEwJNWTEN
MAsGA1UECBMETUFIQTENMAsGA1UEBxMEUFVORTENMAsGA1UEChMEUFNQTDERMA8G
A1UECxMIT0JMSVgtUUExDzANBgNVBAMTBnBzMjQzNjEdMBsGCSqGSIb3DQEJARYO
c2FnYXJAcHNwbC5jb20wHhcNMDkwMjIwMTIzODE1WhcNMTAwMjIwMTIzODE1WjCB
kjELMAkGA1UEBhMCSU4xFDASBgNVBAgTC01BSEFSQVNIVFJBMQ0wCwYDVQQHEwRQ
VU5FMQwwCgYDVQQKEwNQU0wxDzANBgNVBAsTBk9SQUNMRTEgMB4GA1UEAxMXcHMy
MjYxLnBlcnNpc3RlbnQuY28uaW4xHTAbBgkqhkiG9w0BCQEWDnBzMjI2MUBwc2wu
Y29tMIGfMA0GCSqGSIb3DQEBAQUAA4GNADCBiQKBgQDX1HzFBueRWz3kK3ldY3x2
YZ5nPjfYAdoOu7cNl6SyXaqT3ZdzsMivQU4Dtc4EJtMliaLKAUdX2I4uOKqjkO+N
p7laywL9wCCC8NZJtBadqixLCWmVS9MOxeGaZvp1jm/cgT0y88ZUtBkgD+GWBJ86
kKN7YqfI7DqpNTKbZ2f+UwIDAQABo2cwZTAfBgNVHSMEGDAWgBTb+GoVCoJTH8Lr
zNBug3JX5EXydDA0BgNVHSUELTArBggrBgEFBQcDAQYIKwYBBQUHAwIGCisGAQQB
gjcKAwMGCWCGSAGG+EIEATAMBgNVHRMBAf8EAjAAMA0GCSqGSIb3DQEBBAUAA4GB
AEWJhFen8+L2GljLdJtwEr18lJcfu61iV5wwMQh9pErF4Ph1wIMRcuBWEc09Orlk
jQiVKZcNmznrG42ceRta8ZUU+aI/dvQ5DtPtVRzn4QO7cxQTGCmuP144Cnvi01Ld
AO+Nnom0zT/qQR1seTlzYm0nOHNqTOTBbg9Npc9RVSE6
-----END CERTIFICATE-----
