Certificate:
    Data:
        Version: 3 (0x2)
        Serial Number: 102 (0x66)
        Signature Algorithm: md5WithRSAEncryption
        Issuer: C=MY, ST=MAHA, L=PUNE, O=PSPL, OU=OBLIX-QA, CN=ps2436/emailAddress=sagar@pspl.com
        Validity
            Not Before: Feb 20 14:12:05 2009 GMT
            Not After : Feb 20 14:12:05 2010 GMT
        Subject: C=US, ST=maha, L=pune, O=oblix, OU=oblix, CN=v-ps4572-v3.persistent.co.in
        Subject Public Key Info:
            Public Key Algorithm: rsaEncryption
            RSA Public Key: (1024 bit)
                Modulus (1024 bit):
                    00:97:ed:35:bd:02:0e:64:c4:08:f0:4c:ee:51:1b:
                    6c:d7:3e:4e:98:f9:8e:f7:a4:65:3f:64:38:8a:9f:
                    86:31:ce:e7:2b:99:29:a8:7f:26:be:2f:b1:0b:8f:
                    64:88:9e:76:bc:49:3f:d8:7b:2b:37:b3:47:08:cd:
                    cb:b4:de:e1:56:db:34:ac:c8:5f:03:d1:62:64:fb:
                    f3:9a:3f:ac:84:38:01:3b:28:80:fd:e1:fb:61:fe:
                    5c:f3:b5:7a:25:48:11:8f:d8:d8:00:f6:24:11:89:
                    36:db:2f:cb:41:fb:67:94:86:f3:ea:76:c0:66:6f:
                    a9:a3:08:61:d4:0a:5a:30:53
                Exponent: 65537 (0x10001)
        X509v3 extensions:
            X509v3 Authority Key Identifier: 
            keyid:DB:F8:6A:15:0A:82:53:1F:C2:EB:CC:D0:6E:83:72:57:E4:45:F2:74

            X509v3 Extended Key Usage: 
            TLS Web Server Authentication, TLS Web Client Authentication, Microsoft Server Gated Crypto, Netscape Server Gated Crypto
            X509v3 Basic Constraints: critical
            CA:FALSE
    Signature Algorithm: md5WithRSAEncryption
        87:5c:92:ae:51:e3:78:ab:07:c3:97:79:d5:fa:24:a7:ba:9b:
        7e:2c:25:68:65:50:cf:e9:2d:da:ef:5a:21:0c:06:e7:6f:a2:
        ab:90:44:d8:c7:d7:a6:2b:a8:28:6d:44:9b:7a:2d:af:9e:8b:
        d0:2f:08:57:2b:ef:05:c0:f4:ef:5e:1f:0d:83:81:58:99:95:
        64:4a:a7:e3:3f:7c:1f:61:56:ff:bf:51:53:8d:0d:15:3f:1b:
        c5:96:bf:c8:12:d9:e6:3c:c5:29:55:73:6d:8c:11:e7:ae:c0:
        28:69:a5:ae:93:65:f9:5c:91:24:fc:fd:0a:18:3a:70:fe:e6:
        ab:1e
-----BEGIN CERTIFICATE-----
MIICzDCCAjWgAwIBAgIBZjANBgkqhkiG9w0BAQQFADB9MQswCQYDVQQGEwJNWTEN
MAsGA1UECBMETUFIQTENMAsGA1UEBxMEUFVORTENMAsGA1UEChMEUFNQTDERMA8G
A1UECxMIT0JMSVgtUUExDzANBgNVBAMTBnBzMjQzNjEdMBsGCSqGSIb3DQEJARYO
c2FnYXJAcHNwbC5jb20wHhcNMDkwMjIwMTQxMjA1WhcNMTAwMjIwMTQxMjA1WjBy
MQswCQYDVQQGEwJVUzENMAsGA1UECBMEbWFoYTENMAsGA1UEBxMEcHVuZTEOMAwG
A1UEChMFb2JsaXgxDjAMBgNVBAsTBW9ibGl4MSUwIwYDVQQDExx2LXBzNDU3Mi12
My5wZXJzaXN0ZW50LmNvLmluMIGfMA0GCSqGSIb3DQEBAQUAA4GNADCBiQKBgQCX
7TW9Ag5kxAjwTO5RG2zXPk6Y+Y73pGU/ZDiKn4YxzucrmSmofya+L7ELj2SInna8
ST/Yeys3s0cIzcu03uFW2zSsyF8D0WJk+/OaP6yEOAE7KID94fth/lzztXolSBGP
2NgA9iQRiTbbL8tB+2eUhvPqdsBmb6mjCGHUClowUwIDAQABo2cwZTAfBgNVHSME
GDAWgBTb+GoVCoJTH8LrzNBug3JX5EXydDA0BgNVHSUELTArBggrBgEFBQcDAQYI
KwYBBQUHAwIGCisGAQQBgjcKAwMGCWCGSAGG+EIEATAMBgNVHRMBAf8EAjAAMA0G
CSqGSIb3DQEBBAUAA4GBAIdckq5R43irB8OXedX6JKe6m34sJWhlUM/pLdrvWiEM
BudvoquQRNjH16YrqChtRJt6La+ei9AvCFcr7wXA9O9eHw2DgViZlWRKp+M/fB9h
Vv+/UVONDRU/G8WWv8gS2eY8xSlVc22MEeeuwChppa6TZflckST8/QoYOnD+5qse
-----END CERTIFICATE-----
