Certificate:
    Data:
        Version: 3 (0x2)
        Serial Number: 103 (0x67)
        Signature Algorithm: md5WithRSAEncryption
        Issuer: C=MY, ST=MAHA, L=PUNE, O=PSPL, OU=OBLIX-QA, CN=ps2436/emailAddress=sagar@pspl.com
        Validity
            Not Before: Feb 25 06:40:50 2009 GMT
            Not After : Feb 25 06:40:50 2010 GMT
        Subject: C=IN, ST=maharashtra, L=pune, O=psl, OU=oblix, CN=ps5747.persistent.co.in
        Subject Public Key Info:
            Public Key Algorithm: rsaEncryption
            RSA Public Key: (1024 bit)
                Modulus (1024 bit):
                    00:b9:b1:df:81:c8:a7:67:97:5f:e9:96:ed:f5:18:
                    a8:f1:96:1e:e0:69:14:16:ce:f4:70:b5:04:cd:2d:
                    c4:95:78:e7:07:3d:4e:af:73:c3:d9:c2:b8:f7:2d:
                    a2:f3:46:2b:76:3f:f6:ac:cc:a9:3b:27:4e:53:a0:
                    d5:aa:79:52:ac:ae:f2:74:0c:11:8d:2d:31:f8:52:
                    e5:31:ae:30:3c:aa:11:81:3c:f2:77:27:fd:2d:98:
                    64:b4:06:85:d9:66:e3:e8:53:b4:da:2c:98:46:23:
                    a2:48:26:e5:17:13:4f:63:b9:3b:7b:6e:79:b7:da:
                    cd:75:dd:1d:fa:3e:c2:6a:2f
                Exponent: 65537 (0x10001)
        X509v3 extensions:
            X509v3 Authority Key Identifier: 
            keyid:DB:F8:6A:15:0A:82:53:1F:C2:EB:CC:D0:6E:83:72:57:E4:45:F2:74

            X509v3 Extended Key Usage: 
            TLS Web Server Authentication, TLS Web Client Authentication, Microsoft Server Gated Crypto, Netscape Server Gated Crypto
            X509v3 Basic Constraints: critical
            CA:FALSE
    Signature Algorithm: md5WithRSAEncryption
        14:11:80:8d:7a:16:12:65:00:7b:ec:7a:45:d5:13:30:64:7b:
        7d:d5:a8:28:bd:a1:88:08:dc:b3:06:f3:30:21:6b:01:e6:57:
        a7:f9:f0:6d:6e:5a:b3:8f:b9:37:15:59:6a:e6:81:4d:09:f4:
        23:cd:f4:56:da:41:49:f0:cd:6b:14:2b:bb:f3:7c:c7:ee:fa:
        a0:fc:0d:4d:b2:17:76:11:3a:cf:3a:7f:5f:1d:96:d2:83:7d:
        9a:02:98:9d:d8:5b:e9:b8:d4:b7:f4:69:28:e2:93:c4:91:a7:
        bb:12:3c:f3:6e:af:a9:48:17:8e:52:08:93:47:75:21:42:e6:
        70:65
-----BEGIN CERTIFICATE-----
MIICzDCCAjWgAwIBAgIBZzANBgkqhkiG9w0BAQQFADB9MQswCQYDVQQGEwJNWTEN
MAsGA1UECBMETUFIQTENMAsGA1UEBxMEUFVORTENMAsGA1UEChMEUFNQTDERMA8G
A1UECxMIT0JMSVgtUUExDzANBgNVBAMTBnBzMjQzNjEdMBsGCSqGSIb3DQEJARYO
c2FnYXJAcHNwbC5jb20wHhcNMDkwMjI1MDY0MDUwWhcNMTAwMjI1MDY0MDUwWjBy
MQswCQYDVQQGEwJJTjEUMBIGA1UECBMLbWFoYXJhc2h0cmExDTALBgNVBAcTBHB1
bmUxDDAKBgNVBAoTA3BzbDEOMAwGA1UECxMFb2JsaXgxIDAeBgNVBAMTF3BzNTc0
Ny5wZXJzaXN0ZW50LmNvLmluMIGfMA0GCSqGSIb3DQEBAQUAA4GNADCBiQKBgQC5
sd+ByKdnl1/plu31GKjxlh7gaRQWzvRwtQTNLcSVeOcHPU6vc8PZwrj3LaLzRit2
P/aszKk7J05ToNWqeVKsrvJ0DBGNLTH4UuUxrjA8qhGBPPJ3J/0tmGS0BoXZZuPo
U7TaLJhGI6JIJuUXE09juTt7bnm32s113R36PsJqLwIDAQABo2cwZTAfBgNVHSME
GDAWgBTb+GoVCoJTH8LrzNBug3JX5EXydDA0BgNVHSUELTArBggrBgEFBQcDAQYI
KwYBBQUHAwIGCisGAQQBgjcKAwMGCWCGSAGG+EIEATAMBgNVHRMBAf8EAjAAMA0G
CSqGSIb3DQEBBAUAA4GBABQRgI16FhJlAHvsekXVEzBke33VqCi9oYgI3LMG8zAh
awHmV6f58G1uWrOPuTcVWWrmgU0J9CPN9FbaQUnwzWsUK7vzfMfu+qD8DU2yF3YR
Os86f18dltKDfZoCmJ3YW+m41Lf0aSjik8SRp7sSPPNur6lIF45SCJNHdSFC5nBl
-----END CERTIFICATE-----
