Certificate:
    Data:
        Version: 3 (0x2)
        Serial Number: 107 (0x6b)
        Signature Algorithm: md5WithRSAEncryption
        Issuer: C=MY, ST=MAHA, L=PUNE, O=PSPL, OU=OBLIX-QA, CN=ps2436/emailAddress=sagar@pspl.com
        Validity
            Not Before: Feb 27 06:39:11 2009 GMT
            Not After : Feb 27 06:39:11 2010 GMT
        Subject: C=IN, ST=MAHARASTRA, L=Pune, O=Persistent, OU=Oblix, CN=kalindi.persistent.co.in
        Subject Public Key Info:
            Public Key Algorithm: rsaEncryption
            RSA Public Key: (1024 bit)
                Modulus (1024 bit):
                    00:a2:7f:91:26:1b:2d:c3:d4:c2:98:b1:75:ab:50:
                    3c:24:4c:40:2e:fe:f0:42:ae:30:80:25:d5:c0:57:
                    81:91:d4:bb:cb:7e:9f:10:99:f7:eb:4b:c7:ae:65:
                    d8:ca:1f:3e:61:19:a9:91:1c:d5:85:60:77:a8:d6:
                    e1:33:22:ef:a6:10:bf:68:28:5b:a8:9f:5a:55:11:
                    86:2d:e7:52:41:3b:cb:b6:d4:9a:66:8a:4d:c1:98:
                    66:7a:1b:16:3b:8f:0b:2f:b7:62:7b:7f:29:04:f9:
                    49:71:c1:ea:4f:c2:b6:a9:e8:69:f5:90:24:ca:2e:
                    04:35:94:91:df:16:e0:76:07
                Exponent: 65537 (0x10001)
        X509v3 extensions:
            X509v3 Authority Key Identifier: 
            keyid:DB:F8:6A:15:0A:82:53:1F:C2:EB:CC:D0:6E:83:72:57:E4:45:F2:74

            X509v3 Extended Key Usage: 
            TLS Web Server Authentication, TLS Web Client Authentication, Microsoft Server Gated Crypto, Netscape Server Gated Crypto
            X509v3 Basic Constraints: critical
            CA:FALSE
    Signature Algorithm: md5WithRSAEncryption
        0c:1b:fd:97:a9:a5:b5:af:39:d2:7c:5a:d5:60:a4:9b:eb:39:
        8d:18:75:fd:d2:24:79:21:c4:bf:79:15:40:a6:14:b0:7a:00:
        e6:2f:ba:ac:c7:ac:a8:6f:f4:e3:89:c5:17:ce:93:4b:95:ae:
        50:82:35:62:38:00:0d:13:91:c2:28:ab:98:ab:7d:df:c9:56:
        e3:1c:24:4f:f1:a2:24:81:d6:58:41:a7:ea:40:76:90:2b:90:
        08:a1:81:61:2b:a4:3c:28:0f:9c:73:b3:c3:52:30:8e:00:09:
        31:da:be:38:e2:1e:8f:c9:c8:25:a0:ed:07:39:50:68:21:4b:
        cc:1d
-----BEGIN CERTIFICATE-----
MIIC0zCCAjygAwIBAgIBazANBgkqhkiG9w0BAQQFADB9MQswCQYDVQQGEwJNWTEN
MAsGA1UECBMETUFIQTENMAsGA1UEBxMEUFVORTENMAsGA1UEChMEUFNQTDERMA8G
A1UECxMIT0JMSVgtUUExDzANBgNVBAMTBnBzMjQzNjEdMBsGCSqGSIb3DQEJARYO
c2FnYXJAcHNwbC5jb20wHhcNMDkwMjI3MDYzOTExWhcNMTAwMjI3MDYzOTExWjB5
MQswCQYDVQQGEwJJTjETMBEGA1UECBMKTUFIQVJBU1RSQTENMAsGA1UEBxMEUHVu
ZTETMBEGA1UEChMKUGVyc2lzdGVudDEOMAwGA1UECxMFT2JsaXgxITAfBgNVBAMT
GGthbGluZGkucGVyc2lzdGVudC5jby5pbjCBnzANBgkqhkiG9w0BAQEFAAOBjQAw
gYkCgYEAon+RJhstw9TCmLF1q1A8JExALv7wQq4wgCXVwFeBkdS7y36fEJn360vH
rmXYyh8+YRmpkRzVhWB3qNbhMyLvphC/aChbqJ9aVRGGLedSQTvLttSaZopNwZhm
ehsWO48LL7die38pBPlJccHqT8K2qehp9ZAkyi4ENZSR3xbgdgcCAwEAAaNnMGUw
HwYDVR0jBBgwFoAU2/hqFQqCUx/C68zQboNyV+RF8nQwNAYDVR0lBC0wKwYIKwYB
BQUHAwEGCCsGAQUFBwMCBgorBgEEAYI3CgMDBglghkgBhvhCBAEwDAYDVR0TAQH/
BAIwADANBgkqhkiG9w0BAQQFAAOBgQAMG/2XqaW1rznSfFrVYKSb6zmNGHX90iR5
IcS/eRVAphSwegDmL7qsx6yob/TjicUXzpNLla5QgjViOAANE5HCKKuYq33fyVbj
HCRP8aIkgdZYQafqQHaQK5AIoYFhK6Q8KA+cc7PDUjCOAAkx2r444h6PycgloO0H
OVBoIUvMHQ==
-----END CERTIFICATE-----
