Certificate:
    Data:
        Version: 3 (0x2)
        Serial Number: 108 (0x6c)
        Signature Algorithm: md5WithRSAEncryption
        Issuer: C=MY, ST=MAHA, L=PUNE, O=PSPL, OU=OBLIX-QA, CN=ps2436/emailAddress=sagar@pspl.com
        Validity
            Not Before: Feb 27 07:02:18 2009 GMT
            Not After : Feb 27 07:02:18 2010 GMT
        Subject: C=IN, ST=MAHARASTRA, L=Pune, O=Persistent, OU=Oblix, CN=kalindi.persistent.co.in
        Subject Public Key Info:
            Public Key Algorithm: rsaEncryption
            RSA Public Key: (1024 bit)
                Modulus (1024 bit):
                    00:c2:78:13:6f:e3:76:68:d8:be:6f:2d:c4:d4:a4:
                    4b:d8:c2:1d:f3:d8:f8:10:e4:19:ff:94:87:8d:b0:
                    55:ed:42:24:c9:20:48:b5:ea:39:e8:21:b5:85:33:
                    b9:f6:a5:b1:a8:ad:90:65:29:a7:64:0f:10:bb:19:
                    da:a6:7f:df:d4:91:45:1b:11:7e:66:9b:f1:85:e0:
                    1b:c4:50:d0:d0:d9:2a:9e:3b:de:18:01:91:62:cb:
                    e1:06:bd:38:fe:82:d6:fc:34:39:20:63:05:36:51:
                    78:50:35:02:3e:7b:54:99:bb:e6:e6:3b:67:98:5b:
                    1d:12:15:1e:ed:71:ef:4e:7f
                Exponent: 65537 (0x10001)
        X509v3 extensions:
            X509v3 Authority Key Identifier: 
            keyid:DB:F8:6A:15:0A:82:53:1F:C2:EB:CC:D0:6E:83:72:57:E4:45:F2:74

            X509v3 Extended Key Usage: 
            TLS Web Server Authentication, TLS Web Client Authentication, Microsoft Server Gated Crypto, Netscape Server Gated Crypto
            X509v3 Basic Constraints: critical
            CA:FALSE
    Signature Algorithm: md5WithRSAEncryption
        8e:36:37:f1:ef:52:0b:26:d7:45:a7:d5:7d:f1:89:e0:b8:7b:
        2f:76:7d:95:03:ec:51:8b:9a:fd:ab:16:59:4e:e5:90:0f:a0:
        37:e8:7f:96:e8:c7:18:8e:d9:e0:08:85:7e:d1:0a:0d:58:e8:
        e3:c4:be:da:b9:ab:ba:8e:89:3c:0f:04:d1:c6:f7:c2:46:ca:
        62:97:25:8a:5b:d3:c2:12:c3:fb:24:f5:9e:f2:34:8b:6a:11:
        54:9a:06:76:6e:34:28:b8:3e:9c:0d:22:3b:6a:1c:ed:91:84:
        65:4c:3e:2c:8c:00:97:3d:df:25:7e:26:08:db:48:33:e3:26:
        23:ff
-----BEGIN CERTIFICATE-----
MIIC0zCCAjygAwIBAgIBbDANBgkqhkiG9w0BAQQFADB9MQswCQYDVQQGEwJNWTEN
MAsGA1UECBMETUFIQTENMAsGA1UEBxMEUFVORTENMAsGA1UEChMEUFNQTDERMA8G
A1UECxMIT0JMSVgtUUExDzANBgNVBAMTBnBzMjQzNjEdMBsGCSqGSIb3DQEJARYO
c2FnYXJAcHNwbC5jb20wHhcNMDkwMjI3MDcwMjE4WhcNMTAwMjI3MDcwMjE4WjB5
MQswCQYDVQQGEwJJTjETMBEGA1UECBMKTUFIQVJBU1RSQTENMAsGA1UEBxMEUHVu
ZTETMBEGA1UEChMKUGVyc2lzdGVudDEOMAwGA1UECxMFT2JsaXgxITAfBgNVBAMT
GGthbGluZGkucGVyc2lzdGVudC5jby5pbjCBnzANBgkqhkiG9w0BAQEFAAOBjQAw
gYkCgYEAwngTb+N2aNi+by3E1KRL2MId89j4EOQZ/5SHjbBV7UIkySBIteo56CG1
hTO59qWxqK2QZSmnZA8Quxnapn/f1JFFGxF+ZpvxheAbxFDQ0NkqnjveGAGRYsvh
Br04/oLW/DQ5IGMFNlF4UDUCPntUmbvm5jtnmFsdEhUe7XHvTn8CAwEAAaNnMGUw
HwYDVR0jBBgwFoAU2/hqFQqCUx/C68zQboNyV+RF8nQwNAYDVR0lBC0wKwYIKwYB
BQUHAwEGCCsGAQUFBwMCBgorBgEEAYI3CgMDBglghkgBhvhCBAEwDAYDVR0TAQH/
BAIwADANBgkqhkiG9w0BAQQFAAOBgQCONjfx71ILJtdFp9V98YnguHsvdn2VA+xR
i5r9qxZZTuWQD6A36H+W6McYjtngCIV+0QoNWOjjxL7auau6jok8DwTRxvfCRspi
lyWKW9PCEsP7JPWe8jSLahFUmgZ2bjQouD6cDSI7ahztkYRlTD4sjACXPd8lfiYI
20gz4yYj/w==
-----END CERTIFICATE-----
