Certificate:
    Data:
        Version: 3 (0x2)
        Serial Number: 110 (0x6e)
        Signature Algorithm: md5WithRSAEncryption
        Issuer: C=MY, ST=MAHA, L=PUNE, O=PSPL, OU=OBLIX-QA, CN=ps2436/emailAddress=sagar@pspl.com
        Validity
            Not Before: Feb 27 08:21:43 2009 GMT
            Not After : Feb 27 08:21:43 2010 GMT
        Subject: C=IN, ST=MHARASTRA, L=Pune, O=PSL, OU=Oblix, CN=ps2979.persistent.co.in
        Subject Public Key Info:
            Public Key Algorithm: rsaEncryption
            RSA Public Key: (1024 bit)
                Modulus (1024 bit):
                    00:c2:9f:5d:d1:5e:3c:35:46:7b:c5:37:95:79:97:
                    fb:95:5a:e1:f0:0c:59:41:25:6a:bc:7c:e8:7c:b1:
                    9d:bb:88:56:0f:25:8f:8f:0e:41:57:56:fc:f6:1d:
                    54:6b:f4:29:11:67:80:d2:33:05:f9:e1:ef:01:41:
                    f9:01:cc:3e:f4:ac:45:13:9a:a1:45:c7:2c:e4:26:
                    bb:21:9b:eb:49:15:f3:73:93:af:57:d2:d1:09:57:
                    dd:0b:34:7e:4c:0e:0e:1b:3d:ef:3f:e7:d3:b5:eb:
                    e9:bb:52:bb:3c:7f:7d:db:6e:90:09:dc:86:73:b1:
                    dc:a7:4f:48:11:8b:c3:17:97
                Exponent: 65537 (0x10001)
        X509v3 extensions:
            X509v3 Authority Key Identifier: 
            keyid:DB:F8:6A:15:0A:82:53:1F:C2:EB:CC:D0:6E:83:72:57:E4:45:F2:74

            X509v3 Extended Key Usage: 
            TLS Web Server Authentication, TLS Web Client Authentication, Microsoft Server Gated Crypto, Netscape Server Gated Crypto
            X509v3 Basic Constraints: critical
            CA:FALSE
    Signature Algorithm: md5WithRSAEncryption
        13:7c:6f:f6:e5:85:14:1e:9c:48:2f:91:68:5b:74:4e:6c:b3:
        4d:7f:c9:35:ab:7a:0d:f3:1b:82:44:2e:19:87:a2:f8:78:56:
        65:a2:4b:79:e2:9b:46:ab:82:25:19:e9:57:34:c5:1a:a9:7a:
        66:7d:e3:94:c6:01:b5:99:c5:07:de:3a:b5:61:2a:8b:3a:51:
        e4:8e:66:5e:a1:5c:20:26:19:0e:52:43:a4:0b:b0:62:e6:ff:
        6d:98:13:1d:68:eb:88:e5:7d:42:a8:c9:41:6b:1b:3c:52:a7:
        36:0d:8f:82:78:1f:b3:ab:a9:50:f0:d4:e2:b6:b3:a5:05:46:
        13:5a
-----BEGIN CERTIFICATE-----
MIICyjCCAjOgAwIBAgIBbjANBgkqhkiG9w0BAQQFADB9MQswCQYDVQQGEwJNWTEN
MAsGA1UECBMETUFIQTENMAsGA1UEBxMEUFVORTENMAsGA1UEChMEUFNQTDERMA8G
A1UECxMIT0JMSVgtUUExDzANBgNVBAMTBnBzMjQzNjEdMBsGCSqGSIb3DQEJARYO
c2FnYXJAcHNwbC5jb20wHhcNMDkwMjI3MDgyMTQzWhcNMTAwMjI3MDgyMTQzWjBw
MQswCQYDVQQGEwJJTjESMBAGA1UECBMJTUhBUkFTVFJBMQ0wCwYDVQQHEwRQdW5l
MQwwCgYDVQQKEwNQU0wxDjAMBgNVBAsTBU9ibGl4MSAwHgYDVQQDExdwczI5Nzku
cGVyc2lzdGVudC5jby5pbjCBnzANBgkqhkiG9w0BAQEFAAOBjQAwgYkCgYEAwp9d
0V48NUZ7xTeVeZf7lVrh8AxZQSVqvHzofLGdu4hWDyWPjw5BV1b89h1Ua/QpEWeA
0jMF+eHvAUH5Acw+9KxFE5qhRccs5Ca7IZvrSRXzc5OvV9LRCVfdCzR+TA4OGz3v
P+fTtevpu1K7PH99226QCdyGc7Hcp09IEYvDF5cCAwEAAaNnMGUwHwYDVR0jBBgw
FoAU2/hqFQqCUx/C68zQboNyV+RF8nQwNAYDVR0lBC0wKwYIKwYBBQUHAwEGCCsG
AQUFBwMCBgorBgEEAYI3CgMDBglghkgBhvhCBAEwDAYDVR0TAQH/BAIwADANBgkq
hkiG9w0BAQQFAAOBgQATfG/25YUUHpxIL5FoW3RObLNNf8k1q3oN8xuCRC4Zh6L4
eFZlokt54ptGq4IlGelXNMUaqXpmfeOUxgG1mcUH3jq1YSqLOlHkjmZeoVwgJhkO
UkOkC7Bi5v9tmBMdaOuI5X1CqMlBaxs8Uqc2DY+CeB+zq6lQ8NTitrOlBUYTWg==
-----END CERTIFICATE-----
