Certificate:
    Data:
        Version: 3 (0x2)
        Serial Number: 112 (0x70)
        Signature Algorithm: md5WithRSAEncryption
        Issuer: C=MY, ST=MAHA, L=PUNE, O=PSPL, OU=OBLIX-QA, CN=ps2436/emailAddress=sagar@pspl.com
        Validity
            Not Before: Feb 27 13:15:59 2009 GMT
            Not After : Feb 27 13:15:59 2010 GMT
        Subject: C=IN, ST=Mah, L=pune, O=PSL, OU=oblix, CN=v-ps5959-v5.persistent.co.in
        Subject Public Key Info:
            Public Key Algorithm: rsaEncryption
            RSA Public Key: (1024 bit)
                Modulus (1024 bit):
                    00:a6:34:0d:8e:09:17:dd:9f:0b:f2:cc:bc:9a:c6:
                    72:27:14:c6:85:74:5b:fb:41:d1:92:51:77:fa:7a:
                    53:2e:29:11:f7:2d:7d:1e:18:1a:03:4d:8e:a2:18:
                    ba:12:21:7b:29:66:b9:ba:8d:0c:8d:1f:eb:5e:d8:
                    58:2a:a4:6c:83:6b:3f:fa:f2:ef:67:db:a1:98:d8:
                    5c:a0:de:ab:99:74:d8:55:a2:5e:46:d6:39:78:6a:
                    a1:d1:28:f3:84:67:5a:37:d0:18:65:6d:4c:14:77:
                    de:f0:73:03:78:41:ff:d6:e5:3d:c5:f6:38:5f:7a:
                    7f:3e:03:3d:ce:dc:42:72:7d
                Exponent: 65537 (0x10001)
        X509v3 extensions:
            X509v3 Authority Key Identifier: 
            keyid:DB:F8:6A:15:0A:82:53:1F:C2:EB:CC:D0:6E:83:72:57:E4:45:F2:74

            X509v3 Extended Key Usage: 
            TLS Web Server Authentication, TLS Web Client Authentication, Microsoft Server Gated Crypto, Netscape Server Gated Crypto
            X509v3 Basic Constraints: critical
            CA:FALSE
    Signature Algorithm: md5WithRSAEncryption
        26:19:9e:5e:33:8b:0a:03:3b:39:b7:e1:e1:9a:27:82:ac:62:
        c1:9a:43:c6:4f:40:dd:e7:55:9a:32:0b:ff:7a:7a:26:71:0c:
        08:76:9c:52:37:34:a6:64:fe:f8:b6:d0:2f:e2:f9:9d:bc:48:
        ce:d9:c7:81:a7:11:e3:56:36:0b:2f:d2:7b:cf:df:4c:e5:29:
        ef:e7:78:4f:66:70:13:ac:62:6b:ee:45:d6:4d:91:7e:48:c6:
        8c:b1:6b:b1:47:40:52:af:9c:52:36:74:d0:1f:84:30:2d:21:
        bb:20:ab:d4:d2:90:ec:17:15:ee:88:8b:f5:48:79:3b:ab:29:
        fe:44
-----BEGIN CERTIFICATE-----
MIICyTCCAjKgAwIBAgIBcDANBgkqhkiG9w0BAQQFADB9MQswCQYDVQQGEwJNWTEN
MAsGA1UECBMETUFIQTENMAsGA1UEBxMEUFVORTENMAsGA1UEChMEUFNQTDERMA8G
A1UECxMIT0JMSVgtUUExDzANBgNVBAMTBnBzMjQzNjEdMBsGCSqGSIb3DQEJARYO
c2FnYXJAcHNwbC5jb20wHhcNMDkwMjI3MTMxNTU5WhcNMTAwMjI3MTMxNTU5WjBv
MQswCQYDVQQGEwJJTjEMMAoGA1UECBMDTWFoMQ0wCwYDVQQHEwRwdW5lMQwwCgYD
VQQKEwNQU0wxDjAMBgNVBAsTBW9ibGl4MSUwIwYDVQQDExx2LXBzNTk1OS12NS5w
ZXJzaXN0ZW50LmNvLmluMIGfMA0GCSqGSIb3DQEBAQUAA4GNADCBiQKBgQCmNA2O
CRfdnwvyzLyaxnInFMaFdFv7QdGSUXf6elMuKRH3LX0eGBoDTY6iGLoSIXspZrm6
jQyNH+te2FgqpGyDaz/68u9n26GY2Fyg3quZdNhVol5G1jl4aqHRKPOEZ1o30Bhl
bUwUd97wcwN4Qf/W5T3F9jhfen8+Az3O3EJyfQIDAQABo2cwZTAfBgNVHSMEGDAW
gBTb+GoVCoJTH8LrzNBug3JX5EXydDA0BgNVHSUELTArBggrBgEFBQcDAQYIKwYB
BQUHAwIGCisGAQQBgjcKAwMGCWCGSAGG+EIEATAMBgNVHRMBAf8EAjAAMA0GCSqG
SIb3DQEBBAUAA4GBACYZnl4ziwoDOzm34eGaJ4KsYsGaQ8ZPQN3nVZoyC/96eiZx
DAh2nFI3NKZk/vi20C/i+Z28SM7Zx4GnEeNWNgsv0nvP30zlKe/neE9mcBOsYmvu
RdZNkX5Ixoyxa7FHQFKvnFI2dNAfhDAtIbsgq9TSkOwXFe6Ii/VIeTurKf5E
-----END CERTIFICATE-----
