Certificate:
    Data:
        Version: 3 (0x2)
        Serial Number: 114 (0x72)
        Signature Algorithm: md5WithRSAEncryption
        Issuer: C=MY, ST=MAHA, L=PUNE, O=PSPL, OU=OBLIX-QA, CN=ps2436/emailAddress=sagar@pspl.com
        Validity
            Not Before: Mar  2 10:02:42 2009 GMT
            Not After : Mar  2 10:02:42 2010 GMT
        Subject: C=IN, ST=Maharashtra, L=Pune, O=PSL, OU=OblixQA, CN=ps3617.persistent.co.in/emailAddress=aditya@psl.com
        Subject Public Key Info:
            Public Key Algorithm: rsaEncryption
            RSA Public Key: (1024 bit)
                Modulus (1024 bit):
                    00:c0:01:8f:0c:80:d1:ef:07:1b:12:3b:76:50:0d:
                    94:aa:0e:a3:e0:1e:2a:13:ad:16:04:2a:32:cf:b6:
                    e9:93:df:86:bd:89:14:bc:3e:ef:1f:49:e0:93:c0:
                    70:8c:84:67:3a:31:9c:b5:e2:4d:9a:0e:45:71:b2:
                    0c:12:b2:ae:85:eb:d2:73:39:57:3f:78:72:52:6c:
                    bf:7f:00:b8:65:b1:ce:fb:29:99:a1:80:c2:b5:6d:
                    bc:93:47:4b:87:66:f2:43:2a:fe:20:4d:fd:df:a1:
                    66:d9:ea:b2:f9:1a:a2:f4:00:dc:cc:c1:a6:ac:8a:
                    34:7b:13:4a:b9:7d:eb:da:cf
                Exponent: 65537 (0x10001)
        X509v3 extensions:
            X509v3 Authority Key Identifier: 
            keyid:DB:F8:6A:15:0A:82:53:1F:C2:EB:CC:D0:6E:83:72:57:E4:45:F2:74

            X509v3 Extended Key Usage: 
            TLS Web Server Authentication, TLS Web Client Authentication, Microsoft Server Gated Crypto, Netscape Server Gated Crypto
            X509v3 Basic Constraints: critical
            CA:FALSE
    Signature Algorithm: md5WithRSAEncryption
        41:20:2c:1d:26:b0:a2:6b:4a:48:9d:2d:8e:1b:41:34:21:2c:
        aa:f8:c0:54:bd:ca:8f:cc:09:0a:10:a5:07:30:5c:71:38:42:
        6e:26:88:41:53:02:88:bb:6f:a4:5b:7c:ca:56:3d:18:6f:e5:
        6a:24:96:fd:37:59:56:42:75:24:fa:0e:a4:dc:9b:ae:44:c8:
        7e:41:42:be:8a:09:a8:86:02:e8:6f:26:62:b4:fe:f2:3b:28:
        cf:6b:11:d3:68:fe:72:d5:44:a3:04:36:04:59:ed:1d:b8:4f:
        6b:97:17:50:ab:b2:13:6f:cf:7d:f7:d8:7c:0e:bd:aa:ca:f2:
        ad:85
-----BEGIN CERTIFICATE-----
MIIC7jCCAlegAwIBAgIBcjANBgkqhkiG9w0BAQQFADB9MQswCQYDVQQGEwJNWTEN
MAsGA1UECBMETUFIQTENMAsGA1UEBxMEUFVORTENMAsGA1UEChMEUFNQTDERMA8G
A1UECxMIT0JMSVgtUUExDzANBgNVBAMTBnBzMjQzNjEdMBsGCSqGSIb3DQEJARYO
c2FnYXJAcHNwbC5jb20wHhcNMDkwMzAyMTAwMjQyWhcNMTAwMzAyMTAwMjQyWjCB
kzELMAkGA1UEBhMCSU4xFDASBgNVBAgTC01haGFyYXNodHJhMQ0wCwYDVQQHEwRQ
dW5lMQwwCgYDVQQKEwNQU0wxEDAOBgNVBAsTB09ibGl4UUExIDAeBgNVBAMTF3Bz
MzYxNy5wZXJzaXN0ZW50LmNvLmluMR0wGwYJKoZIhvcNAQkBFg5hZGl0eWFAcHNs
LmNvbTCBnzANBgkqhkiG9w0BAQEFAAOBjQAwgYkCgYEAwAGPDIDR7wcbEjt2UA2U
qg6j4B4qE60WBCoyz7bpk9+GvYkUvD7vH0ngk8BwjIRnOjGcteJNmg5FcbIMErKu
hevSczlXP3hyUmy/fwC4ZbHO+ymZoYDCtW28k0dLh2byQyr+IE3936Fm2eqy+Rqi
9ADczMGmrIo0exNKuX3r2s8CAwEAAaNnMGUwHwYDVR0jBBgwFoAU2/hqFQqCUx/C
68zQboNyV+RF8nQwNAYDVR0lBC0wKwYIKwYBBQUHAwEGCCsGAQUFBwMCBgorBgEE
AYI3CgMDBglghkgBhvhCBAEwDAYDVR0TAQH/BAIwADANBgkqhkiG9w0BAQQFAAOB
gQBBICwdJrCia0pInS2OG0E0ISyq+MBUvcqPzAkKEKUHMFxxOEJuJohBUwKIu2+k
W3zKVj0Yb+VqJJb9N1lWQnUk+g6k3JuuRMh+QUK+igmohgLobyZitP7yOyjPaxHT
aP5y1USjBDYEWe0duE9rlxdQq7ITb89999h8Dr2qyvKthQ==
-----END CERTIFICATE-----
