Certificate:
    Data:
        Version: 3 (0x2)
        Serial Number: 116 (0x74)
        Signature Algorithm: md5WithRSAEncryption
        Issuer: C=MY, ST=MAHA, L=PUNE, O=PSPL, OU=OBLIX-QA, CN=ps2436/emailAddress=sagar@pspl.com
        Validity
            Not Before: Mar  3 08:46:59 2009 GMT
            Not After : Mar  3 08:46:59 2010 GMT
        Subject: CN=Dalila Sager/emailAddress=user1k32@Company.com
        Subject Public Key Info:
            Public Key Algorithm: rsaEncryption
            RSA Public Key: (1024 bit)
                Modulus (1024 bit):
                    00:af:64:13:19:0c:55:ae:87:e4:d6:c2:29:8f:3c:
                    a9:e0:3a:76:37:ec:07:94:a9:9e:c3:ec:b2:9e:2f:
                    f0:4d:be:10:ec:60:07:11:54:df:ab:9f:29:13:5b:
                    bd:0a:97:a0:56:83:d8:b0:df:e0:fb:ce:f4:c0:13:
                    f3:ff:4d:48:f8:04:53:ce:c2:44:f2:d9:8f:93:3c:
                    9e:73:ac:93:a3:e7:54:f4:a1:d8:22:77:33:f9:5c:
                    61:12:32:b6:29:fa:5d:ae:73:5b:e4:0a:51:08:bf:
                    5b:64:d8:db:d8:5b:01:10:20:8b:05:3d:84:45:dd:
                    36:f1:ff:61:02:cd:8e:e9:1d
                Exponent: 65537 (0x10001)
        X509v3 extensions:
            X509v3 Subject Alternative Name: 
            email:user1k32@Company.com
            X509v3 Basic Constraints: critical
            CA:FALSE
            X509v3 Authority Key Identifier: 
            keyid:DB:F8:6A:15:0A:82:53:1F:C2:EB:CC:D0:6E:83:72:57:E4:45:F2:74

            X509v3 Extended Key Usage: 
            TLS Web Client Authentication, E-mail Protection
    Signature Algorithm: md5WithRSAEncryption
        15:f6:f7:8d:7e:c8:05:e2:e8:3c:51:b9:46:0e:2a:e6:7c:8a:
        45:f9:5c:c7:d9:c5:f3:58:55:17:59:ce:ab:47:2d:9c:7f:91:
        89:db:df:8d:89:ab:4f:86:2e:65:cb:78:c3:e6:56:f3:89:02:
        7e:8a:f1:45:f8:cb:c7:b8:70:ce:f1:78:a1:1c:ae:4d:a7:fa:
        9e:43:a6:04:20:6d:1b:4b:1d:4e:f0:8b:81:26:6a:14:b7:f4:
        0a:25:58:dc:79:07:30:7f:82:f6:ca:ba:8a:6e:0d:c1:b3:d1:
        5d:e8:8b:83:dc:8a:5d:a7:7b:ab:d5:7b:cb:5a:90:a3:5e:a3:
        6b:69
-----BEGIN CERTIFICATE-----
MIICoDCCAgmgAwIBAgIBdDANBgkqhkiG9w0BAQQFADB9MQswCQYDVQQGEwJNWTEN
MAsGA1UECBMETUFIQTENMAsGA1UEBxMEUFVORTENMAsGA1UEChMEUFNQTDERMA8G
A1UECxMIT0JMSVgtUUExDzANBgNVBAMTBnBzMjQzNjEdMBsGCSqGSIb3DQEJARYO
c2FnYXJAcHNwbC5jb20wHhcNMDkwMzAzMDg0NjU5WhcNMTAwMzAzMDg0NjU5WjA8
MRUwEwYDVQQDEwxEYWxpbGEgU2FnZXIxIzAhBgkqhkiG9w0BCQEWFHVzZXIxazMy
QENvbXBhbnkuY29tMIGfMA0GCSqGSIb3DQEBAQUAA4GNADCBiQKBgQCvZBMZDFWu
h+TWwimPPKngOnY37AeUqZ7D7LKeL/BNvhDsYAcRVN+rnykTW70Kl6BWg9iw3+D7
zvTAE/P/TUj4BFPOwkTy2Y+TPJ5zrJOj51T0odgidzP5XGESMrYp+l2uc1vkClEI
v1tk2NvYWwEQIIsFPYRF3Tbx/2ECzY7pHQIDAQABo3EwbzAfBgNVHREEGDAWgRR1
c2VyMWszMkBDb21wYW55LmNvbTAMBgNVHRMBAf8EAjAAMB8GA1UdIwQYMBaAFNv4
ahUKglMfwuvM0G6DclfkRfJ0MB0GA1UdJQQWMBQGCCsGAQUFBwMCBggrBgEFBQcD
BDANBgkqhkiG9w0BAQQFAAOBgQAV9veNfsgF4ug8UblGDirmfIpF+VzH2cXzWFUX
Wc6rRy2cf5GJ29+NiatPhi5ly3jD5lbziQJ+ivFF+MvHuHDO8XihHK5Np/qeQ6YE
IG0bSx1O8IuBJmoUt/QKJVjceQcwf4L2yrqKbg3Bs9Fd6IuD3Ipdp3ur1XvLWpCj
XqNraQ==
-----END CERTIFICATE-----
