Certificate:
    Data:
        Version: 3 (0x2)
        Serial Number: 119 (0x77)
        Signature Algorithm: md5WithRSAEncryption
        Issuer: C=MY, ST=MAHA, L=PUNE, O=PSPL, OU=OBLIX-QA, CN=ps2436/emailAddress=sagar@pspl.com
        Validity
            Not Before: Mar  9 15:25:54 2009 GMT
            Not After : Mar  9 15:25:54 2010 GMT
        Subject: C=IN, ST=Maharashtra, L=Pune, O=PSL, OU=Oblix, CN=stevef.us.oracle.com
        Subject Public Key Info:
            Public Key Algorithm: rsaEncryption
            RSA Public Key: (1024 bit)
                Modulus (1024 bit):
                    00:cd:91:9c:cd:2a:18:48:50:cd:bd:9c:16:9c:57:
                    f5:b6:ee:34:b7:32:54:75:88:b2:38:8b:74:a2:7d:
                    bf:33:9a:13:3f:79:60:9e:e8:07:6d:c0:c6:f4:71:
                    cc:7a:1e:c0:d4:9f:9b:6b:c6:be:d9:96:31:16:16:
                    12:9a:2e:30:42:5d:80:3f:17:c3:8c:5d:dd:a5:e0:
                    20:91:2b:4f:4d:d3:2e:76:6b:34:01:a8:09:4b:f2:
                    c8:3e:28:ac:7a:fb:db:24:2c:39:5d:5b:20:39:3c:
                    2c:d5:4c:1e:16:ce:4b:73:6e:8b:f3:42:e0:c2:0e:
                    03:ee:5e:81:2f:b4:fb:7d:1f
                Exponent: 65537 (0x10001)
        X509v3 extensions:
            X509v3 Authority Key Identifier: 
            keyid:DB:F8:6A:15:0A:82:53:1F:C2:EB:CC:D0:6E:83:72:57:E4:45:F2:74

            X509v3 Extended Key Usage: 
            TLS Web Server Authentication, TLS Web Client Authentication, Microsoft Server Gated Crypto, Netscape Server Gated Crypto
            X509v3 Basic Constraints: critical
            CA:FALSE
    Signature Algorithm: md5WithRSAEncryption
        7d:88:35:b5:92:01:04:02:e2:84:d5:cf:fd:d3:d3:30:75:d0:
        f2:c7:2c:bf:e3:04:8d:cc:06:5a:ed:0c:b9:92:70:66:82:f7:
        73:85:2a:2e:20:f8:a0:2f:77:58:d7:2c:5c:2c:91:5d:cb:89:
        a0:ab:11:68:70:92:f9:06:b8:17:5c:a6:3a:a3:5f:7b:d6:37:
        02:38:27:91:ce:14:9c:d4:cf:4e:71:96:26:2a:bf:12:a7:59:
        5f:e4:54:31:da:c2:62:35:96:85:d7:d0:2c:a9:16:fc:f1:75:
        e6:42:61:92:74:e2:fa:9d:29:33:5d:ae:2f:b6:f0:55:de:78:
        02:13
-----BEGIN CERTIFICATE-----
MIICyTCCAjKgAwIBAgIBdzANBgkqhkiG9w0BAQQFADB9MQswCQYDVQQGEwJNWTEN
MAsGA1UECBMETUFIQTENMAsGA1UEBxMEUFVORTENMAsGA1UEChMEUFNQTDERMA8G
A1UECxMIT0JMSVgtUUExDzANBgNVBAMTBnBzMjQzNjEdMBsGCSqGSIb3DQEJARYO
c2FnYXJAcHNwbC5jb20wHhcNMDkwMzA5MTUyNTU0WhcNMTAwMzA5MTUyNTU0WjBv
MQswCQYDVQQGEwJJTjEUMBIGA1UECBMLTWFoYXJhc2h0cmExDTALBgNVBAcTBFB1
bmUxDDAKBgNVBAoTA1BTTDEOMAwGA1UECxMFT2JsaXgxHTAbBgNVBAMTFHN0ZXZl
Zi51cy5vcmFjbGUuY29tMIGfMA0GCSqGSIb3DQEBAQUAA4GNADCBiQKBgQDNkZzN
KhhIUM29nBacV/W27jS3MlR1iLI4i3Sifb8zmhM/eWCe6AdtwMb0ccx6HsDUn5tr
xr7ZljEWFhKaLjBCXYA/F8OMXd2l4CCRK09N0y52azQBqAlL8sg+KKx6+9skLDld
WyA5PCzVTB4WzktzbovzQuDCDgPuXoEvtPt9HwIDAQABo2cwZTAfBgNVHSMEGDAW
gBTb+GoVCoJTH8LrzNBug3JX5EXydDA0BgNVHSUELTArBggrBgEFBQcDAQYIKwYB
BQUHAwIGCisGAQQBgjcKAwMGCWCGSAGG+EIEATAMBgNVHRMBAf8EAjAAMA0GCSqG
SIb3DQEBBAUAA4GBAH2INbWSAQQC4oTVz/3T0zB10PLHLL/jBI3MBlrtDLmScGaC
93OFKi4g+KAvd1jXLFwskV3LiaCrEWhwkvkGuBdcpjqjX3vWNwI4J5HOFJzUz05x
liYqvxKnWV/kVDHawmI1loXX0CypFvzxdeZCYZJ04vqdKTNdri+28FXeeAIT
-----END CERTIFICATE-----
