Certificate:
    Data:
        Version: 3 (0x2)
        Serial Number: 120 (0x78)
        Signature Algorithm: md5WithRSAEncryption
        Issuer: C=MY, ST=MAHA, L=PUNE, O=PSPL, OU=OBLIX-QA, CN=ps2436/emailAddress=sagar@pspl.com
        Validity
            Not Before: Mar  9 15:33:23 2009 GMT
            Not After : Mar  9 15:33:23 2010 GMT
        Subject: C=IN, ST=maharashtra, L=pune, O=psl, OU=oblixqa, CN=stevef.us.oracle.com
        Subject Public Key Info:
            Public Key Algorithm: rsaEncryption
            RSA Public Key: (1024 bit)
                Modulus (1024 bit):
                    00:ed:34:9b:65:7b:49:30:ad:9d:f0:7f:3c:70:25:
                    52:f6:4c:b2:e2:f5:81:09:cb:85:53:ca:4c:b9:20:
                    98:31:43:5b:0c:22:3c:ef:2a:01:d2:49:b8:6b:46:
                    fe:c7:8b:e8:e8:85:ef:a2:c3:a4:48:03:5d:32:cd:
                    51:6f:d4:cb:f6:9d:8b:9a:0d:43:8b:66:82:e9:2c:
                    6a:6e:dd:20:09:d7:e5:16:bd:f4:a3:60:ba:c8:62:
                    68:a6:e5:a8:75:72:a6:22:93:c4:78:83:05:f4:e2:
                    d3:13:58:b5:70:27:85:bc:61:ce:01:b7:6c:f1:5f:
                    b8:1d:0d:2a:68:0d:c5:96:79
                Exponent: 65537 (0x10001)
        X509v3 extensions:
            X509v3 Authority Key Identifier: 
            keyid:DB:F8:6A:15:0A:82:53:1F:C2:EB:CC:D0:6E:83:72:57:E4:45:F2:74

            X509v3 Extended Key Usage: 
            TLS Web Server Authentication, TLS Web Client Authentication, Microsoft Server Gated Crypto, Netscape Server Gated Crypto
            X509v3 Basic Constraints: critical
            CA:FALSE
    Signature Algorithm: md5WithRSAEncryption
        78:d5:3f:db:a2:73:15:0a:b3:44:d7:a6:55:ab:fa:a0:f6:d6:
        6e:3d:ba:74:15:7a:27:0b:89:bf:64:fd:48:f6:3c:e2:f9:05:
        27:08:1c:29:33:ba:fd:ae:21:27:7c:ca:89:2d:6b:c5:61:d7:
        fb:cd:ac:a7:ef:7e:c8:d0:9f:b9:ca:04:09:d4:87:ce:ba:b9:
        4b:20:2f:63:96:54:7e:2f:c4:49:45:88:8d:f0:44:3d:d7:1a:
        5e:35:8b:48:ec:77:7b:45:9d:dc:d7:16:e7:9a:42:c3:48:a4:
        2b:db:9b:49:4a:4a:35:5a:97:a1:e1:dd:b7:ca:77:df:8d:3d:
        7a:42
-----BEGIN CERTIFICATE-----
MIICyzCCAjSgAwIBAgIBeDANBgkqhkiG9w0BAQQFADB9MQswCQYDVQQGEwJNWTEN
MAsGA1UECBMETUFIQTENMAsGA1UEBxMEUFVORTENMAsGA1UEChMEUFNQTDERMA8G
A1UECxMIT0JMSVgtUUExDzANBgNVBAMTBnBzMjQzNjEdMBsGCSqGSIb3DQEJARYO
c2FnYXJAcHNwbC5jb20wHhcNMDkwMzA5MTUzMzIzWhcNMTAwMzA5MTUzMzIzWjBx
MQswCQYDVQQGEwJJTjEUMBIGA1UECBMLbWFoYXJhc2h0cmExDTALBgNVBAcTBHB1
bmUxDDAKBgNVBAoTA3BzbDEQMA4GA1UECxMHb2JsaXhxYTEdMBsGA1UEAxMUc3Rl
dmVmLnVzLm9yYWNsZS5jb20wgZ8wDQYJKoZIhvcNAQEBBQADgY0AMIGJAoGBAO00
m2V7STCtnfB/PHAlUvZMsuL1gQnLhVPKTLkgmDFDWwwiPO8qAdJJuGtG/seL6OiF
76LDpEgDXTLNUW/Uy/adi5oNQ4tmguksam7dIAnX5Ra99KNgushiaKblqHVypiKT
xHiDBfTi0xNYtXAnhbxhzgG3bPFfuB0NKmgNxZZ5AgMBAAGjZzBlMB8GA1UdIwQY
MBaAFNv4ahUKglMfwuvM0G6DclfkRfJ0MDQGA1UdJQQtMCsGCCsGAQUFBwMBBggr
BgEFBQcDAgYKKwYBBAGCNwoDAwYJYIZIAYb4QgQBMAwGA1UdEwEB/wQCMAAwDQYJ
KoZIhvcNAQEEBQADgYEAeNU/26JzFQqzRNemVav6oPbWbj26dBV6JwuJv2T9SPY8
4vkFJwgcKTO6/a4hJ3zKiS1rxWHX+82sp+9+yNCfucoECdSHzrq5SyAvY5ZUfi/E
SUWIjfBEPdcaXjWLSOx3e0Wd3NcW55pCw0ikK9ubSUpKNVqXoeHdt8p33409ekI=
-----END CERTIFICATE-----
