Certificate:
    Data:
        Version: 3 (0x2)
        Serial Number: 121 (0x79)
        Signature Algorithm: md5WithRSAEncryption
        Issuer: C=MY, ST=MAHA, L=PUNE, O=PSPL, OU=OBLIX-QA, CN=ps2436/emailAddress=sagar@pspl.com
        Validity
            Not Before: Mar 13 09:03:27 2009 GMT
            Not After : Mar 13 09:03:27 2010 GMT
        Subject: C=US, ST=maharashtra, L=pune, O=oracle, OU=oblix, CN=v-ps5959-v5
        Subject Public Key Info:
            Public Key Algorithm: rsaEncryption
            RSA Public Key: (1024 bit)
                Modulus (1024 bit):
                    00:ac:ce:8b:7d:92:55:f3:0d:1e:f8:40:32:70:1c:
                    33:e1:a2:bb:3a:47:41:89:b8:73:a0:6d:6f:53:67:
                    f1:7f:d0:3e:58:53:8c:5e:0b:f6:19:fb:4d:8f:00:
                    16:9f:d2:21:7b:cd:cd:3e:f1:52:e7:a7:ce:ef:2a:
                    f4:90:d4:a0:8b:f2:46:d1:13:05:ab:9f:b0:90:32:
                    f8:59:61:dd:2f:e5:22:61:3e:e2:fd:45:72:3b:02:
                    75:3a:3d:29:d7:09:4c:f0:be:fa:51:09:52:78:9a:
                    34:89:b7:19:35:2f:bc:d8:b2:9d:34:31:16:4c:22:
                    87:6c:0a:5a:c9:98:5d:fc:25
                Exponent: 65537 (0x10001)
        X509v3 extensions:
            X509v3 Authority Key Identifier: 
            keyid:DB:F8:6A:15:0A:82:53:1F:C2:EB:CC:D0:6E:83:72:57:E4:45:F2:74

            X509v3 Extended Key Usage: 
            TLS Web Server Authentication, TLS Web Client Authentication, Microsoft Server Gated Crypto, Netscape Server Gated Crypto
            X509v3 Basic Constraints: critical
            CA:FALSE
    Signature Algorithm: md5WithRSAEncryption
        4c:79:66:2a:72:52:8d:1a:ea:6f:49:24:79:c5:21:33:32:1c:
        ec:7c:20:b5:15:5f:04:ef:ec:9b:37:32:24:16:6d:e0:40:46:
        03:e0:1a:ad:c5:bd:26:d3:2a:bd:49:bd:62:7e:78:33:7d:64:
        b2:7e:f7:c9:e4:e6:db:2b:89:1c:df:ab:45:6f:a7:c3:4a:5d:
        17:ad:dc:79:af:23:0d:b3:30:4a:da:1c:bb:48:5f:5b:71:31:
        ea:0c:10:d6:6e:da:33:73:fa:e2:86:ae:ec:c1:a9:45:58:2c:
        79:e0:1f:bc:73:86:2a:69:ca:86:ba:0e:2f:6e:4f:c2:04:52:
        b4:e9
-----BEGIN CERTIFICATE-----
MIICwzCCAiygAwIBAgIBeTANBgkqhkiG9w0BAQQFADB9MQswCQYDVQQGEwJNWTEN
MAsGA1UECBMETUFIQTENMAsGA1UEBxMEUFVORTENMAsGA1UEChMEUFNQTDERMA8G
A1UECxMIT0JMSVgtUUExDzANBgNVBAMTBnBzMjQzNjEdMBsGCSqGSIb3DQEJARYO
c2FnYXJAcHNwbC5jb20wHhcNMDkwMzEzMDkwMzI3WhcNMTAwMzEzMDkwMzI3WjBp
MQswCQYDVQQGEwJVUzEUMBIGA1UECBMLbWFoYXJhc2h0cmExDTALBgNVBAcTBHB1
bmUxDzANBgNVBAoTBm9yYWNsZTEOMAwGA1UECxMFb2JsaXgxFDASBgNVBAMTC3Yt
cHM1OTU5LXY1MIGfMA0GCSqGSIb3DQEBAQUAA4GNADCBiQKBgQCszot9klXzDR74
QDJwHDPhors6R0GJuHOgbW9TZ/F/0D5YU4xeC/YZ+02PABaf0iF7zc0+8VLnp87v
KvSQ1KCL8kbREwWrn7CQMvhZYd0v5SJhPuL9RXI7AnU6PSnXCUzwvvpRCVJ4mjSJ
txk1L7zYsp00MRZMIodsClrJmF38JQIDAQABo2cwZTAfBgNVHSMEGDAWgBTb+GoV
CoJTH8LrzNBug3JX5EXydDA0BgNVHSUELTArBggrBgEFBQcDAQYIKwYBBQUHAwIG
CisGAQQBgjcKAwMGCWCGSAGG+EIEATAMBgNVHRMBAf8EAjAAMA0GCSqGSIb3DQEB
BAUAA4GBAEx5ZipyUo0a6m9JJHnFITMyHOx8ILUVXwTv7Js3MiQWbeBARgPgGq3F
vSbTKr1JvWJ+eDN9ZLJ+98nk5tsriRzfq0Vvp8NKXRet3HmvIw2zMEraHLtIX1tx
MeoMENZu2jNz+uKGruzBqUVYLHngH7xzhippyoa6Di9uT8IEUrTp
-----END CERTIFICATE-----
