Certificate:
    Data:
        Version: 3 (0x2)
        Serial Number: 122 (0x7a)
        Signature Algorithm: md5WithRSAEncryption
        Issuer: C=MY, ST=MAHA, L=PUNE, O=PSPL, OU=OBLIX-QA, CN=ps2436/emailAddress=sagar@pspl.com
        Validity
            Not Before: Mar 16 06:37:38 2009 GMT
            Not After : Mar 16 06:37:38 2010 GMT
        Subject: CN=Anil Gupta/emailAddress=anil.gupta@oracle.com
        Subject Public Key Info:
            Public Key Algorithm: rsaEncryption
            RSA Public Key: (1024 bit)
                Modulus (1024 bit):
                    00:de:4e:05:9e:8c:6f:60:39:3b:97:76:47:73:b6:
                    52:a6:d1:60:9c:85:7d:0b:dc:d4:ce:3c:23:9f:8b:
                    5e:c2:7b:71:7f:b2:fb:42:25:d4:50:d5:63:d0:f5:
                    e6:7c:f0:28:0c:e6:74:ef:a7:58:91:04:af:6a:cd:
                    05:06:c2:d8:81:cc:95:e9:0d:2e:d3:87:63:6f:b9:
                    7f:a0:ec:b4:7d:33:c3:60:93:37:1f:86:86:3f:26:
                    22:08:24:dc:72:28:77:96:af:9a:1b:e4:60:83:9b:
                    99:92:cb:38:97:c7:a7:a0:e1:40:81:ae:8c:94:dc:
                    e4:65:73:69:d6:03:19:c1:cd
                Exponent: 65537 (0x10001)
        X509v3 extensions:
            X509v3 Subject Alternative Name: 
            email:anil.gupta@oracle.com
            X509v3 Basic Constraints: critical
            CA:FALSE
            X509v3 Authority Key Identifier: 
            keyid:DB:F8:6A:15:0A:82:53:1F:C2:EB:CC:D0:6E:83:72:57:E4:45:F2:74

            X509v3 Extended Key Usage: 
            TLS Web Client Authentication, E-mail Protection
    Signature Algorithm: md5WithRSAEncryption
        2b:12:8e:6f:83:75:6f:6a:1a:46:0d:cb:da:98:82:61:df:10:
        46:0e:1e:c8:60:8b:7e:46:61:5b:3b:a5:8c:47:bd:df:05:2d:
        5f:74:8f:eb:92:f2:be:f1:4f:b4:5e:26:21:8c:8a:c2:5f:32:
        e8:5e:04:23:d3:58:c1:86:49:22:d3:1c:f0:5e:05:46:30:a2:
        2c:3a:1b:fe:0f:3d:db:0e:62:50:7b:8e:ea:77:06:29:6c:56:
        84:f4:27:d0:35:c9:95:4f:b7:e6:5b:38:68:1a:3b:78:88:65:
        93:55:39:fa:98:7e:d9:c9:bf:01:b0:0c:8b:e1:26:5d:c0:a8:
        b4:65
-----BEGIN CERTIFICATE-----
MIICoDCCAgmgAwIBAgIBejANBgkqhkiG9w0BAQQFADB9MQswCQYDVQQGEwJNWTEN
MAsGA1UECBMETUFIQTENMAsGA1UEBxMEUFVORTENMAsGA1UEChMEUFNQTDERMA8G
A1UECxMIT0JMSVgtUUExDzANBgNVBAMTBnBzMjQzNjEdMBsGCSqGSIb3DQEJARYO
c2FnYXJAcHNwbC5jb20wHhcNMDkwMzE2MDYzNzM4WhcNMTAwMzE2MDYzNzM4WjA7
MRMwEQYDVQQDEwpBbmlsIEd1cHRhMSQwIgYJKoZIhvcNAQkBFhVhbmlsLmd1cHRh
QG9yYWNsZS5jb20wgZ8wDQYJKoZIhvcNAQEBBQADgY0AMIGJAoGBAN5OBZ6Mb2A5
O5d2R3O2UqbRYJyFfQvc1M48I5+LXsJ7cX+y+0Il1FDVY9D15nzwKAzmdO+nWJEE
r2rNBQbC2IHMlekNLtOHY2+5f6DstH0zw2CTNx+Ghj8mIggk3HIod5avmhvkYIOb
mZLLOJfHp6DhQIGujJTc5GVzadYDGcHNAgMBAAGjcjBwMCAGA1UdEQQZMBeBFWFu
aWwuZ3VwdGFAb3JhY2xlLmNvbTAMBgNVHRMBAf8EAjAAMB8GA1UdIwQYMBaAFNv4
ahUKglMfwuvM0G6DclfkRfJ0MB0GA1UdJQQWMBQGCCsGAQUFBwMCBggrBgEFBQcD
BDANBgkqhkiG9w0BAQQFAAOBgQArEo5vg3VvahpGDcvamIJh3xBGDh7IYIt+RmFb
O6WMR73fBS1fdI/rkvK+8U+0XiYhjIrCXzLoXgQj01jBhkki0xzwXgVGMKIsOhv+
Dz3bDmJQe47qdwYpbFaE9CfQNcmVT7fmWzhoGjt4iGWTVTn6mH7Zyb8BsAyL4SZd
wKi0ZQ==
-----END CERTIFICATE-----
