Certificate:
    Data:
        Version: 3 (0x2)
        Serial Number: 125 (0x7d)
        Signature Algorithm: md5WithRSAEncryption
        Issuer: C=MY, ST=MAHA, L=PUNE, O=PSPL, OU=OBLIX-QA, CN=ps2436/emailAddress=sagar@pspl.com
        Validity
            Not Before: Mar 16 07:36:54 2009 GMT
            Not After : Mar 16 07:36:54 2010 GMT
        Subject: CN=Anil Gupta/emailAddress=anil.gupta@oracle.com
        Subject Public Key Info:
            Public Key Algorithm: rsaEncryption
            RSA Public Key: (1024 bit)
                Modulus (1024 bit):
                    00:a3:0b:32:c5:75:ad:61:09:eb:53:04:63:a7:93:
                    ad:34:2c:ea:53:fe:aa:58:8a:f2:7e:c5:cf:61:9f:
                    6c:e7:f2:0b:7f:88:2a:ba:33:d8:62:dd:ed:83:14:
                    98:ba:0b:62:11:fe:ee:58:d1:af:4f:84:98:19:42:
                    f5:99:0d:fa:eb:b9:0e:37:52:8e:02:c0:a0:1c:d6:
                    81:d8:15:76:a3:74:7c:52:89:0d:86:06:95:2a:43:
                    1b:ff:22:fb:a5:fa:09:47:25:e5:90:2d:a7:38:96:
                    00:01:34:4b:d5:7d:f6:55:57:e2:c8:0d:58:65:4a:
                    4a:36:69:85:b8:95:4c:fc:09
                Exponent: 65537 (0x10001)
        X509v3 extensions:
            X509v3 Subject Alternative Name: 
            email:anil.gupta@oracle.com
            X509v3 Basic Constraints: critical
            CA:FALSE
            X509v3 Authority Key Identifier: 
            keyid:DB:F8:6A:15:0A:82:53:1F:C2:EB:CC:D0:6E:83:72:57:E4:45:F2:74

            X509v3 Extended Key Usage: 
            TLS Web Client Authentication, E-mail Protection
    Signature Algorithm: md5WithRSAEncryption
        20:07:eb:c4:01:0b:84:ff:24:53:54:4c:88:05:f5:b4:ca:64:
        32:82:ed:2d:5a:de:c6:19:45:02:f3:fd:2c:21:58:7f:9b:c1:
        ce:e9:24:59:6c:6d:d8:dc:bb:66:4d:17:ce:ac:8e:65:1a:62:
        af:4c:6a:59:0a:f3:a3:a9:79:db:d0:15:f4:94:b5:70:88:d8:
        b0:a9:ff:c7:2f:a5:3c:4f:ca:1a:ab:cc:5f:f4:cd:99:63:c2:
        7c:fe:b9:a9:b9:94:e3:b7:b2:1b:e0:b9:92:98:2a:81:65:ce:
        17:9c:ad:c2:1a:97:39:aa:86:c5:bd:0c:29:a0:44:87:3f:4b:
        e6:38
-----BEGIN CERTIFICATE-----
MIICoDCCAgmgAwIBAgIBfTANBgkqhkiG9w0BAQQFADB9MQswCQYDVQQGEwJNWTEN
MAsGA1UECBMETUFIQTENMAsGA1UEBxMEUFVORTENMAsGA1UEChMEUFNQTDERMA8G
A1UECxMIT0JMSVgtUUExDzANBgNVBAMTBnBzMjQzNjEdMBsGCSqGSIb3DQEJARYO
c2FnYXJAcHNwbC5jb20wHhcNMDkwMzE2MDczNjU0WhcNMTAwMzE2MDczNjU0WjA7
MRMwEQYDVQQDEwpBbmlsIEd1cHRhMSQwIgYJKoZIhvcNAQkBFhVhbmlsLmd1cHRh
QG9yYWNsZS5jb20wgZ8wDQYJKoZIhvcNAQEBBQADgY0AMIGJAoGBAKMLMsV1rWEJ
61MEY6eTrTQs6lP+qliK8n7Fz2GfbOfyC3+IKroz2GLd7YMUmLoLYhH+7ljRr0+E
mBlC9ZkN+uu5DjdSjgLAoBzWgdgVdqN0fFKJDYYGlSpDG/8i+6X6CUcl5ZAtpziW
AAE0S9V99lVX4sgNWGVKSjZphbiVTPwJAgMBAAGjcjBwMCAGA1UdEQQZMBeBFWFu
aWwuZ3VwdGFAb3JhY2xlLmNvbTAMBgNVHRMBAf8EAjAAMB8GA1UdIwQYMBaAFNv4
ahUKglMfwuvM0G6DclfkRfJ0MB0GA1UdJQQWMBQGCCsGAQUFBwMCBggrBgEFBQcD
BDANBgkqhkiG9w0BAQQFAAOBgQAgB+vEAQuE/yRTVEyIBfW0ymQygu0tWt7GGUUC
8/0sIVh/m8HO6SRZbG3Y3LtmTRfOrI5lGmKvTGpZCvOjqXnb0BX0lLVwiNiwqf/H
L6U8T8oaq8xf9M2ZY8J8/rmpuZTjt7Ib4LmSmCqBZc4XnK3CGpc5qobFvQwpoESH
P0vmOA==
-----END CERTIFICATE-----
