Certificate:
    Data:
        Version: 3 (0x2)
        Serial Number: 133 (0x85)
        Signature Algorithm: md5WithRSAEncryption
        Issuer: C=MY, ST=MAHA, L=PUNE, O=PSPL, OU=OBLIX-QA, CN=ps2436/emailAddress=sagar@pspl.com
        Validity
            Not Before: Jul 16 12:36:10 2009 GMT
            Not After : Jul 16 12:36:10 2010 GMT
        Subject: C=In, ST=Maha, L=Pune, O=Oblix, OU=OAM, CN=dadvmc0407.us.oracle.com/emailAddress=sagar@psl.com
        Subject Public Key Info:
            Public Key Algorithm: rsaEncryption
            RSA Public Key: (1024 bit)
                Modulus (1024 bit):
                    00:c3:44:d1:dc:3b:16:15:6b:fd:63:04:1a:86:5d:
                    27:17:b0:45:f3:41:94:fe:dd:d3:85:a8:5f:be:ea:
                    a3:e6:d2:2e:02:35:73:25:c8:e1:59:63:a3:bb:57:
                    0d:56:53:91:b3:55:d2:9e:0b:2f:d7:0d:97:c2:30:
                    df:d0:f5:d4:a8:96:20:02:db:16:9f:01:dc:68:51:
                    e6:6a:40:f1:b0:43:48:a4:4d:1f:f0:1e:1b:22:09:
                    64:39:9b:40:9e:06:73:81:af:0d:01:59:f5:6b:94:
                    fb:d7:fe:08:84:9a:10:0d:54:d8:bc:f8:99:cd:2a:
                    38:44:e1:b2:11:7e:af:67:8f
                Exponent: 65537 (0x10001)
        X509v3 extensions:
            X509v3 Authority Key Identifier: 
            keyid:DB:F8:6A:15:0A:82:53:1F:C2:EB:CC:D0:6E:83:72:57:E4:45:F2:74

            X509v3 Extended Key Usage: 
            TLS Web Server Authentication, TLS Web Client Authentication, Microsoft Server Gated Crypto, Netscape Server Gated Crypto
            X509v3 Basic Constraints: critical
            CA:FALSE
    Signature Algorithm: md5WithRSAEncryption
        47:5b:48:bf:c5:35:e1:23:b6:bf:53:d6:22:a5:72:34:f8:0e:
        14:f8:e4:af:d8:7e:70:c1:c1:9a:7b:7b:c6:58:65:e8:fc:ba:
        90:31:f1:e1:a9:ed:93:f9:f5:0b:4a:3e:39:03:d8:6d:5c:66:
        ba:9d:0f:d2:8e:4a:89:8e:ee:a6:b2:13:1d:a6:28:58:ba:14:
        d6:6f:70:74:66:42:88:56:60:1c:d1:88:5a:1b:5b:3c:b1:03:
        3c:d8:3f:84:b0:43:9b:ee:af:3c:40:fe:7a:8c:32:0e:22:0c:
        25:73:25:d0:e0:2f:a6:2f:60:66:89:97:9a:81:a7:01:61:99:
        17:bb
-----BEGIN CERTIFICATE-----
MIIC5jCCAk+gAwIBAgICAIUwDQYJKoZIhvcNAQEEBQAwfTELMAkGA1UEBhMCTVkx
DTALBgNVBAgTBE1BSEExDTALBgNVBAcTBFBVTkUxDTALBgNVBAoTBFBTUEwxETAP
BgNVBAsTCE9CTElYLVFBMQ8wDQYDVQQDEwZwczI0MzYxHTAbBgkqhkiG9w0BCQEW
DnNhZ2FyQHBzcGwuY29tMB4XDTA5MDcxNjEyMzYxMFoXDTEwMDcxNjEyMzYxMFow
gYoxCzAJBgNVBAYTAkluMQ0wCwYDVQQIEwRNYWhhMQ0wCwYDVQQHEwRQdW5lMQ4w
DAYDVQQKEwVPYmxpeDEMMAoGA1UECxMDT0FNMSEwHwYDVQQDExhkYWR2bWMwNDA3
LnVzLm9yYWNsZS5jb20xHDAaBgkqhkiG9w0BCQEWDXNhZ2FyQHBzbC5jb20wgZ8w
DQYJKoZIhvcNAQEBBQADgY0AMIGJAoGBAMNE0dw7FhVr/WMEGoZdJxewRfNBlP7d
04WoX77qo+bSLgI1cyXI4Vljo7tXDVZTkbNV0p4LL9cNl8Iw39D11KiWIALbFp8B
3GhR5mpA8bBDSKRNH/AeGyIJZDmbQJ4Gc4GvDQFZ9WuU+9f+CISaEA1U2Lz4mc0q
OEThshF+r2ePAgMBAAGjZzBlMB8GA1UdIwQYMBaAFNv4ahUKglMfwuvM0G6Dclfk
RfJ0MDQGA1UdJQQtMCsGCCsGAQUFBwMBBggrBgEFBQcDAgYKKwYBBAGCNwoDAwYJ
YIZIAYb4QgQBMAwGA1UdEwEB/wQCMAAwDQYJKoZIhvcNAQEEBQADgYEAR1tIv8U1
4SO2v1PWIqVyNPgOFPjkr9h+cMHBmnt7xlhl6Py6kDHx4antk/n1C0o+OQPYbVxm
up0P0o5KiY7uprITHaYoWLoU1m9wdGZCiFZgHNGIWhtbPLEDPNg/hLBDm+6vPED+
eowyDiIMJXMl0OAvpi9gZomXmoGnAWGZF7s=
-----END CERTIFICATE-----
