Certificate:
    Data:
        Version: 3 (0x2)
        Serial Number: 134 (0x86)
        Signature Algorithm: md5WithRSAEncryption
        Issuer: C=MY, ST=MAHA, L=PUNE, O=PSPL, OU=OBLIX-QA, CN=ps2436/emailAddress=sagar@pspl.com
        Validity
            Not Before: Jul 17 09:14:14 2009 GMT
            Not After : Jul 17 09:14:14 2010 GMT
        Subject: C=In, ST=Maha, L=Pune, O=Oblix, OU=OAM, CN=dadvmc0407.us.oracle.com/emailAddress=sagar@psl.com
        Subject Public Key Info:
            Public Key Algorithm: rsaEncryption
            RSA Public Key: (1024 bit)
                Modulus (1024 bit):
                    00:c3:44:d1:dc:3b:16:15:6b:fd:63:04:1a:86:5d:
                    27:17:b0:45:f3:41:94:fe:dd:d3:85:a8:5f:be:ea:
                    a3:e6:d2:2e:02:35:73:25:c8:e1:59:63:a3:bb:57:
                    0d:56:53:91:b3:55:d2:9e:0b:2f:d7:0d:97:c2:30:
                    df:d0:f5:d4:a8:96:20:02:db:16:9f:01:dc:68:51:
                    e6:6a:40:f1:b0:43:48:a4:4d:1f:f0:1e:1b:22:09:
                    64:39:9b:40:9e:06:73:81:af:0d:01:59:f5:6b:94:
                    fb:d7:fe:08:84:9a:10:0d:54:d8:bc:f8:99:cd:2a:
                    38:44:e1:b2:11:7e:af:67:8f
                Exponent: 65537 (0x10001)
        X509v3 extensions:
            X509v3 Authority Key Identifier: 
            keyid:DB:F8:6A:15:0A:82:53:1F:C2:EB:CC:D0:6E:83:72:57:E4:45:F2:74

            X509v3 Extended Key Usage: 
            TLS Web Server Authentication, TLS Web Client Authentication, Microsoft Server Gated Crypto, Netscape Server Gated Crypto
            X509v3 Basic Constraints: critical
            CA:FALSE
    Signature Algorithm: md5WithRSAEncryption
        59:54:a2:eb:ce:8d:24:03:fc:e4:9c:fa:d3:f7:ea:b3:f9:00:
        d0:15:b9:53:fe:b3:cf:58:0f:0c:e2:e1:be:c3:c8:68:43:bb:
        b2:1e:50:4b:03:fb:d2:e8:4e:f4:ac:21:77:93:33:c5:ee:e4:
        1d:ed:1f:d8:14:b5:e8:77:14:c1:6b:e2:81:9d:c1:7c:f0:af:
        f6:f2:e6:cf:ae:37:f6:20:8f:9f:2b:97:e2:5c:58:ca:5b:92:
        de:43:27:4c:29:25:fe:61:1a:36:72:f5:85:2d:ed:cb:93:1c:
        66:86:14:15:c3:c6:02:b5:07:bc:ad:ad:f2:6d:80:b7:7b:37:
        5f:5b
-----BEGIN CERTIFICATE-----
MIIC5jCCAk+gAwIBAgICAIYwDQYJKoZIhvcNAQEEBQAwfTELMAkGA1UEBhMCTVkx
DTALBgNVBAgTBE1BSEExDTALBgNVBAcTBFBVTkUxDTALBgNVBAoTBFBTUEwxETAP
BgNVBAsTCE9CTElYLVFBMQ8wDQYDVQQDEwZwczI0MzYxHTAbBgkqhkiG9w0BCQEW
DnNhZ2FyQHBzcGwuY29tMB4XDTA5MDcxNzA5MTQxNFoXDTEwMDcxNzA5MTQxNFow
gYoxCzAJBgNVBAYTAkluMQ0wCwYDVQQIEwRNYWhhMQ0wCwYDVQQHEwRQdW5lMQ4w
DAYDVQQKEwVPYmxpeDEMMAoGA1UECxMDT0FNMSEwHwYDVQQDExhkYWR2bWMwNDA3
LnVzLm9yYWNsZS5jb20xHDAaBgkqhkiG9w0BCQEWDXNhZ2FyQHBzbC5jb20wgZ8w
DQYJKoZIhvcNAQEBBQADgY0AMIGJAoGBAMNE0dw7FhVr/WMEGoZdJxewRfNBlP7d
04WoX77qo+bSLgI1cyXI4Vljo7tXDVZTkbNV0p4LL9cNl8Iw39D11KiWIALbFp8B
3GhR5mpA8bBDSKRNH/AeGyIJZDmbQJ4Gc4GvDQFZ9WuU+9f+CISaEA1U2Lz4mc0q
OEThshF+r2ePAgMBAAGjZzBlMB8GA1UdIwQYMBaAFNv4ahUKglMfwuvM0G6Dclfk
RfJ0MDQGA1UdJQQtMCsGCCsGAQUFBwMBBggrBgEFBQcDAgYKKwYBBAGCNwoDAwYJ
YIZIAYb4QgQBMAwGA1UdEwEB/wQCMAAwDQYJKoZIhvcNAQEEBQADgYEAWVSi686N
JAP85Jz60/fqs/kA0BW5U/6zz1gPDOLhvsPIaEO7sh5QSwP70uhO9Kwhd5Mzxe7k
He0f2BS16HcUwWvigZ3BfPCv9vLmz6439iCPnyuX4lxYyluS3kMnTCkl/mEaNnL1
hS3ty5McZoYUFcPGArUHvK2t8m2At3s3X1s=
-----END CERTIFICATE-----
