Certificate:
    Data:
        Version: 3 (0x2)
        Serial Number: 135 (0x87)
        Signature Algorithm: md5WithRSAEncryption
        Issuer: C=MY, ST=MAHA, L=PUNE, O=PSPL, OU=OBLIX-QA, CN=ps2436/emailAddress=sagar@pspl.com
        Validity
            Not Before: Jul 17 09:16:01 2009 GMT
            Not After : Jul 17 09:16:01 2010 GMT
        Subject: C=IN, ST=MH, L=Pune, O=Oblix, OU=PSL, CN=dadvmc0407.us.oracle.com/emailAddress=ketan@psl.com
        Subject Public Key Info:
            Public Key Algorithm: rsaEncryption
            RSA Public Key: (1024 bit)
                Modulus (1024 bit):
                    00:bf:df:18:fe:69:c4:3f:4d:b5:78:a4:2b:ef:ee:
                    a3:10:db:e7:ac:43:8e:ec:7c:04:86:86:36:1f:99:
                    1b:a5:b3:88:66:c5:f3:e9:ff:f5:74:89:8a:5d:63:
                    a4:0d:66:36:32:02:63:79:f9:fd:e3:44:09:4e:1f:
                    72:aa:c8:b6:fa:df:41:0f:f5:a2:62:84:3a:0e:8d:
                    ab:4d:68:04:45:1a:40:46:e1:65:e5:92:61:33:4c:
                    6b:4c:80:07:69:19:ee:90:36:79:9d:3c:0b:75:67:
                    54:39:34:c5:6f:10:8e:77:ca:a6:fa:34:c5:30:eb:
                    8d:c4:88:7e:99:ae:c3:fe:2b
                Exponent: 65537 (0x10001)
        X509v3 extensions:
            X509v3 Authority Key Identifier: 
            keyid:DB:F8:6A:15:0A:82:53:1F:C2:EB:CC:D0:6E:83:72:57:E4:45:F2:74

            X509v3 Extended Key Usage: 
            TLS Web Server Authentication, TLS Web Client Authentication, Microsoft Server Gated Crypto, Netscape Server Gated Crypto
            X509v3 Basic Constraints: critical
            CA:FALSE
    Signature Algorithm: md5WithRSAEncryption
        39:d2:29:40:c0:c8:49:75:25:02:47:72:28:1e:e8:d2:fb:7f:
        fe:e4:1e:d5:2d:02:a5:89:d6:e2:58:a2:15:d2:a0:98:bf:e2:
        31:31:b2:c6:bf:5b:37:eb:d6:bd:fd:15:79:f9:ee:fc:0f:48:
        12:3c:f3:6e:ab:f1:cf:3f:b6:94:33:29:70:26:8a:7c:b6:6d:
        d0:f6:1a:5e:99:82:9b:e1:87:45:d7:75:ba:ec:38:82:b2:a5:
        3b:c9:c5:42:93:b3:b5:f7:55:cc:02:94:29:38:fa:83:56:3f:
        db:e8:b9:d4:43:f7:42:06:dc:1a:35:85:f7:01:f4:d7:7e:fd:
        ac:c1
-----BEGIN CERTIFICATE-----
MIIC5DCCAk2gAwIBAgICAIcwDQYJKoZIhvcNAQEEBQAwfTELMAkGA1UEBhMCTVkx
DTALBgNVBAgTBE1BSEExDTALBgNVBAcTBFBVTkUxDTALBgNVBAoTBFBTUEwxETAP
BgNVBAsTCE9CTElYLVFBMQ8wDQYDVQQDEwZwczI0MzYxHTAbBgkqhkiG9w0BCQEW
DnNhZ2FyQHBzcGwuY29tMB4XDTA5MDcxNzA5MTYwMVoXDTEwMDcxNzA5MTYwMVow
gYgxCzAJBgNVBAYTAklOMQswCQYDVQQIEwJNSDENMAsGA1UEBxMEUHVuZTEOMAwG
A1UEChMFT2JsaXgxDDAKBgNVBAsTA1BTTDEhMB8GA1UEAxMYZGFkdm1jMDQwNy51
cy5vcmFjbGUuY29tMRwwGgYJKoZIhvcNAQkBFg1rZXRhbkBwc2wuY29tMIGfMA0G
CSqGSIb3DQEBAQUAA4GNADCBiQKBgQC/3xj+acQ/TbV4pCvv7qMQ2+esQ47sfASG
hjYfmRuls4hmxfPp//V0iYpdY6QNZjYyAmN5+f3jRAlOH3KqyLb630EP9aJihDoO
jatNaARFGkBG4WXlkmEzTGtMgAdpGe6QNnmdPAt1Z1Q5NMVvEI53yqb6NMUw643E
iH6ZrsP+KwIDAQABo2cwZTAfBgNVHSMEGDAWgBTb+GoVCoJTH8LrzNBug3JX5EXy
dDA0BgNVHSUELTArBggrBgEFBQcDAQYIKwYBBQUHAwIGCisGAQQBgjcKAwMGCWCG
SAGG+EIEATAMBgNVHRMBAf8EAjAAMA0GCSqGSIb3DQEBBAUAA4GBADnSKUDAyEl1
JQJHcige6NL7f/7kHtUtAqWJ1uJYohXSoJi/4jExssa/Wzfr1r39FXn57vwPSBI8
826r8c8/tpQzKXAminy2bdD2Gl6Zgpvhh0XXdbrsOIKypTvJxUKTs7X3VcwClCk4
+oNWP9voudRD90IG3Bo1hfcB9Nd+/azB
-----END CERTIFICATE-----
