Certificate:
    Data:
        Version: 3 (0x2)
        Serial Number: 136 (0x88)
        Signature Algorithm: md5WithRSAEncryption
        Issuer: C=MY, ST=MAHA, L=PUNE, O=PSPL, OU=OBLIX-QA, CN=ps2436/emailAddress=sagar@pspl.com
        Validity
            Not Before: Jul 27 14:18:05 2009 GMT
            Not After : Jul 27 14:18:05 2010 GMT
        Subject: C=In, ST=Maha, L=Pune, O=PSL, OU=Oracle, CN=dadvmc0387.us.oracle.com/emailAddress=sagar@psl.com
        Subject Public Key Info:
            Public Key Algorithm: rsaEncryption
            RSA Public Key: (1024 bit)
                Modulus (1024 bit):
                    00:b6:a2:f6:1e:a4:69:82:9d:27:3e:33:e7:13:a9:
                    0f:d7:9b:85:2a:ce:6e:3d:48:80:ca:4d:63:1c:b5:
                    90:a7:97:5b:9c:af:e7:11:23:29:58:b9:c4:ef:e0:
                    5f:85:d6:d2:04:a5:11:08:74:4b:fd:08:b2:3a:f6:
                    d0:6e:b8:42:48:3b:01:7b:84:30:77:f7:6b:37:43:
                    46:01:fe:ca:d6:ea:3a:fd:09:1c:01:20:09:1c:b3:
                    6e:8f:e0:2d:0e:be:2d:20:0b:27:9a:be:9f:a9:48:
                    83:56:98:6c:68:f2:4a:41:cc:15:d6:9c:de:4d:bc:
                    16:99:8a:0d:0f:d3:1a:41:15
                Exponent: 65537 (0x10001)
        X509v3 extensions:
            X509v3 Authority Key Identifier: 
            keyid:DB:F8:6A:15:0A:82:53:1F:C2:EB:CC:D0:6E:83:72:57:E4:45:F2:74

            X509v3 Extended Key Usage: 
            TLS Web Server Authentication, TLS Web Client Authentication, Microsoft Server Gated Crypto, Netscape Server Gated Crypto
            X509v3 Basic Constraints: critical
            CA:FALSE
    Signature Algorithm: md5WithRSAEncryption
        40:be:ed:58:98:5a:5f:f1:3a:c5:49:ef:6d:54:1c:75:f1:97:
        71:80:cb:90:f6:c8:6d:fc:39:41:8e:44:f5:98:5c:f6:e3:51:
        90:93:3e:31:60:62:d4:be:c1:5e:4a:a4:cf:41:18:f4:25:36:
        46:7f:69:47:50:2f:ae:12:2f:da:5d:04:02:37:b8:e2:a2:de:
        e6:25:37:c6:e5:48:3c:4f:65:38:4c:c6:61:31:30:5c:79:da:
        eb:ee:ce:a8:01:d9:71:bc:0f:ff:f1:89:3e:1e:56:ad:b7:7f:
        33:fc:9f:5f:10:ce:a3:6e:62:94:47:e1:37:1e:28:b6:77:b9:
        d0:db
-----BEGIN CERTIFICATE-----
MIIC5zCCAlCgAwIBAgICAIgwDQYJKoZIhvcNAQEEBQAwfTELMAkGA1UEBhMCTVkx
DTALBgNVBAgTBE1BSEExDTALBgNVBAcTBFBVTkUxDTALBgNVBAoTBFBTUEwxETAP
BgNVBAsTCE9CTElYLVFBMQ8wDQYDVQQDEwZwczI0MzYxHTAbBgkqhkiG9w0BCQEW
DnNhZ2FyQHBzcGwuY29tMB4XDTA5MDcyNzE0MTgwNVoXDTEwMDcyNzE0MTgwNVow
gYsxCzAJBgNVBAYTAkluMQ0wCwYDVQQIEwRNYWhhMQ0wCwYDVQQHEwRQdW5lMQww
CgYDVQQKEwNQU0wxDzANBgNVBAsTBk9yYWNsZTEhMB8GA1UEAxMYZGFkdm1jMDM4
Ny51cy5vcmFjbGUuY29tMRwwGgYJKoZIhvcNAQkBFg1zYWdhckBwc2wuY29tMIGf
MA0GCSqGSIb3DQEBAQUAA4GNADCBiQKBgQC2ovYepGmCnSc+M+cTqQ/Xm4Uqzm49
SIDKTWMctZCnl1ucr+cRIylYucTv4F+F1tIEpREIdEv9CLI69tBuuEJIOwF7hDB3
92s3Q0YB/srW6jr9CRwBIAkcs26P4C0Ovi0gCyeavp+pSINWmGxo8kpBzBXWnN5N
vBaZig0P0xpBFQIDAQABo2cwZTAfBgNVHSMEGDAWgBTb+GoVCoJTH8LrzNBug3JX
5EXydDA0BgNVHSUELTArBggrBgEFBQcDAQYIKwYBBQUHAwIGCisGAQQBgjcKAwMG
CWCGSAGG+EIEATAMBgNVHRMBAf8EAjAAMA0GCSqGSIb3DQEBBAUAA4GBAEC+7ViY
Wl/xOsVJ721UHHXxl3GAy5D2yG38OUGORPWYXPbjUZCTPjFgYtS+wV5KpM9BGPQl
NkZ/aUdQL64SL9pdBAI3uOKi3uYlN8blSDxPZThMxmExMFx52uvuzqgB2XG8D//x
iT4eVq23fzP8n18QzqNuYpRH4TceKLZ3udDb
-----END CERTIFICATE-----
