Certificate:
    Data:
        Version: 3 (0x2)
        Serial Number: 137 (0x89)
        Signature Algorithm: md5WithRSAEncryption
        Issuer: C=MY, ST=MAHA, L=PUNE, O=PSPL, OU=OBLIX-QA, CN=ps2436/emailAddress=sagar@pspl.com
        Validity
            Not Before: Jul 27 14:36:26 2009 GMT
            Not After : Jul 27 14:36:26 2010 GMT
        Subject: CN=weblogic/emailAddress=sagar@psl.com
        Subject Public Key Info:
            Public Key Algorithm: rsaEncryption
            RSA Public Key: (1024 bit)
                Modulus (1024 bit):
                    00:be:f9:e4:3e:27:b4:0b:4b:36:3f:ad:13:56:cf:
                    ec:f2:d8:1a:51:ac:b7:de:44:8f:05:86:a3:a1:9f:
                    fe:e8:bf:02:82:71:ff:3a:04:f5:f4:07:a3:8b:15:
                    34:24:da:c5:1c:1d:18:3a:7a:9b:2a:7b:7e:4e:1f:
                    9e:21:16:0a:73:65:d6:30:7b:50:d1:1c:a7:3b:96:
                    2c:54:d8:fb:3e:e8:fb:a3:b8:46:cb:72:d2:82:c7:
                    43:7c:2b:21:d3:e5:c8:6f:34:79:37:56:8f:97:9e:
                    b3:63:b3:78:91:58:91:4e:0d:86:31:3b:2c:68:16:
                    b3:6b:48:73:a7:97:11:6c:1f
                Exponent: 65537 (0x10001)
        X509v3 extensions:
            X509v3 Subject Alternative Name: 
            email:sagar@psl.com
            X509v3 Basic Constraints: critical
            CA:FALSE
            X509v3 Authority Key Identifier: 
            keyid:DB:F8:6A:15:0A:82:53:1F:C2:EB:CC:D0:6E:83:72:57:E4:45:F2:74

            X509v3 Extended Key Usage: 
            TLS Web Client Authentication, E-mail Protection
    Signature Algorithm: md5WithRSAEncryption
        75:6b:81:61:33:17:c5:46:cf:08:58:26:b0:fd:27:65:52:e6:
        2c:97:9a:07:5b:81:fe:92:71:bf:d0:28:0a:af:ad:e8:ba:1f:
        76:0f:9c:ca:2a:27:2c:5c:45:05:8f:0c:98:2b:ca:50:28:31:
        e2:48:64:cc:a4:82:93:11:ca:f3:47:86:89:43:9a:f6:c6:1e:
        d1:a1:ff:d1:45:70:10:14:24:a6:93:2c:d8:c3:ce:4f:15:81:
        b1:bf:75:8f:77:32:29:64:10:bf:c3:c7:1e:6f:83:d0:a7:3f:
        af:d6:2a:3a:eb:9b:90:df:18:09:13:f2:3b:b0:3c:a0:0e:a2:
        6e:00
-----BEGIN CERTIFICATE-----
MIICjzCCAfigAwIBAgICAIkwDQYJKoZIhvcNAQEEBQAwfTELMAkGA1UEBhMCTVkx
DTALBgNVBAgTBE1BSEExDTALBgNVBAcTBFBVTkUxDTALBgNVBAoTBFBTUEwxETAP
BgNVBAsTCE9CTElYLVFBMQ8wDQYDVQQDEwZwczI0MzYxHTAbBgkqhkiG9w0BCQEW
DnNhZ2FyQHBzcGwuY29tMB4XDTA5MDcyNzE0MzYyNloXDTEwMDcyNzE0MzYyNlow
MTERMA8GA1UEAxMId2VibG9naWMxHDAaBgkqhkiG9w0BCQEWDXNhZ2FyQHBzbC5j
b20wgZ8wDQYJKoZIhvcNAQEBBQADgY0AMIGJAoGBAL755D4ntAtLNj+tE1bP7PLY
GlGst95EjwWGo6Gf/ui/AoJx/zoE9fQHo4sVNCTaxRwdGDp6myp7fk4fniEWCnNl
1jB7UNEcpzuWLFTY+z7o+6O4Rsty0oLHQ3wrIdPlyG80eTdWj5ees2OzeJFYkU4N
hjE7LGgWs2tIc6eXEWwfAgMBAAGjajBoMBgGA1UdEQQRMA+BDXNhZ2FyQHBzbC5j
b20wDAYDVR0TAQH/BAIwADAfBgNVHSMEGDAWgBTb+GoVCoJTH8LrzNBug3JX5EXy
dDAdBgNVHSUEFjAUBggrBgEFBQcDAgYIKwYBBQUHAwQwDQYJKoZIhvcNAQEEBQAD
gYEAdWuBYTMXxUbPCFgmsP0nZVLmLJeaB1uB/pJxv9AoCq+t6Lofdg+cyionLFxF
BY8MmCvKUCgx4khkzKSCkxHK80eGiUOa9sYe0aH/0UVwEBQkppMs2MPOTxWBsb91
j3cyKWQQv8PHHm+D0Kc/r9YqOuubkN8YCRPyO7A8oA6ibgA=
-----END CERTIFICATE-----
