Certificate:
    Data:
        Version: 3 (0x2)
        Serial Number: 138 (0x8a)
        Signature Algorithm: md5WithRSAEncryption
        Issuer: C=MY, ST=MAHA, L=PUNE, O=PSPL, OU=OBLIX-QA, CN=ps2436/emailAddress=sagar@pspl.com
        Validity
            Not Before: Jul 28 06:34:55 2009 GMT
            Not After : Jul 28 06:34:55 2010 GMT
        Subject: C=In, ST=Maha, L=Pune, O=PSL, OU=Oracle, CN=spork6.us.oracle.com/emailAddress=sagar@psl.com
        Subject Public Key Info:
            Public Key Algorithm: rsaEncryption
            RSA Public Key: (1024 bit)
                Modulus (1024 bit):
                    00:c9:7d:29:86:b9:f2:16:be:68:d5:e4:6b:61:d9:
                    61:62:a5:47:2f:e4:64:89:e5:21:1a:82:67:5a:42:
                    ee:83:66:e6:4d:14:07:4e:0f:dd:72:08:b9:78:8e:
                    ea:8e:2c:24:0e:54:8a:6f:92:ef:09:6e:73:16:45:
                    cc:e1:a9:85:10:a2:73:bd:0a:66:ca:27:75:70:5a:
                    d5:c9:e3:1b:e8:f7:5f:6d:82:2d:27:d3:2e:51:3a:
                    bb:2a:52:e6:57:90:35:c6:e8:41:ec:c1:4e:f1:9f:
                    be:48:7a:39:36:b9:e5:7d:87:f6:70:b1:d0:b1:a9:
                    e7:0f:a4:34:9e:5b:de:c4:1b
                Exponent: 65537 (0x10001)
        X509v3 extensions:
            X509v3 Authority Key Identifier: 
            keyid:DB:F8:6A:15:0A:82:53:1F:C2:EB:CC:D0:6E:83:72:57:E4:45:F2:74

            X509v3 Extended Key Usage: 
            TLS Web Server Authentication, TLS Web Client Authentication, Microsoft Server Gated Crypto, Netscape Server Gated Crypto
            X509v3 Basic Constraints: critical
            CA:FALSE
    Signature Algorithm: md5WithRSAEncryption
        45:1f:cc:bd:4e:3d:f3:ae:ca:ff:ce:35:50:e7:5e:a7:6c:cc:
        f6:10:ef:12:d2:66:44:df:86:a4:6b:ef:81:a1:f4:16:f6:b4:
        d3:3d:01:87:f3:c8:2e:8d:c6:2b:5d:97:55:7e:c5:1f:2f:30:
        ca:b6:da:af:72:1b:41:e6:c3:3d:6f:bf:49:2d:0d:a2:c5:ee:
        86:30:23:f4:96:dc:c9:5d:13:a3:bb:51:4e:93:ea:e2:73:31:
        40:1f:1e:9a:37:c4:cb:1d:54:38:fa:18:56:cd:79:7f:1d:ac:
        a7:25:65:07:38:53:d9:34:ee:4b:d6:93:c6:7d:85:2c:10:c7:
        9a:c5
-----BEGIN CERTIFICATE-----
MIIC4zCCAkygAwIBAgICAIowDQYJKoZIhvcNAQEEBQAwfTELMAkGA1UEBhMCTVkx
DTALBgNVBAgTBE1BSEExDTALBgNVBAcTBFBVTkUxDTALBgNVBAoTBFBTUEwxETAP
BgNVBAsTCE9CTElYLVFBMQ8wDQYDVQQDEwZwczI0MzYxHTAbBgkqhkiG9w0BCQEW
DnNhZ2FyQHBzcGwuY29tMB4XDTA5MDcyODA2MzQ1NVoXDTEwMDcyODA2MzQ1NVow
gYcxCzAJBgNVBAYTAkluMQ0wCwYDVQQIEwRNYWhhMQ0wCwYDVQQHEwRQdW5lMQww
CgYDVQQKEwNQU0wxDzANBgNVBAsTBk9yYWNsZTEdMBsGA1UEAxMUc3Bvcms2LnVz
Lm9yYWNsZS5jb20xHDAaBgkqhkiG9w0BCQEWDXNhZ2FyQHBzbC5jb20wgZ8wDQYJ
KoZIhvcNAQEBBQADgY0AMIGJAoGBAMl9KYa58ha+aNXka2HZYWKlRy/kZInlIRqC
Z1pC7oNm5k0UB04P3XIIuXiO6o4sJA5Uim+S7wlucxZFzOGphRCic70KZsondXBa
1cnjG+j3X22CLSfTLlE6uypS5leQNcboQezBTvGfvkh6OTa55X2H9nCx0LGp5w+k
NJ5b3sQbAgMBAAGjZzBlMB8GA1UdIwQYMBaAFNv4ahUKglMfwuvM0G6DclfkRfJ0
MDQGA1UdJQQtMCsGCCsGAQUFBwMBBggrBgEFBQcDAgYKKwYBBAGCNwoDAwYJYIZI
AYb4QgQBMAwGA1UdEwEB/wQCMAAwDQYJKoZIhvcNAQEEBQADgYEARR/MvU49867K
/841UOdep2zM9hDvEtJmRN+GpGvvgaH0Fva00z0Bh/PILo3GK12XVX7FHy8wyrba
r3IbQebDPW+/SS0NosXuhjAj9JbcyV0To7tRTpPq4nMxQB8emjfEyx1UOPoYVs15
fx2spyVlBzhT2TTuS9aTxn2FLBDHmsU=
-----END CERTIFICATE-----
