Certificate:
    Data:
        Version: 3 (0x2)
        Serial Number: 139 (0x8b)
        Signature Algorithm: md5WithRSAEncryption
        Issuer: C=MY, ST=MAHA, L=PUNE, O=PSPL, OU=OBLIX-QA, CN=ps2436/emailAddress=sagar@pspl.com
        Validity
            Not Before: Jul 30 14:09:38 2009 GMT
            Not After : Jul 30 14:09:38 2010 GMT
        Subject: C=US, ST=State, L=LO, O=Oracle, OU=Oblix, CN=stevef-v2.us.oracle.com
        Subject Public Key Info:
            Public Key Algorithm: rsaEncryption
            RSA Public Key: (1024 bit)
                Modulus (1024 bit):
                    00:a4:2c:16:db:97:4a:33:bb:66:19:50:b0:f5:c6:
                    10:b0:90:d0:cf:e0:c4:09:42:b3:4d:43:1c:9b:d5:
                    23:3c:49:61:f3:b4:9d:da:7b:ac:f2:38:4b:ad:74:
                    33:c2:a4:08:79:89:85:db:79:09:28:e1:a5:fa:a8:
                    7f:93:82:e6:3f:98:95:d4:e9:cb:a2:c4:cc:19:99:
                    b8:79:9f:e8:b3:d6:da:93:d0:66:b8:ef:36:4b:86:
                    1d:eb:1b:74:c0:55:ff:a0:af:e8:3e:5c:82:3c:1d:
                    2b:40:73:bb:d9:4c:e5:d9:6d:56:20:9c:e1:ac:9f:
                    e0:01:53:93:c5:47:e4:48:53
                Exponent: 65537 (0x10001)
        X509v3 extensions:
            X509v3 Authority Key Identifier: 
            keyid:DB:F8:6A:15:0A:82:53:1F:C2:EB:CC:D0:6E:83:72:57:E4:45:F2:74

            X509v3 Extended Key Usage: 
            TLS Web Server Authentication, TLS Web Client Authentication, Microsoft Server Gated Crypto, Netscape Server Gated Crypto
            X509v3 Basic Constraints: critical
            CA:FALSE
    Signature Algorithm: md5WithRSAEncryption
        49:0d:8d:65:85:75:0e:af:6f:df:4d:ab:04:ff:ba:de:c1:01:
        39:1e:6e:5c:fb:c9:42:5c:2b:81:b1:27:7f:ed:4b:38:a1:98:
        d1:fa:d7:04:2a:37:8a:3c:46:f9:8d:dd:65:8b:db:5d:7a:f9:
        7b:ce:a9:f6:7a:9a:ef:c4:eb:8d:8b:62:77:45:62:a3:b2:ab:
        9e:92:b4:e5:53:f6:88:a4:b0:5d:d3:6c:9b:de:f2:5a:99:b8:
        3b:bb:b1:40:61:e6:a6:d9:9f:bc:3f:43:5d:12:25:8b:ec:8e:
        b0:3b:c5:c5:df:f3:e0:e5:11:35:27:f0:c6:f1:e0:18:af:f8:
        6e:6d
-----BEGIN CERTIFICATE-----
MIICyDCCAjGgAwIBAgICAIswDQYJKoZIhvcNAQEEBQAwfTELMAkGA1UEBhMCTVkx
DTALBgNVBAgTBE1BSEExDTALBgNVBAcTBFBVTkUxDTALBgNVBAoTBFBTUEwxETAP
BgNVBAsTCE9CTElYLVFBMQ8wDQYDVQQDEwZwczI0MzYxHTAbBgkqhkiG9w0BCQEW
DnNhZ2FyQHBzcGwuY29tMB4XDTA5MDczMDE0MDkzOFoXDTEwMDczMDE0MDkzOFow
bTELMAkGA1UEBhMCVVMxDjAMBgNVBAgTBVN0YXRlMQswCQYDVQQHEwJMTzEPMA0G
A1UEChMGT3JhY2xlMQ4wDAYDVQQLEwVPYmxpeDEgMB4GA1UEAxMXc3RldmVmLXYy
LnVzLm9yYWNsZS5jb20wgZ8wDQYJKoZIhvcNAQEBBQADgY0AMIGJAoGBAKQsFtuX
SjO7ZhlQsPXGELCQ0M/gxAlCs01DHJvVIzxJYfO0ndp7rPI4S610M8KkCHmJhdt5
CSjhpfqof5OC5j+YldTpy6LEzBmZuHmf6LPW2pPQZrjvNkuGHesbdMBV/6Cv6D5c
gjwdK0Bzu9lM5dltViCc4ayf4AFTk8VH5EhTAgMBAAGjZzBlMB8GA1UdIwQYMBaA
FNv4ahUKglMfwuvM0G6DclfkRfJ0MDQGA1UdJQQtMCsGCCsGAQUFBwMBBggrBgEF
BQcDAgYKKwYBBAGCNwoDAwYJYIZIAYb4QgQBMAwGA1UdEwEB/wQCMAAwDQYJKoZI
hvcNAQEEBQADgYEASQ2NZYV1Dq9v302rBP+63sEBOR5uXPvJQlwrgbEnf+1LOKGY
0frXBCo3ijxG+Y3dZYvbXXr5e86p9nqa78TrjYtid0Vio7KrnpK05VP2iKSwXdNs
m97yWpm4O7uxQGHmptmfvD9DXRIli+yOsDvFxd/z4OURNSfwxvHgGK/4bm0=
-----END CERTIFICATE-----
