Certificate:
    Data:
        Version: 3 (0x2)
        Serial Number: 140 (0x8c)
        Signature Algorithm: md5WithRSAEncryption
        Issuer: C=MY, ST=MAHA, L=PUNE, O=PSPL, OU=OBLIX-QA, CN=ps2436/emailAddress=sagar@pspl.com
        Validity
            Not Before: Aug  3 13:18:15 2009 GMT
            Not After : Aug  3 13:18:15 2010 GMT
        Subject: C=US, ST=State, L=Loc, O=Oracle, OU=Oblix, CN=spork7.us.oracle.com
        Subject Public Key Info:
            Public Key Algorithm: rsaEncryption
            RSA Public Key: (1024 bit)
                Modulus (1024 bit):
                    00:f0:b0:af:26:b7:69:04:fd:15:a9:0d:fa:5d:76:
                    bf:51:3c:0e:f3:cc:15:52:7d:91:36:a8:b9:5e:b1:
                    ad:3a:0a:cf:33:13:5b:e9:1a:e9:2d:5e:de:97:32:
                    54:f3:2c:66:56:71:30:97:84:22:c6:16:95:58:19:
                    b7:04:f7:ff:f9:5a:b5:2a:19:3b:54:fe:5f:d6:cd:
                    fe:62:23:7c:70:e3:91:6f:4e:7c:fb:4a:0b:54:0f:
                    cc:92:08:05:39:c7:c9:a8:e1:8f:67:cb:be:fc:97:
                    0a:e1:4b:a0:91:56:8e:58:33:98:08:ec:6c:60:5a:
                    42:79:d1:4f:48:c4:c3:1b:a5
                Exponent: 65537 (0x10001)
        X509v3 extensions:
            X509v3 Authority Key Identifier: 
            keyid:DB:F8:6A:15:0A:82:53:1F:C2:EB:CC:D0:6E:83:72:57:E4:45:F2:74

            X509v3 Extended Key Usage: 
            TLS Web Server Authentication, TLS Web Client Authentication, Microsoft Server Gated Crypto, Netscape Server Gated Crypto
            X509v3 Basic Constraints: critical
            CA:FALSE
    Signature Algorithm: md5WithRSAEncryption
        65:ff:94:38:25:6f:27:28:b0:c8:a7:31:0b:22:6a:ef:c1:c9:
        ba:66:f3:d6:1f:51:9b:77:c3:f0:2c:dc:be:db:7f:ec:45:43:
        5d:6f:36:68:76:61:e4:0b:f4:07:1d:99:78:8b:31:1b:76:31:
        f8:a3:84:cf:86:cc:37:cb:9b:a7:ec:3c:df:3d:eb:00:06:c0:
        d0:e3:5c:b1:5e:38:a5:98:32:b9:b4:05:30:fb:a0:b6:ef:a7:
        9a:8a:60:bc:fe:e3:8d:13:c9:17:12:59:25:6d:d1:70:4c:b2:
        e2:01:03:aa:b6:22:ed:67:62:1d:ec:a5:9b:30:9d:23:53:1b:
        4d:ab
-----BEGIN CERTIFICATE-----
MIICxjCCAi+gAwIBAgICAIwwDQYJKoZIhvcNAQEEBQAwfTELMAkGA1UEBhMCTVkx
DTALBgNVBAgTBE1BSEExDTALBgNVBAcTBFBVTkUxDTALBgNVBAoTBFBTUEwxETAP
BgNVBAsTCE9CTElYLVFBMQ8wDQYDVQQDEwZwczI0MzYxHTAbBgkqhkiG9w0BCQEW
DnNhZ2FyQHBzcGwuY29tMB4XDTA5MDgwMzEzMTgxNVoXDTEwMDgwMzEzMTgxNVow
azELMAkGA1UEBhMCVVMxDjAMBgNVBAgTBVN0YXRlMQwwCgYDVQQHEwNMb2MxDzAN
BgNVBAoTBk9yYWNsZTEOMAwGA1UECxMFT2JsaXgxHTAbBgNVBAMTFHNwb3JrNy51
cy5vcmFjbGUuY29tMIGfMA0GCSqGSIb3DQEBAQUAA4GNADCBiQKBgQDwsK8mt2kE
/RWpDfpddr9RPA7zzBVSfZE2qLlesa06Cs8zE1vpGuktXt6XMlTzLGZWcTCXhCLG
FpVYGbcE9//5WrUqGTtU/l/Wzf5iI3xw45FvTnz7SgtUD8ySCAU5x8mo4Y9ny778
lwrhS6CRVo5YM5gI7GxgWkJ50U9IxMMbpQIDAQABo2cwZTAfBgNVHSMEGDAWgBTb
+GoVCoJTH8LrzNBug3JX5EXydDA0BgNVHSUELTArBggrBgEFBQcDAQYIKwYBBQUH
AwIGCisGAQQBgjcKAwMGCWCGSAGG+EIEATAMBgNVHRMBAf8EAjAAMA0GCSqGSIb3
DQEBBAUAA4GBAGX/lDglbycosMinMQsiau/Bybpm89YfUZt3w/As3L7bf+xFQ11v
Nmh2YeQL9AcdmXiLMRt2MfijhM+GzDfLm6fsPN896wAGwNDjXLFeOKWYMrm0BTD7
oLbvp5qKYLz+440TyRcSWSVt0XBMsuIBA6q2Iu1nYh3spZswnSNTG02r
-----END CERTIFICATE-----
