Certificate:
    Data:
        Version: 3 (0x2)
        Serial Number: 141 (0x8d)
        Signature Algorithm: md5WithRSAEncryption
        Issuer: C=MY, ST=MAHA, L=PUNE, O=PSPL, OU=OBLIX-QA, CN=ps2436/emailAddress=sagar@pspl.com
        Validity
            Not Before: Aug 26 09:42:21 2009 GMT
            Not After : Aug 26 09:42:21 2010 GMT
        Subject: C=IN, ST=MAHA, L=PUNE, O=PSL, OU=ORACLE, CN=dadvmc0387.us.oracle.com/emailAddress=sagar@psl.com
        Subject Public Key Info:
            Public Key Algorithm: rsaEncryption
            RSA Public Key: (1024 bit)
                Modulus (1024 bit):
                    00:b6:a2:f6:1e:a4:69:82:9d:27:3e:33:e7:13:a9:
                    0f:d7:9b:85:2a:ce:6e:3d:48:80:ca:4d:63:1c:b5:
                    90:a7:97:5b:9c:af:e7:11:23:29:58:b9:c4:ef:e0:
                    5f:85:d6:d2:04:a5:11:08:74:4b:fd:08:b2:3a:f6:
                    d0:6e:b8:42:48:3b:01:7b:84:30:77:f7:6b:37:43:
                    46:01:fe:ca:d6:ea:3a:fd:09:1c:01:20:09:1c:b3:
                    6e:8f:e0:2d:0e:be:2d:20:0b:27:9a:be:9f:a9:48:
                    83:56:98:6c:68:f2:4a:41:cc:15:d6:9c:de:4d:bc:
                    16:99:8a:0d:0f:d3:1a:41:15
                Exponent: 65537 (0x10001)
        X509v3 extensions:
            X509v3 Authority Key Identifier: 
            keyid:DB:F8:6A:15:0A:82:53:1F:C2:EB:CC:D0:6E:83:72:57:E4:45:F2:74

            X509v3 Extended Key Usage: 
            TLS Web Server Authentication, TLS Web Client Authentication, Microsoft Server Gated Crypto, Netscape Server Gated Crypto
            X509v3 Basic Constraints: critical
            CA:FALSE
    Signature Algorithm: md5WithRSAEncryption
        57:2b:c0:fc:56:ca:cf:dc:a6:df:ea:93:fa:01:e2:f8:3c:47:
        6a:47:0a:51:24:60:89:19:ab:2b:ac:42:68:6a:92:4c:63:6a:
        bf:66:67:99:0a:cb:cb:82:f0:7a:a3:84:d4:72:07:75:25:29:
        3e:1c:34:6e:0d:78:92:1d:d3:8d:f8:6b:0a:4f:2f:52:50:38:
        ba:e9:1a:55:a3:46:1a:34:30:0e:c3:fe:06:e0:49:d9:53:44:
        7c:cc:cd:17:ec:6d:d8:26:90:5d:cb:c6:92:80:e6:7c:e8:ed:
        91:6f:cf:46:5d:3e:f4:b5:1d:07:f2:c8:f8:ef:c9:8c:50:0f:
        f9:64
-----BEGIN CERTIFICATE-----
MIIC5zCCAlCgAwIBAgICAI0wDQYJKoZIhvcNAQEEBQAwfTELMAkGA1UEBhMCTVkx
DTALBgNVBAgTBE1BSEExDTALBgNVBAcTBFBVTkUxDTALBgNVBAoTBFBTUEwxETAP
BgNVBAsTCE9CTElYLVFBMQ8wDQYDVQQDEwZwczI0MzYxHTAbBgkqhkiG9w0BCQEW
DnNhZ2FyQHBzcGwuY29tMB4XDTA5MDgyNjA5NDIyMVoXDTEwMDgyNjA5NDIyMVow
gYsxCzAJBgNVBAYTAklOMQ0wCwYDVQQIEwRNQUhBMQ0wCwYDVQQHEwRQVU5FMQww
CgYDVQQKEwNQU0wxDzANBgNVBAsTBk9SQUNMRTEhMB8GA1UEAxMYZGFkdm1jMDM4
Ny51cy5vcmFjbGUuY29tMRwwGgYJKoZIhvcNAQkBFg1zYWdhckBwc2wuY29tMIGf
MA0GCSqGSIb3DQEBAQUAA4GNADCBiQKBgQC2ovYepGmCnSc+M+cTqQ/Xm4Uqzm49
SIDKTWMctZCnl1ucr+cRIylYucTv4F+F1tIEpREIdEv9CLI69tBuuEJIOwF7hDB3
92s3Q0YB/srW6jr9CRwBIAkcs26P4C0Ovi0gCyeavp+pSINWmGxo8kpBzBXWnN5N
vBaZig0P0xpBFQIDAQABo2cwZTAfBgNVHSMEGDAWgBTb+GoVCoJTH8LrzNBug3JX
5EXydDA0BgNVHSUELTArBggrBgEFBQcDAQYIKwYBBQUHAwIGCisGAQQBgjcKAwMG
CWCGSAGG+EIEATAMBgNVHRMBAf8EAjAAMA0GCSqGSIb3DQEBBAUAA4GBAFcrwPxW
ys/cpt/qk/oB4vg8R2pHClEkYIkZqyusQmhqkkxjar9mZ5kKy8uC8HqjhNRyB3Ul
KT4cNG4NeJId0434awpPL1JQOLrpGlWjRho0MA7D/gbgSdlTRHzMzRfsbdgmkF3L
xpKA5nzo7ZFvz0ZdPvS1HQfyyPjvyYxQD/lk
-----END CERTIFICATE-----
