Certificate:
    Data:
        Version: 3 (0x2)
        Serial Number: 142 (0x8e)
        Signature Algorithm: md5WithRSAEncryption
        Issuer: C=MY, ST=MAHA, L=PUNE, O=PSPL, OU=OBLIX-QA, CN=ps2436/emailAddress=sagar@pspl.com
        Validity
            Not Before: Feb  9 07:50:30 2010 GMT
            Not After : Feb  9 07:50:30 2011 GMT
        Subject: C=IN, ST=Maharashtra, L=Pune, O=PSL, OU=Oblix, CN=mayank/emailAddress=mayank@psl.com
        Subject Public Key Info:
            Public Key Algorithm: rsaEncryption
            RSA Public Key: (1024 bit)
                Modulus (1024 bit):
                    00:a8:a3:48:ca:3c:47:1a:4e:dd:8f:58:30:bf:23:
                    93:8b:12:db:47:63:0f:14:8a:f1:53:f0:e5:a3:85:
                    1f:97:bd:0b:bb:2e:ed:96:ee:d6:83:28:68:35:5c:
                    3a:33:f3:36:07:90:1c:a5:96:f6:16:89:3c:b7:cf:
                    c7:af:d7:c2:c1:25:80:07:bc:7f:81:e9:72:a0:56:
                    19:be:a5:ce:e9:bb:d9:ba:99:2a:05:59:9c:f0:49:
                    5f:b7:bd:6c:f1:5c:55:2a:83:0c:e4:21:d8:78:42:
                    ac:83:e1:33:58:39:4b:f2:be:39:4d:e5:1e:02:30:
                    b6:d3:41:04:81:1b:c6:27:05
                Exponent: 65537 (0x10001)
        X509v3 extensions:
            X509v3 Authority Key Identifier: 
            keyid:DB:F8:6A:15:0A:82:53:1F:C2:EB:CC:D0:6E:83:72:57:E4:45:F2:74

            X509v3 Extended Key Usage: 
            TLS Web Server Authentication, TLS Web Client Authentication, Microsoft Server Gated Crypto, Netscape Server Gated Crypto
            X509v3 Basic Constraints: critical
            CA:FALSE
    Signature Algorithm: md5WithRSAEncryption
        29:6f:af:61:97:06:b6:a6:ac:62:8e:7a:4b:d2:55:9e:00:16:
        04:2d:e5:31:f9:93:7b:03:ab:9f:e2:35:79:4e:44:6f:6d:a1:
        d1:2e:99:24:b9:69:e0:3e:4b:bd:e7:a1:cb:59:d7:ac:51:89:
        39:6b:05:48:27:f8:91:a9:ff:a3:8e:5d:f3:d2:45:2e:0f:68:
        1c:03:5b:19:40:02:43:2f:c7:a6:fe:a6:95:72:d2:4c:12:b1:
        87:b9:61:b6:cd:ef:3f:9a:13:0c:20:e5:21:b9:9e:87:5b:ef:
        3c:bd:ce:4a:92:2f:be:e9:fa:9f:b2:3d:8d:c8:76:df:b1:f1:
        30:b5
-----BEGIN CERTIFICATE-----
MIIC3DCCAkWgAwIBAgICAI4wDQYJKoZIhvcNAQEEBQAwfTELMAkGA1UEBhMCTVkx
DTALBgNVBAgTBE1BSEExDTALBgNVBAcTBFBVTkUxDTALBgNVBAoTBFBTUEwxETAP
BgNVBAsTCE9CTElYLVFBMQ8wDQYDVQQDEwZwczI0MzYxHTAbBgkqhkiG9w0BCQEW
DnNhZ2FyQHBzcGwuY29tMB4XDTEwMDIwOTA3NTAzMFoXDTExMDIwOTA3NTAzMFow
gYAxCzAJBgNVBAYTAklOMRQwEgYDVQQIEwtNYWhhcmFzaHRyYTENMAsGA1UEBxME
UHVuZTEMMAoGA1UEChMDUFNMMQ4wDAYDVQQLEwVPYmxpeDEPMA0GA1UEAxMGbWF5
YW5rMR0wGwYJKoZIhvcNAQkBFg5tYXlhbmtAcHNsLmNvbTCBnzANBgkqhkiG9w0B
AQEFAAOBjQAwgYkCgYEAqKNIyjxHGk7dj1gwvyOTixLbR2MPFIrxU/Dlo4Ufl70L
uy7tlu7WgyhoNVw6M/M2B5AcpZb2Fok8t8/Hr9fCwSWAB7x/gelyoFYZvqXO6bvZ
upkqBVmc8Elft71s8VxVKoMM5CHYeEKsg+EzWDlL8r45TeUeAjC200EEgRvGJwUC
AwEAAaNnMGUwHwYDVR0jBBgwFoAU2/hqFQqCUx/C68zQboNyV+RF8nQwNAYDVR0l
BC0wKwYIKwYBBQUHAwEGCCsGAQUFBwMCBgorBgEEAYI3CgMDBglghkgBhvhCBAEw
DAYDVR0TAQH/BAIwADANBgkqhkiG9w0BAQQFAAOBgQApb69hlwa2pqxijnpL0lWe
ABYELeUx+ZN7A6uf4jV5TkRvbaHRLpkkuWngPku956HLWdesUYk5awVIJ/iRqf+j
jl3z0kUuD2gcA1sZQAJDL8em/qaVctJMErGHuWG2ze8/mhMMIOUhuZ6HW+88vc5K
ki++6fqfsj2NyHbfsfEwtQ==
-----END CERTIFICATE-----
