Certificate:
    Data:
        Version: 3 (0x2)
        Serial Number: 143 (0x8f)
        Signature Algorithm: md5WithRSAEncryption
        Issuer: C=MY, ST=MAHA, L=PUNE, O=PSPL, OU=OBLIX-QA, CN=ps2436/emailAddress=sagar@pspl.com
        Validity
            Not Before: Feb  9 11:38:07 2010 GMT
            Not After : Feb  9 11:38:07 2011 GMT
        Subject: CN=weblogic/emailAddress=sagar@psl.com
        Subject Public Key Info:
            Public Key Algorithm: rsaEncryption
            RSA Public Key: (1024 bit)
                Modulus (1024 bit):
                    00:b6:c2:2e:8b:58:d9:a5:fc:2e:75:59:5c:95:84:
                    9b:d5:65:e7:88:62:37:4a:3f:52:10:3c:16:3d:cd:
                    43:b9:75:71:e4:83:75:b6:6f:02:ec:66:17:43:25:
                    f9:3a:75:44:2a:68:74:b3:d2:65:1c:75:f2:19:a2:
                    98:3d:09:a0:ab:47:15:ab:d7:69:dc:17:9d:d9:17:
                    82:a7:d0:ed:09:2a:96:02:a3:47:fd:b8:18:2c:ec:
                    be:85:b1:34:a6:4b:d3:62:40:c7:cb:e1:ee:be:ab:
                    45:7b:6e:35:68:c1:5f:0e:25:b5:96:f9:b2:30:8a:
                    2e:60:d5:d5:50:60:07:20:cb
                Exponent: 65537 (0x10001)
        X509v3 extensions:
            X509v3 Subject Alternative Name: 
            email:sagar@psl.com
            X509v3 Basic Constraints: critical
            CA:FALSE
            X509v3 Authority Key Identifier: 
            keyid:DB:F8:6A:15:0A:82:53:1F:C2:EB:CC:D0:6E:83:72:57:E4:45:F2:74

            X509v3 Extended Key Usage: 
            TLS Web Client Authentication, E-mail Protection
    Signature Algorithm: md5WithRSAEncryption
        8a:23:6a:8c:3d:22:7b:c7:7c:41:65:66:82:f0:43:ca:18:8a:
        95:ea:35:fe:46:e1:2e:9a:99:10:7b:83:36:5e:21:ec:1c:5d:
        0d:1a:55:02:ff:48:57:3a:96:0a:fa:da:64:40:ea:05:49:6d:
        12:db:c9:cc:e1:3e:d3:6b:6f:aa:51:f7:eb:a4:1e:d7:76:5a:
        08:78:98:98:5f:93:cb:c4:e8:10:32:fc:17:91:20:ad:1b:88:
        8d:07:68:5d:6e:b0:f9:20:12:e4:9c:94:d4:cb:1a:a8:ec:04:
        d3:47:28:c3:e5:fa:bf:44:67:1c:31:82:f5:0c:5a:3d:09:62:
        cd:64
-----BEGIN CERTIFICATE-----
MIICjzCCAfigAwIBAgICAI8wDQYJKoZIhvcNAQEEBQAwfTELMAkGA1UEBhMCTVkx
DTALBgNVBAgTBE1BSEExDTALBgNVBAcTBFBVTkUxDTALBgNVBAoTBFBTUEwxETAP
BgNVBAsTCE9CTElYLVFBMQ8wDQYDVQQDEwZwczI0MzYxHTAbBgkqhkiG9w0BCQEW
DnNhZ2FyQHBzcGwuY29tMB4XDTEwMDIwOTExMzgwN1oXDTExMDIwOTExMzgwN1ow
MTERMA8GA1UEAxMId2VibG9naWMxHDAaBgkqhkiG9w0BCQEWDXNhZ2FyQHBzbC5j
b20wgZ8wDQYJKoZIhvcNAQEBBQADgY0AMIGJAoGBALbCLotY2aX8LnVZXJWEm9Vl
54hiN0o/UhA8Fj3NQ7l1ceSDdbZvAuxmF0Ml+Tp1RCpodLPSZRx18hmimD0JoKtH
FavXadwXndkXgqfQ7QkqlgKjR/24GCzsvoWxNKZL02JAx8vh7r6rRXtuNWjBXw4l
tZb5sjCKLmDV1VBgByDLAgMBAAGjajBoMBgGA1UdEQQRMA+BDXNhZ2FyQHBzbC5j
b20wDAYDVR0TAQH/BAIwADAfBgNVHSMEGDAWgBTb+GoVCoJTH8LrzNBug3JX5EXy
dDAdBgNVHSUEFjAUBggrBgEFBQcDAgYIKwYBBQUHAwQwDQYJKoZIhvcNAQEEBQAD
gYEAiiNqjD0ie8d8QWVmgvBDyhiKleo1/kbhLpqZEHuDNl4h7BxdDRpVAv9IVzqW
CvraZEDqBUltEtvJzOE+02tvqlH366Qe13ZaCHiYmF+Ty8ToEDL8F5EgrRuIjQdo
XW6w+SAS5JyU1MsaqOwE00cow+X6v0RnHDGC9QxaPQlizWQ=
-----END CERTIFICATE-----
