Certificate:
    Data:
        Version: 3 (0x2)
        Serial Number: 144 (0x90)
        Signature Algorithm: md5WithRSAEncryption
        Issuer: C=MY, ST=MAHA, L=PUNE, O=PSPL, OU=OBLIX-QA, CN=ps2436/emailAddress=sagar@pspl.com
        Validity
            Not Before: Feb 24 14:33:38 2010 GMT
            Not After : Feb 24 14:33:38 2011 GMT
        Subject: CN=sagar/emailAddress=sagar@psl.com
        Subject Public Key Info:
            Public Key Algorithm: rsaEncryption
            RSA Public Key: (1024 bit)
                Modulus (1024 bit):
                    00:d0:94:e3:5b:72:3b:aa:21:a4:cb:a3:a7:1e:86:
                    3f:81:20:cf:eb:5c:7c:ae:f4:eb:59:72:cb:4f:94:
                    ff:88:80:10:9b:2c:b5:87:0b:f8:ec:e2:85:e1:04:
                    70:47:32:93:ba:fa:24:9a:08:37:94:e1:f5:6e:46:
                    48:ef:36:ce:c9:6c:fe:4e:02:f7:79:45:9c:3c:7a:
                    c6:92:ee:1a:e2:42:f4:55:59:a1:78:fd:84:ab:88:
                    ba:26:0b:e5:a7:82:94:df:ba:32:4e:94:73:8c:7e:
                    52:67:82:38:3b:af:23:66:1d:6f:61:55:35:ac:3c:
                    ae:0a:f7:57:b9:65:25:b8:8d
                Exponent: 65537 (0x10001)
        X509v3 extensions:
            X509v3 Subject Alternative Name: 
            email:sagar@psl.com
            X509v3 Basic Constraints: critical
            CA:FALSE
            X509v3 Authority Key Identifier: 
            keyid:DB:F8:6A:15:0A:82:53:1F:C2:EB:CC:D0:6E:83:72:57:E4:45:F2:74

            X509v3 Extended Key Usage: 
            TLS Web Client Authentication, E-mail Protection
    Signature Algorithm: md5WithRSAEncryption
        b1:58:83:03:d4:7d:af:86:8b:d4:b7:a9:a7:3d:53:74:fa:d0:
        0a:8a:22:99:95:96:5c:e1:e7:06:ce:b0:93:f4:ae:e1:80:26:
        16:6f:06:94:6b:22:e7:1a:47:53:56:66:4d:78:19:cb:4e:74:
        6b:fc:6f:f1:68:1a:15:2c:b6:74:b9:3e:2d:99:b3:87:8a:99:
        24:79:72:6e:7d:97:f4:75:41:65:69:88:67:17:52:aa:52:fb:
        26:52:a8:34:82:b8:e2:da:43:4c:7b:04:38:82:6a:bb:59:6e:
        ec:93:6b:c7:d3:83:e0:90:a6:0c:41:7c:76:ec:87:2a:83:2c:
        f3:b7
-----BEGIN CERTIFICATE-----
MIICjDCCAfWgAwIBAgICAJAwDQYJKoZIhvcNAQEEBQAwfTELMAkGA1UEBhMCTVkx
DTALBgNVBAgTBE1BSEExDTALBgNVBAcTBFBVTkUxDTALBgNVBAoTBFBTUEwxETAP
BgNVBAsTCE9CTElYLVFBMQ8wDQYDVQQDEwZwczI0MzYxHTAbBgkqhkiG9w0BCQEW
DnNhZ2FyQHBzcGwuY29tMB4XDTEwMDIyNDE0MzMzOFoXDTExMDIyNDE0MzMzOFow
LjEOMAwGA1UEAxMFc2FnYXIxHDAaBgkqhkiG9w0BCQEWDXNhZ2FyQHBzbC5jb20w
gZ8wDQYJKoZIhvcNAQEBBQADgY0AMIGJAoGBANCU41tyO6ohpMujpx6GP4Egz+tc
fK7061lyy0+U/4iAEJsstYcL+OziheEEcEcyk7r6JJoIN5Th9W5GSO82zsls/k4C
93lFnDx6xpLuGuJC9FVZoXj9hKuIuiYL5aeClN+6Mk6Uc4x+UmeCODuvI2Ydb2FV
Naw8rgr3V7llJbiNAgMBAAGjajBoMBgGA1UdEQQRMA+BDXNhZ2FyQHBzbC5jb20w
DAYDVR0TAQH/BAIwADAfBgNVHSMEGDAWgBTb+GoVCoJTH8LrzNBug3JX5EXydDAd
BgNVHSUEFjAUBggrBgEFBQcDAgYIKwYBBQUHAwQwDQYJKoZIhvcNAQEEBQADgYEA
sViDA9R9r4aL1Leppz1TdPrQCooimZWWXOHnBs6wk/Su4YAmFm8GlGsi5xpHU1Zm
TXgZy050a/xv8WgaFSy2dLk+LZmzh4qZJHlybn2X9HVBZWmIZxdSqlL7JlKoNIK4
4tpDTHsEOIJqu1lu7JNrx9OD4JCmDEF8duyHKoMs87c=
-----END CERTIFICATE-----
