Certificate:
    Data:
        Version: 3 (0x2)
        Serial Number: 145 (0x91)
        Signature Algorithm: md5WithRSAEncryption
        Issuer: C=MY, ST=MAHA, L=PUNE, O=PSPL, OU=OBLIX-QA, CN=ps2436/emailAddress=sagar@pspl.com
        Validity
            Not Before: Feb 24 15:19:26 2010 GMT
            Not After : Feb 24 15:19:26 2011 GMT
        Subject: C=IN, ST=MAHA, L=PUNE, O=PSPL, OU=ORACLE, CN=dadvmc0387.us.oracle.com/emailAddress=sagar@psl.com
        Subject Public Key Info:
            Public Key Algorithm: rsaEncryption
            RSA Public Key: (1024 bit)
                Modulus (1024 bit):
                    00:b6:a2:f6:1e:a4:69:82:9d:27:3e:33:e7:13:a9:
                    0f:d7:9b:85:2a:ce:6e:3d:48:80:ca:4d:63:1c:b5:
                    90:a7:97:5b:9c:af:e7:11:23:29:58:b9:c4:ef:e0:
                    5f:85:d6:d2:04:a5:11:08:74:4b:fd:08:b2:3a:f6:
                    d0:6e:b8:42:48:3b:01:7b:84:30:77:f7:6b:37:43:
                    46:01:fe:ca:d6:ea:3a:fd:09:1c:01:20:09:1c:b3:
                    6e:8f:e0:2d:0e:be:2d:20:0b:27:9a:be:9f:a9:48:
                    83:56:98:6c:68:f2:4a:41:cc:15:d6:9c:de:4d:bc:
                    16:99:8a:0d:0f:d3:1a:41:15
                Exponent: 65537 (0x10001)
        X509v3 extensions:
            X509v3 Authority Key Identifier: 
            keyid:DB:F8:6A:15:0A:82:53:1F:C2:EB:CC:D0:6E:83:72:57:E4:45:F2:74

            X509v3 Extended Key Usage: 
            TLS Web Server Authentication, TLS Web Client Authentication, Microsoft Server Gated Crypto, Netscape Server Gated Crypto
            X509v3 Basic Constraints: critical
            CA:FALSE
    Signature Algorithm: md5WithRSAEncryption
        5c:d7:a9:f7:7c:e4:07:1e:fe:93:57:af:c7:43:7c:e6:b7:c0:
        7d:25:74:87:87:65:e5:23:27:5d:68:80:ce:ca:7a:5a:46:43:
        93:cd:ce:01:29:2e:be:8d:c4:73:3f:24:04:e4:c5:4f:c3:1d:
        47:0e:0f:51:f0:70:b7:9b:56:ec:d4:d0:e4:66:64:b5:3b:c9:
        ab:11:42:cf:b2:c3:45:e3:e7:bc:95:5f:c6:90:e2:f8:e0:6d:
        f9:89:dd:bd:aa:f0:02:95:16:e7:d7:12:71:82:c2:ff:74:d2:
        1f:15:9e:79:9a:56:0b:8c:31:52:df:3a:e4:0a:20:11:72:f1:
        ab:96
-----BEGIN CERTIFICATE-----
MIIC6DCCAlGgAwIBAgICAJEwDQYJKoZIhvcNAQEEBQAwfTELMAkGA1UEBhMCTVkx
DTALBgNVBAgTBE1BSEExDTALBgNVBAcTBFBVTkUxDTALBgNVBAoTBFBTUEwxETAP
BgNVBAsTCE9CTElYLVFBMQ8wDQYDVQQDEwZwczI0MzYxHTAbBgkqhkiG9w0BCQEW
DnNhZ2FyQHBzcGwuY29tMB4XDTEwMDIyNDE1MTkyNloXDTExMDIyNDE1MTkyNlow
gYwxCzAJBgNVBAYTAklOMQ0wCwYDVQQIEwRNQUhBMQ0wCwYDVQQHEwRQVU5FMQ0w
CwYDVQQKEwRQU1BMMQ8wDQYDVQQLEwZPUkFDTEUxITAfBgNVBAMTGGRhZHZtYzAz
ODcudXMub3JhY2xlLmNvbTEcMBoGCSqGSIb3DQEJARYNc2FnYXJAcHNsLmNvbTCB
nzANBgkqhkiG9w0BAQEFAAOBjQAwgYkCgYEAtqL2HqRpgp0nPjPnE6kP15uFKs5u
PUiAyk1jHLWQp5dbnK/nESMpWLnE7+BfhdbSBKURCHRL/QiyOvbQbrhCSDsBe4Qw
d/drN0NGAf7K1uo6/QkcASAJHLNuj+AtDr4tIAsnmr6fqUiDVphsaPJKQcwV1pze
TbwWmYoND9MaQRUCAwEAAaNnMGUwHwYDVR0jBBgwFoAU2/hqFQqCUx/C68zQboNy
V+RF8nQwNAYDVR0lBC0wKwYIKwYBBQUHAwEGCCsGAQUFBwMCBgorBgEEAYI3CgMD
BglghkgBhvhCBAEwDAYDVR0TAQH/BAIwADANBgkqhkiG9w0BAQQFAAOBgQBc16n3
fOQHHv6TV6/HQ3zmt8B9JXSHh2XlIyddaIDOynpaRkOTzc4BKS6+jcRzPyQE5MVP
wx1HDg9R8HC3m1bs1NDkZmS1O8mrEULPssNF4+e8lV/GkOL44G35id29qvAClRbn
1xJxgsL/dNIfFZ55mlYLjDFS3zrkCiARcvGrlg==
-----END CERTIFICATE-----
