Certificate:
    Data:
        Version: 3 (0x2)
        Serial Number: 146 (0x92)
        Signature Algorithm: md5WithRSAEncryption
        Issuer: C=MY, ST=MAHA, L=PUNE, O=PSPL, OU=OBLIX-QA, CN=ps2436/emailAddress=sagar@pspl.com
        Validity
            Not Before: Feb 24 15:50:34 2010 GMT
            Not After : Feb 24 15:50:34 2011 GMT
        Subject: CN=weblogic/emailAddress=weblogic@psl.com
        Subject Public Key Info:
            Public Key Algorithm: rsaEncryption
            RSA Public Key: (1024 bit)
                Modulus (1024 bit):
                    00:db:60:a0:19:1d:ef:c7:37:69:c2:5e:23:9d:67:
                    23:a6:25:f1:e3:0f:29:94:a7:8a:1f:4c:2e:b2:cc:
                    f4:d2:6d:4e:a0:61:9d:ae:22:4d:3e:ea:79:2e:66:
                    31:9f:e2:a9:57:68:26:38:08:79:6e:8f:c3:8c:3f:
                    48:89:32:3c:2f:a2:e1:1d:4b:cf:4f:69:14:d7:ea:
                    ad:09:4f:96:79:12:36:15:e9:f6:b3:d8:cc:10:c9:
                    dc:58:5d:74:0b:aa:db:65:4b:df:1e:08:53:db:94:
                    7d:a0:e3:2d:36:9c:04:53:e8:bc:35:79:67:d9:66:
                    7b:76:0d:2c:0a:3e:23:e9:79
                Exponent: 65537 (0x10001)
        X509v3 extensions:
            X509v3 Subject Alternative Name: 
            email:weblogic@psl.com
            X509v3 Basic Constraints: critical
            CA:FALSE
            X509v3 Authority Key Identifier: 
            keyid:DB:F8:6A:15:0A:82:53:1F:C2:EB:CC:D0:6E:83:72:57:E4:45:F2:74

            X509v3 Extended Key Usage: 
            TLS Web Client Authentication, E-mail Protection
    Signature Algorithm: md5WithRSAEncryption
        05:f0:87:09:52:f5:8a:3a:06:6b:2d:a8:9a:60:68:96:ad:e0:
        01:9a:37:ef:62:e6:2d:89:22:04:11:94:6b:7f:f5:aa:9c:e1:
        eb:8f:ac:11:7c:0d:66:7c:c8:bc:b3:20:ad:70:0e:e4:fd:c7:
        ce:99:f8:d5:9c:a0:f3:ca:0f:0b:ca:1a:77:8a:ce:7e:f1:18:
        d3:f4:40:6f:7d:e3:c4:26:ee:fd:ff:29:42:bd:84:1d:4d:87:
        e6:52:28:08:8c:59:02:aa:39:9b:12:8b:e5:61:57:da:c3:a7:
        22:8e:a0:b7:76:77:5a:6f:fc:58:db:e8:bd:6e:7a:10:bc:2c:
        ec:f4
-----BEGIN CERTIFICATE-----
MIIClTCCAf6gAwIBAgICAJIwDQYJKoZIhvcNAQEEBQAwfTELMAkGA1UEBhMCTVkx
DTALBgNVBAgTBE1BSEExDTALBgNVBAcTBFBVTkUxDTALBgNVBAoTBFBTUEwxETAP
BgNVBAsTCE9CTElYLVFBMQ8wDQYDVQQDEwZwczI0MzYxHTAbBgkqhkiG9w0BCQEW
DnNhZ2FyQHBzcGwuY29tMB4XDTEwMDIyNDE1NTAzNFoXDTExMDIyNDE1NTAzNFow
NDERMA8GA1UEAxMId2VibG9naWMxHzAdBgkqhkiG9w0BCQEWEHdlYmxvZ2ljQHBz
bC5jb20wgZ8wDQYJKoZIhvcNAQEBBQADgY0AMIGJAoGBANtgoBkd78c3acJeI51n
I6Yl8eMPKZSnih9MLrLM9NJtTqBhna4iTT7qeS5mMZ/iqVdoJjgIeW6Pw4w/SIky
PC+i4R1Lz09pFNfqrQlPlnkSNhXp9rPYzBDJ3FhddAuq22VL3x4IU9uUfaDjLTac
BFPovDV5Z9lme3YNLAo+I+l5AgMBAAGjbTBrMBsGA1UdEQQUMBKBEHdlYmxvZ2lj
QHBzbC5jb20wDAYDVR0TAQH/BAIwADAfBgNVHSMEGDAWgBTb+GoVCoJTH8LrzNBu
g3JX5EXydDAdBgNVHSUEFjAUBggrBgEFBQcDAgYIKwYBBQUHAwQwDQYJKoZIhvcN
AQEEBQADgYEABfCHCVL1ijoGay2ommBolq3gAZo372LmLYkiBBGUa3/1qpzh64+s
EXwNZnzIvLMgrXAO5P3Hzpn41Zyg88oPC8oad4rOfvEY0/RAb33jxCbu/f8pQr2E
HU2H5lIoCIxZAqo5mxKL5WFX2sOnIo6gt3Z3Wm/8WNvovW56ELws7PQ=
-----END CERTIFICATE-----
