Certificate:
    Data:
        Version: 3 (0x2)
        Serial Number: 147 (0x93)
        Signature Algorithm: md5WithRSAEncryption
        Issuer: C=MY, ST=MAHA, L=PUNE, O=PSPL, OU=OBLIX-QA, CN=ps2436/emailAddress=sagar@pspl.com
        Validity
            Not Before: Feb 25 09:45:35 2010 GMT
            Not After : Feb 25 09:45:35 2011 GMT
        Subject: CN=sagar/emailAddress=sagar.bongale@oracle.com
        Subject Public Key Info:
            Public Key Algorithm: rsaEncryption
            RSA Public Key: (1024 bit)
                Modulus (1024 bit):
                    00:d0:94:e3:5b:72:3b:aa:21:a4:cb:a3:a7:1e:86:
                    3f:81:20:cf:eb:5c:7c:ae:f4:eb:59:72:cb:4f:94:
                    ff:88:80:10:9b:2c:b5:87:0b:f8:ec:e2:85:e1:04:
                    70:47:32:93:ba:fa:24:9a:08:37:94:e1:f5:6e:46:
                    48:ef:36:ce:c9:6c:fe:4e:02:f7:79:45:9c:3c:7a:
                    c6:92:ee:1a:e2:42:f4:55:59:a1:78:fd:84:ab:88:
                    ba:26:0b:e5:a7:82:94:df:ba:32:4e:94:73:8c:7e:
                    52:67:82:38:3b:af:23:66:1d:6f:61:55:35:ac:3c:
                    ae:0a:f7:57:b9:65:25:b8:8d
                Exponent: 65537 (0x10001)
        X509v3 extensions:
            X509v3 Subject Alternative Name: 
            email:sagar.bongale@oracle.com
            X509v3 Basic Constraints: critical
            CA:FALSE
            X509v3 Authority Key Identifier: 
            keyid:DB:F8:6A:15:0A:82:53:1F:C2:EB:CC:D0:6E:83:72:57:E4:45:F2:74

            X509v3 Extended Key Usage: 
            TLS Web Client Authentication, E-mail Protection
    Signature Algorithm: md5WithRSAEncryption
        42:b0:c0:d8:af:c8:82:b0:1e:25:f5:a8:cc:df:6d:38:dc:b7:
        50:d6:da:d8:a1:ac:c4:8b:02:be:90:cf:6f:ee:0e:1a:f9:7d:
        14:42:46:94:de:9b:f4:b5:92:11:9b:8e:73:0a:d2:99:58:28:
        39:18:ef:71:ca:8d:6d:26:e9:06:9b:0d:19:f2:43:f1:34:8b:
        67:f7:bf:e2:ff:8d:dc:df:65:e7:27:a4:2f:4b:ec:fe:b5:8b:
        53:96:2c:95:96:b6:69:57:21:b2:83:98:4a:ea:72:6e:1e:33:
        52:fb:c9:b2:69:4f:a1:62:44:82:1c:a9:8c:8d:97:9a:5f:00:
        09:f4
-----BEGIN CERTIFICATE-----
MIICojCCAgugAwIBAgICAJMwDQYJKoZIhvcNAQEEBQAwfTELMAkGA1UEBhMCTVkx
DTALBgNVBAgTBE1BSEExDTALBgNVBAcTBFBVTkUxDTALBgNVBAoTBFBTUEwxETAP
BgNVBAsTCE9CTElYLVFBMQ8wDQYDVQQDEwZwczI0MzYxHTAbBgkqhkiG9w0BCQEW
DnNhZ2FyQHBzcGwuY29tMB4XDTEwMDIyNTA5NDUzNVoXDTExMDIyNTA5NDUzNVow
OTEOMAwGA1UEAxMFc2FnYXIxJzAlBgkqhkiG9w0BCQEWGHNhZ2FyLmJvbmdhbGVA
b3JhY2xlLmNvbTCBnzANBgkqhkiG9w0BAQEFAAOBjQAwgYkCgYEA0JTjW3I7qiGk
y6OnHoY/gSDP61x8rvTrWXLLT5T/iIAQmyy1hwv47OKF4QRwRzKTuvokmgg3lOH1
bkZI7zbOyWz+TgL3eUWcPHrGku4a4kL0VVmheP2Eq4i6Jgvlp4KU37oyTpRzjH5S
Z4I4O68jZh1vYVU1rDyuCvdXuWUluI0CAwEAAaN1MHMwIwYDVR0RBBwwGoEYc2Fn
YXIuYm9uZ2FsZUBvcmFjbGUuY29tMAwGA1UdEwEB/wQCMAAwHwYDVR0jBBgwFoAU
2/hqFQqCUx/C68zQboNyV+RF8nQwHQYDVR0lBBYwFAYIKwYBBQUHAwIGCCsGAQUF
BwMEMA0GCSqGSIb3DQEBBAUAA4GBAEKwwNivyIKwHiX1qMzfbTjct1DW2tihrMSL
Ar6Qz2/uDhr5fRRCRpTem/S1khGbjnMK0plYKDkY73HKjW0m6QabDRnyQ/E0i2f3
v+L/jdzfZecnpC9L7P61i1OWLJWWtmlXIbKDmErqcm4eM1L7ybJpT6FiRIIcqYyN
l5pfAAn0
-----END CERTIFICATE-----
