Certificate:
    Data:
        Version: 3 (0x2)
        Serial Number: 148 (0x94)
        Signature Algorithm: md5WithRSAEncryption
        Issuer: C=MY, ST=MAHA, L=PUNE, O=PSPL, OU=OBLIX-QA, CN=ps2436/emailAddress=sagar@pspl.com
        Validity
            Not Before: Feb 25 11:04:43 2010 GMT
            Not After : Feb 25 11:04:43 2011 GMT
        Subject: CN=mayank/emailAddress=mayank@psl
        Subject Public Key Info:
            Public Key Algorithm: rsaEncryption
            RSA Public Key: (1024 bit)
                Modulus (1024 bit):
                    00:a8:a3:48:ca:3c:47:1a:4e:dd:8f:58:30:bf:23:
                    93:8b:12:db:47:63:0f:14:8a:f1:53:f0:e5:a3:85:
                    1f:97:bd:0b:bb:2e:ed:96:ee:d6:83:28:68:35:5c:
                    3a:33:f3:36:07:90:1c:a5:96:f6:16:89:3c:b7:cf:
                    c7:af:d7:c2:c1:25:80:07:bc:7f:81:e9:72:a0:56:
                    19:be:a5:ce:e9:bb:d9:ba:99:2a:05:59:9c:f0:49:
                    5f:b7:bd:6c:f1:5c:55:2a:83:0c:e4:21:d8:78:42:
                    ac:83:e1:33:58:39:4b:f2:be:39:4d:e5:1e:02:30:
                    b6:d3:41:04:81:1b:c6:27:05
                Exponent: 65537 (0x10001)
        X509v3 extensions:
            X509v3 Subject Alternative Name: 
            email:mayank@psl
            X509v3 Basic Constraints: critical
            CA:FALSE
            X509v3 Authority Key Identifier: 
            keyid:DB:F8:6A:15:0A:82:53:1F:C2:EB:CC:D0:6E:83:72:57:E4:45:F2:74

            X509v3 Extended Key Usage: 
            TLS Web Client Authentication, E-mail Protection
    Signature Algorithm: md5WithRSAEncryption
        12:89:03:67:d1:86:92:bc:72:0c:a9:7b:61:7e:3d:ec:ab:7f:
        e8:21:6f:94:fb:76:04:d6:84:2a:fe:44:47:dd:8d:d1:13:3d:
        21:66:ec:18:f3:94:72:1b:24:ad:18:ca:bd:4d:b8:b3:76:34:
        69:5b:90:5c:0b:ed:76:53:d6:46:82:f8:77:cb:76:2e:35:4e:
        08:bc:5f:77:db:f7:b9:b4:b1:ba:cb:01:a4:3a:51:96:94:58:
        b7:d4:4d:fa:d0:04:ed:a1:c8:da:45:9f:af:12:59:5f:97:be:
        30:5d:88:69:36:b9:71:26:b0:9d:c7:4f:64:79:25:8c:eb:96:
        22:0a
-----BEGIN CERTIFICATE-----
MIIChzCCAfCgAwIBAgICAJQwDQYJKoZIhvcNAQEEBQAwfTELMAkGA1UEBhMCTVkx
DTALBgNVBAgTBE1BSEExDTALBgNVBAcTBFBVTkUxDTALBgNVBAoTBFBTUEwxETAP
BgNVBAsTCE9CTElYLVFBMQ8wDQYDVQQDEwZwczI0MzYxHTAbBgkqhkiG9w0BCQEW
DnNhZ2FyQHBzcGwuY29tMB4XDTEwMDIyNTExMDQ0M1oXDTExMDIyNTExMDQ0M1ow
LDEPMA0GA1UEAxMGbWF5YW5rMRkwFwYJKoZIhvcNAQkBFgptYXlhbmtAcHNsMIGf
MA0GCSqGSIb3DQEBAQUAA4GNADCBiQKBgQCoo0jKPEcaTt2PWDC/I5OLEttHYw8U
ivFT8OWjhR+XvQu7Lu2W7taDKGg1XDoz8zYHkByllvYWiTy3z8ev18LBJYAHvH+B
6XKgVhm+pc7pu9m6mSoFWZzwSV+3vWzxXFUqgwzkIdh4QqyD4TNYOUvyvjlN5R4C
MLbTQQSBG8YnBQIDAQABo2cwZTAVBgNVHREEDjAMgQptYXlhbmtAcHNsMAwGA1Ud
EwEB/wQCMAAwHwYDVR0jBBgwFoAU2/hqFQqCUx/C68zQboNyV+RF8nQwHQYDVR0l
BBYwFAYIKwYBBQUHAwIGCCsGAQUFBwMEMA0GCSqGSIb3DQEBBAUAA4GBABKJA2fR
hpK8cgype2F+Peyrf+ghb5T7dgTWhCr+REfdjdETPSFm7BjzlHIbJK0Yyr1NuLN2
NGlbkFwL7XZT1kaC+HfLdi41Tgi8X3fb97m0sbrLAaQ6UZaUWLfUTfrQBO2hyNpF
n68SWV+XvjBdiGk2uXEmsJ3HT2R5JYzrliIK
-----END CERTIFICATE-----
