Certificate:
    Data:
        Version: 3 (0x2)
        Serial Number: 149 (0x95)
        Signature Algorithm: md5WithRSAEncryption
        Issuer: C=MY, ST=MAHA, L=PUNE, O=PSPL, OU=OBLIX-QA, CN=ps2436/emailAddress=sagar@pspl.com
        Validity
            Not Before: Mar 15 12:57:57 2010 GMT
            Not After : Mar 15 12:57:57 2011 GMT
        Subject: C=IN, ST=MAHA, L=PUNE, O=PSL, OU=ORACLE, CN=ps0032.persistent.co.in/emailAddress=anil@psl.com
        Subject Public Key Info:
            Public Key Algorithm: rsaEncryption
            RSA Public Key: (1024 bit)
                Modulus (1024 bit):
                    00:b4:a5:25:95:1b:cd:a5:1d:53:d1:89:cf:55:45:
                    31:65:ee:a2:ae:d9:d4:a0:42:e1:d8:55:c7:eb:6a:
                    38:2c:06:0a:de:60:83:9c:25:d0:18:83:ac:87:64:
                    a7:1a:1e:73:38:aa:88:10:87:a9:84:71:74:c2:a4:
                    1f:89:71:1a:af:5d:02:b6:80:0c:a8:b9:66:2f:3d:
                    a2:8e:bf:5f:a9:3f:72:53:9e:a4:04:c9:79:d8:45:
                    00:51:b4:d6:90:cf:1d:78:d9:7b:77:41:86:fa:cf:
                    ca:9e:6e:00:78:9c:a2:20:1e:e9:ae:99:c1:ae:c0:
                    40:08:2f:d2:b3:12:c9:18:ef
                Exponent: 65537 (0x10001)
        X509v3 extensions:
            X509v3 Authority Key Identifier: 
            keyid:DB:F8:6A:15:0A:82:53:1F:C2:EB:CC:D0:6E:83:72:57:E4:45:F2:74

            X509v3 Extended Key Usage: 
            TLS Web Server Authentication, TLS Web Client Authentication, Microsoft Server Gated Crypto, Netscape Server Gated Crypto
            X509v3 Basic Constraints: critical
            CA:FALSE
    Signature Algorithm: md5WithRSAEncryption
        00:42:17:3b:d5:12:c4:6b:45:c1:0c:65:55:12:13:03:18:fc:
        03:94:c4:72:06:e2:45:f6:ad:f2:d5:b4:80:94:04:1c:15:5f:
        09:c5:18:87:eb:22:80:d7:3b:00:4b:a5:f5:1f:36:8b:b8:1d:
        1d:57:d9:58:68:24:68:17:42:3f:23:c0:53:0e:40:84:71:01:
        c1:3e:25:8a:e6:e0:54:ff:49:ea:8a:0a:33:93:5d:1b:94:73:
        d1:cc:d0:7e:4c:48:a3:9a:15:cb:27:c8:8c:10:44:c9:47:fa:
        d4:3d:42:a2:fd:51:df:d0:50:2d:ad:d7:cb:e9:15:c3:a9:16:
        e8:0e
-----BEGIN CERTIFICATE-----
MIIC5TCCAk6gAwIBAgICAJUwDQYJKoZIhvcNAQEEBQAwfTELMAkGA1UEBhMCTVkx
DTALBgNVBAgTBE1BSEExDTALBgNVBAcTBFBVTkUxDTALBgNVBAoTBFBTUEwxETAP
BgNVBAsTCE9CTElYLVFBMQ8wDQYDVQQDEwZwczI0MzYxHTAbBgkqhkiG9w0BCQEW
DnNhZ2FyQHBzcGwuY29tMB4XDTEwMDMxNTEyNTc1N1oXDTExMDMxNTEyNTc1N1ow
gYkxCzAJBgNVBAYTAklOMQ0wCwYDVQQIEwRNQUhBMQ0wCwYDVQQHEwRQVU5FMQww
CgYDVQQKEwNQU0wxDzANBgNVBAsTBk9SQUNMRTEgMB4GA1UEAxMXcHMwMDMyLnBl
cnNpc3RlbnQuY28uaW4xGzAZBgkqhkiG9w0BCQEWDGFuaWxAcHNsLmNvbTCBnzAN
BgkqhkiG9w0BAQEFAAOBjQAwgYkCgYEAtKUllRvNpR1T0YnPVUUxZe6irtnUoELh
2FXH62o4LAYK3mCDnCXQGIOsh2SnGh5zOKqIEIephHF0wqQfiXEar10CtoAMqLlm
Lz2ijr9fqT9yU56kBMl52EUAUbTWkM8deNl7d0GG+s/Knm4AeJyiIB7prpnBrsBA
CC/SsxLJGO8CAwEAAaNnMGUwHwYDVR0jBBgwFoAU2/hqFQqCUx/C68zQboNyV+RF
8nQwNAYDVR0lBC0wKwYIKwYBBQUHAwEGCCsGAQUFBwMCBgorBgEEAYI3CgMDBglg
hkgBhvhCBAEwDAYDVR0TAQH/BAIwADANBgkqhkiG9w0BAQQFAAOBgQAAQhc71RLE
a0XBDGVVEhMDGPwDlMRyBuJF9q3y1bSAlAQcFV8JxRiH6yKA1zsAS6X1HzaLuB0d
V9lYaCRoF0I/I8BTDkCEcQHBPiWK5uBU/0nqigozk10blHPRzNB+TEijmhXLJ8iM
EETJR/rUPUKi/VHf0FAtrdfL6RXDqRboDg==
-----END CERTIFICATE-----
