Certificate:
    Data:
        Version: 3 (0x2)
        Serial Number: 150 (0x96)
        Signature Algorithm: md5WithRSAEncryption
        Issuer: C=MY, ST=MAHA, L=PUNE, O=PSPL, OU=OBLIX-QA, CN=ps2436/emailAddress=sagar@pspl.com
        Validity
            Not Before: Mar 15 13:01:46 2010 GMT
            Not After : Mar 15 13:01:46 2011 GMT
        Subject: CN=Rohit/emailAddress=user1k1@Company.com
        Subject Public Key Info:
            Public Key Algorithm: rsaEncryption
            RSA Public Key: (1024 bit)
                Modulus (1024 bit):
                    00:bb:5d:31:4b:aa:ea:cb:88:62:b7:4f:49:23:ef:
                    67:98:8a:df:00:97:6e:61:3d:f5:05:02:f7:9a:57:
                    05:4a:d6:0b:bc:12:5c:1b:ba:6d:20:d2:a4:6c:fd:
                    af:a3:5c:79:d0:92:93:ae:cb:dd:68:17:4d:9e:32:
                    d7:2d:c8:59:df:96:35:fb:27:c4:eb:bf:d9:07:40:
                    c6:be:3d:30:19:bb:5c:65:6c:77:05:7d:eb:6f:05:
                    db:28:78:8c:35:6c:90:d5:16:45:35:f4:be:f1:0d:
                    d7:b4:e0:99:08:5a:c0:cd:eb:80:e2:71:2d:d6:8b:
                    f1:b7:52:c9:4c:cb:92:36:5f
                Exponent: 65537 (0x10001)
        X509v3 extensions:
            X509v3 Subject Alternative Name: 
            email:user1k1@Company.com
            X509v3 Basic Constraints: critical
            CA:FALSE
            X509v3 Authority Key Identifier: 
            keyid:DB:F8:6A:15:0A:82:53:1F:C2:EB:CC:D0:6E:83:72:57:E4:45:F2:74

            X509v3 Extended Key Usage: 
            TLS Web Client Authentication, E-mail Protection
    Signature Algorithm: md5WithRSAEncryption
        14:e2:db:7d:56:76:9d:e9:e0:ff:4a:58:f0:53:59:ac:ce:ae:
        8c:e3:54:51:85:52:05:6c:bf:33:72:12:8a:18:48:68:13:56:
        88:8b:9d:b5:ad:83:aa:24:8c:06:e8:13:3e:bd:83:2a:28:76:
        d5:ce:2c:7c:45:09:24:55:6b:c3:c9:b8:88:6f:c1:f2:68:b6:
        db:9e:a6:82:a2:45:9a:c2:a8:33:a8:66:59:16:83:8e:52:b0:
        a9:b3:44:da:6d:dd:af:9d:03:1f:3e:57:94:91:22:4c:da:58:
        b9:c1:7d:96:4c:30:be:e0:bd:54:26:e3:9e:43:bd:66:99:d3:
        ed:84
-----BEGIN CERTIFICATE-----
MIICmDCCAgGgAwIBAgICAJYwDQYJKoZIhvcNAQEEBQAwfTELMAkGA1UEBhMCTVkx
DTALBgNVBAgTBE1BSEExDTALBgNVBAcTBFBVTkUxDTALBgNVBAoTBFBTUEwxETAP
BgNVBAsTCE9CTElYLVFBMQ8wDQYDVQQDEwZwczI0MzYxHTAbBgkqhkiG9w0BCQEW
DnNhZ2FyQHBzcGwuY29tMB4XDTEwMDMxNTEzMDE0NloXDTExMDMxNTEzMDE0Nlow
NDEOMAwGA1UEAxMFUm9oaXQxIjAgBgkqhkiG9w0BCQEWE3VzZXIxazFAQ29tcGFu
eS5jb20wgZ8wDQYJKoZIhvcNAQEBBQADgY0AMIGJAoGBALtdMUuq6suIYrdPSSPv
Z5iK3wCXbmE99QUC95pXBUrWC7wSXBu6bSDSpGz9r6NcedCSk67L3WgXTZ4y1y3I
Wd+WNfsnxOu/2QdAxr49MBm7XGVsdwV9628F2yh4jDVskNUWRTX0vvEN17TgmQha
wM3rgOJxLdaL8bdSyUzLkjZfAgMBAAGjcDBuMB4GA1UdEQQXMBWBE3VzZXIxazFA
Q29tcGFueS5jb20wDAYDVR0TAQH/BAIwADAfBgNVHSMEGDAWgBTb+GoVCoJTH8Lr
zNBug3JX5EXydDAdBgNVHSUEFjAUBggrBgEFBQcDAgYIKwYBBQUHAwQwDQYJKoZI
hvcNAQEEBQADgYEAFOLbfVZ2neng/0pY8FNZrM6ujONUUYVSBWy/M3ISihhIaBNW
iIudta2DqiSMBugTPr2DKih21c4sfEUJJFVrw8m4iG/B8mi2256mgqJFmsKoM6hm
WRaDjlKwqbNE2m3dr50DHz5XlJEiTNpYucF9lkwwvuC9VCbjnkO9ZpnT7YQ=
-----END CERTIFICATE-----
