Certificate:
    Data:
        Version: 3 (0x2)
        Serial Number: 151 (0x97)
        Signature Algorithm: md5WithRSAEncryption
        Issuer: C=MY, ST=MAHA, L=PUNE, O=PSPL, OU=OBLIX-QA, CN=ps2436/emailAddress=sagar@pspl.com
        Validity
            Not Before: Mar 15 13:03:14 2010 GMT
            Not After : Mar 15 13:03:14 2011 GMT
        Subject: CN=VAN OMAN/emailAddress=user1k7@Company.com
        Subject Public Key Info:
            Public Key Algorithm: rsaEncryption
            RSA Public Key: (1024 bit)
                Modulus (1024 bit):
                    00:cf:cb:d6:3a:42:91:95:13:da:92:8a:2e:07:1e:
                    ef:38:1e:63:fc:08:eb:14:4f:9c:84:62:c6:06:0f:
                    fd:21:06:5d:f8:be:38:f6:8f:e4:32:70:8d:99:4b:
                    08:2c:4e:ad:b0:29:7a:f4:7c:ff:10:b3:7e:6b:ed:
                    36:02:d4:c1:0b:45:c4:af:cf:dc:49:69:d0:06:3a:
                    77:f2:46:d1:a9:73:a8:38:4a:72:68:21:ec:7d:af:
                    7f:d2:cc:45:12:f3:10:40:4c:90:87:89:9c:ae:51:
                    2e:fc:ad:ba:76:ff:74:30:b2:08:ef:ae:3e:bd:d3:
                    0a:93:9a:fd:63:ef:15:b6:0b
                Exponent: 65537 (0x10001)
        X509v3 extensions:
            X509v3 Subject Alternative Name: 
            email:user1k7@Company.com
            X509v3 Basic Constraints: critical
            CA:FALSE
            X509v3 Authority Key Identifier: 
            keyid:DB:F8:6A:15:0A:82:53:1F:C2:EB:CC:D0:6E:83:72:57:E4:45:F2:74

            X509v3 Extended Key Usage: 
            TLS Web Client Authentication, E-mail Protection
    Signature Algorithm: md5WithRSAEncryption
        2b:b1:7e:f4:9f:09:5a:a3:f9:10:3b:7c:5b:58:eb:09:2d:34:
        9a:73:dc:bb:d1:50:64:66:09:d6:38:85:e7:79:2c:ca:b4:9c:
        26:fb:41:f4:55:5e:d3:87:4b:6d:f3:53:7e:4b:9d:a1:73:8b:
        62:6e:65:47:df:99:45:41:18:ec:da:88:75:76:fd:9a:8d:08:
        f4:0a:5f:85:9c:4c:7a:cd:73:eb:b9:b0:5e:b3:90:5a:67:58:
        17:11:98:e8:29:79:86:81:6d:dc:25:34:26:72:ee:7a:7f:b5:
        1f:7b:a2:4c:98:8c:f2:76:6d:98:4f:7f:37:1e:61:56:3e:eb:
        7c:00
-----BEGIN CERTIFICATE-----
MIICmzCCAgSgAwIBAgICAJcwDQYJKoZIhvcNAQEEBQAwfTELMAkGA1UEBhMCTVkx
DTALBgNVBAgTBE1BSEExDTALBgNVBAcTBFBVTkUxDTALBgNVBAoTBFBTUEwxETAP
BgNVBAsTCE9CTElYLVFBMQ8wDQYDVQQDEwZwczI0MzYxHTAbBgkqhkiG9w0BCQEW
DnNhZ2FyQHBzcGwuY29tMB4XDTEwMDMxNTEzMDMxNFoXDTExMDMxNTEzMDMxNFow
NzERMA8GA1UEAxMIVkFOIE9NQU4xIjAgBgkqhkiG9w0BCQEWE3VzZXIxazdAQ29t
cGFueS5jb20wgZ8wDQYJKoZIhvcNAQEBBQADgY0AMIGJAoGBAM/L1jpCkZUT2pKK
Lgce7zgeY/wI6xRPnIRixgYP/SEGXfi+OPaP5DJwjZlLCCxOrbApevR8/xCzfmvt
NgLUwQtFxK/P3Elp0AY6d/JG0alzqDhKcmgh7H2vf9LMRRLzEEBMkIeJnK5RLvyt
unb/dDCyCO+uPr3TCpOa/WPvFbYLAgMBAAGjcDBuMB4GA1UdEQQXMBWBE3VzZXIx
azdAQ29tcGFueS5jb20wDAYDVR0TAQH/BAIwADAfBgNVHSMEGDAWgBTb+GoVCoJT
H8LrzNBug3JX5EXydDAdBgNVHSUEFjAUBggrBgEFBQcDAgYIKwYBBQUHAwQwDQYJ
KoZIhvcNAQEEBQADgYEAK7F+9J8JWqP5EDt8W1jrCS00mnPcu9FQZGYJ1jiF53ks
yrScJvtB9FVe04dLbfNTfkudoXOLYm5lR9+ZRUEY7NqIdXb9mo0I9ApfhZxMes1z
67mwXrOQWmdYFxGY6Cl5hoFt3CU0JnLuen+1H3uiTJiM8nZtmE9/Nx5hVj7rfAA=
-----END CERTIFICATE-----
