Certificate:
    Data:
        Version: 3 (0x2)
        Serial Number: 152 (0x98)
        Signature Algorithm: md5WithRSAEncryption
        Issuer: C=MY, ST=MAHA, L=PUNE, O=PSPL, OU=OBLIX-QA, CN=ps2436/emailAddress=sagar@pspl.com
        Validity
            Not Before: Jul  1 11:32:05 2010 GMT
            Not After : Jul  1 11:32:05 2011 GMT
        Subject: C=VA, ST=pune, L=pune, O=psl, OU=oam10g, CN=stevef
        Subject Public Key Info:
            Public Key Algorithm: rsaEncryption
            RSA Public Key: (1024 bit)
                Modulus (1024 bit):
                    00:cd:a1:79:13:c1:52:6f:71:01:83:89:f9:8a:2f:
                    8d:83:23:c4:86:dd:78:c3:db:d5:df:f2:3b:3b:50:
                    8b:d4:4b:2e:c1:de:08:32:2a:07:cc:99:0d:0f:63:
                    b6:4c:c3:ea:d6:10:87:ed:c7:78:6c:b5:7d:0a:5a:
                    5c:b3:36:d9:ef:d1:3f:74:e9:af:77:8d:77:64:f9:
                    4a:aa:93:b7:d0:f7:28:6f:b0:7a:f7:5b:26:20:d9:
                    f3:84:2f:e4:da:6f:3e:c0:b5:bb:d2:1e:27:98:31:
                    9c:b4:3c:49:3e:32:a0:8d:1e:95:c1:ed:ef:37:9a:
                    1c:8c:0d:24:a0:c9:53:51:19
                Exponent: 65537 (0x10001)
        X509v3 extensions:
            X509v3 Authority Key Identifier: 
            keyid:DB:F8:6A:15:0A:82:53:1F:C2:EB:CC:D0:6E:83:72:57:E4:45:F2:74

            X509v3 Extended Key Usage: 
            TLS Web Server Authentication, TLS Web Client Authentication, Microsoft Server Gated Crypto, Netscape Server Gated Crypto
            X509v3 Basic Constraints: critical
            CA:FALSE
    Signature Algorithm: md5WithRSAEncryption
        22:7d:72:0b:32:06:d4:e5:48:37:ac:13:64:89:b4:52:b8:db:
        dc:b2:f1:5a:19:0d:48:f2:f4:92:b7:9a:fc:83:56:2f:66:45:
        a2:09:98:d8:12:b6:6f:da:bf:ce:ff:8b:28:3b:8b:59:c5:c7:
        7c:9e:65:dd:86:8e:b8:67:41:17:c0:de:46:0b:3b:4c:eb:29:
        8a:62:ed:f4:8d:89:c0:98:bf:15:10:e3:34:70:5e:0f:e4:64:
        e4:85:90:b9:bc:c5:9b:be:a9:5f:a0:40:49:61:00:00:91:69:
        4d:46:34:af:0a:40:d1:ee:39:c7:27:fa:66:c7:8f:0d:e9:14:
        25:da
-----BEGIN CERTIFICATE-----
MIICtjCCAh+gAwIBAgICAJgwDQYJKoZIhvcNAQEEBQAwfTELMAkGA1UEBhMCTVkx
DTALBgNVBAgTBE1BSEExDTALBgNVBAcTBFBVTkUxDTALBgNVBAoTBFBTUEwxETAP
BgNVBAsTCE9CTElYLVFBMQ8wDQYDVQQDEwZwczI0MzYxHTAbBgkqhkiG9w0BCQEW
DnNhZ2FyQHBzcGwuY29tMB4XDTEwMDcwMTExMzIwNVoXDTExMDcwMTExMzIwNVow
WzELMAkGA1UEBhMCVkExDTALBgNVBAgTBHB1bmUxDTALBgNVBAcTBHB1bmUxDDAK
BgNVBAoTA3BzbDEPMA0GA1UECxMGb2FtMTBnMQ8wDQYDVQQDEwZzdGV2ZWYwgZ8w
DQYJKoZIhvcNAQEBBQADgY0AMIGJAoGBAM2heRPBUm9xAYOJ+YovjYMjxIbdeMPb
1d/yOztQi9RLLsHeCDIqB8yZDQ9jtkzD6tYQh+3HeGy1fQpaXLM22e/RP3Tpr3eN
d2T5SqqTt9D3KG+wevdbJiDZ84Qv5NpvPsC1u9IeJ5gxnLQ8ST4yoI0elcHt7zea
HIwNJKDJU1EZAgMBAAGjZzBlMB8GA1UdIwQYMBaAFNv4ahUKglMfwuvM0G6Dclfk
RfJ0MDQGA1UdJQQtMCsGCCsGAQUFBwMBBggrBgEFBQcDAgYKKwYBBAGCNwoDAwYJ
YIZIAYb4QgQBMAwGA1UdEwEB/wQCMAAwDQYJKoZIhvcNAQEEBQADgYEAIn1yCzIG
1OVIN6wTZIm0Urjb3LLxWhkNSPL0krea/INWL2ZFogmY2BK2b9q/zv+LKDuLWcXH
fJ5l3YaOuGdBF8DeRgs7TOspimLt9I2JwJi/FRDjNHBeD+Rk5IWQubzFm76pX6BA
SWEAAJFpTUY0rwpA0e45xyf6ZsePDekUJdo=
-----END CERTIFICATE-----
