Certificate:
    Data:
        Version: 3 (0x2)
        Serial Number: 153 (0x99)
        Signature Algorithm: md5WithRSAEncryption
        Issuer: C=MY, ST=MAHA, L=PUNE, O=PSPL, OU=OBLIX-QA, CN=ps2436/emailAddress=sagar@pspl.com
        Validity
            Not Before: Jul  1 11:54:28 2010 GMT
            Not After : Jul  1 11:54:28 2011 GMT
        Subject: C=US, ST=Alabama, L=US, O=Oracle, OU=OAM10g, CN=stevef.us.oracle.com
        Subject Public Key Info:
            Public Key Algorithm: rsaEncryption
            RSA Public Key: (1024 bit)
                Modulus (1024 bit):
                    00:bd:bb:35:85:20:29:b3:fb:f5:5b:30:73:9d:d1:
                    b5:f0:57:e4:b6:f7:5d:63:b7:2d:9a:49:f9:1f:88:
                    7c:fb:58:66:5a:01:c4:03:67:ef:04:7e:f6:49:2e:
                    10:26:dd:c4:2d:da:f1:85:5b:52:2d:45:ba:7f:56:
                    9e:e8:a7:9a:db:eb:8e:d6:65:3a:3f:d2:bf:4d:1b:
                    cb:98:44:32:19:45:ec:72:7d:b0:24:86:74:2a:31:
                    45:fd:2b:71:c2:6c:3b:f2:e9:a7:41:14:9a:74:1f:
                    a1:3e:10:96:c1:6f:3e:88:70:39:1b:6b:c6:d5:b6:
                    08:b2:d3:bc:f2:14:78:9b:55
                Exponent: 65537 (0x10001)
        X509v3 extensions:
            X509v3 Authority Key Identifier: 
            keyid:DB:F8:6A:15:0A:82:53:1F:C2:EB:CC:D0:6E:83:72:57:E4:45:F2:74

            X509v3 Extended Key Usage: 
            TLS Web Server Authentication, TLS Web Client Authentication, Microsoft Server Gated Crypto, Netscape Server Gated Crypto
            X509v3 Basic Constraints: critical
            CA:FALSE
    Signature Algorithm: md5WithRSAEncryption
        07:2a:68:3a:3b:ab:1a:1b:37:ea:e9:9c:50:14:8b:07:60:ae:
        b6:7b:67:6f:46:fa:57:83:e4:7c:fa:97:cf:09:57:ab:01:2a:
        b7:fd:a4:41:31:2e:4b:96:13:5a:e1:f0:02:52:57:e1:9f:51:
        a4:65:0e:b8:98:c4:af:a3:f5:36:1b:9e:f8:8e:a9:65:8c:85:
        52:4a:ba:d0:01:e1:25:2e:7d:ef:b1:8c:d5:7c:0e:bc:12:81:
        6c:5e:7c:68:4f:6b:44:37:84:18:19:29:45:c3:bd:1b:7c:8a:
        a3:30:32:94:a0:f1:a8:17:98:be:e4:71:39:71:aa:e4:bf:ad:
        59:92
-----BEGIN CERTIFICATE-----
MIICyDCCAjGgAwIBAgICAJkwDQYJKoZIhvcNAQEEBQAwfTELMAkGA1UEBhMCTVkx
DTALBgNVBAgTBE1BSEExDTALBgNVBAcTBFBVTkUxDTALBgNVBAoTBFBTUEwxETAP
BgNVBAsTCE9CTElYLVFBMQ8wDQYDVQQDEwZwczI0MzYxHTAbBgkqhkiG9w0BCQEW
DnNhZ2FyQHBzcGwuY29tMB4XDTEwMDcwMTExNTQyOFoXDTExMDcwMTExNTQyOFow
bTELMAkGA1UEBhMCVVMxEDAOBgNVBAgTB0FsYWJhbWExCzAJBgNVBAcTAlVTMQ8w
DQYDVQQKEwZPcmFjbGUxDzANBgNVBAsTBk9BTTEwZzEdMBsGA1UEAxMUc3RldmVm
LnVzLm9yYWNsZS5jb20wgZ8wDQYJKoZIhvcNAQEBBQADgY0AMIGJAoGBAL27NYUg
KbP79Vswc53RtfBX5Lb3XWO3LZpJ+R+IfPtYZloBxANn7wR+9kkuECbdxC3a8YVb
Ui1Fun9WnuinmtvrjtZlOj/Sv00by5hEMhlF7HJ9sCSGdCoxRf0rccJsO/Lpp0EU
mnQfoT4QlsFvPohwORtrxtW2CLLTvPIUeJtVAgMBAAGjZzBlMB8GA1UdIwQYMBaA
FNv4ahUKglMfwuvM0G6DclfkRfJ0MDQGA1UdJQQtMCsGCCsGAQUFBwMBBggrBgEF
BQcDAgYKKwYBBAGCNwoDAwYJYIZIAYb4QgQBMAwGA1UdEwEB/wQCMAAwDQYJKoZI
hvcNAQEEBQADgYEABypoOjurGhs36umcUBSLB2Cutntnb0b6V4PkfPqXzwlXqwEq
t/2kQTEuS5YTWuHwAlJX4Z9RpGUOuJjEr6P1Nhue+I6pZYyFUkq60AHhJS5977GM
1XwOvBKBbF58aE9rRDeEGBkpRcO9G3yKozAylKDxqBeYvuRxOXGq5L+tWZI=
-----END CERTIFICATE-----
