Certificate:
    Data:
        Version: 3 (0x2)
        Serial Number: 154 (0x9a)
        Signature Algorithm: md5WithRSAEncryption
        Issuer: C=MY, ST=MAHA, L=PUNE, O=PSPL, OU=OBLIX-QA, CN=ps2436/emailAddress=sagar@pspl.com
        Validity
            Not Before: Jul  8 10:19:49 2010 GMT
            Not After : Jul  8 10:19:49 2011 GMT
        Subject: C=US, ST=Maha, L=Pune, O=OAM11g, OU=Oracle, CN=dadvmc0387.us.oracle.com
        Subject Public Key Info:
            Public Key Algorithm: rsaEncryption
            RSA Public Key: (1024 bit)
                Modulus (1024 bit):
                    00:8e:c8:90:cc:c0:0e:ef:88:38:f4:41:63:36:83:
                    ce:c0:11:e9:d6:e4:1f:51:71:12:0a:69:f2:92:7a:
                    96:7e:2b:d1:a8:f5:77:0f:ee:c8:10:4f:85:c1:2b:
                    c8:3d:f0:42:a4:e4:a2:4c:b2:7e:e7:1b:66:f7:5f:
                    c9:5b:72:7d:ed:be:f8:11:b2:20:99:11:df:40:6d:
                    7a:3f:e6:8d:49:c5:26:b8:35:83:d8:1c:85:d9:0e:
                    51:b9:53:d1:4d:fb:20:2a:79:b1:04:36:68:38:c8:
                    82:0e:d7:1a:cf:be:a5:47:24:c9:58:5c:7e:3e:c7:
                    84:82:58:fb:60:de:a3:c0:99
                Exponent: 65537 (0x10001)
        X509v3 extensions:
            X509v3 Authority Key Identifier: 
            keyid:DB:F8:6A:15:0A:82:53:1F:C2:EB:CC:D0:6E:83:72:57:E4:45:F2:74

            X509v3 Extended Key Usage: 
            TLS Web Server Authentication, TLS Web Client Authentication, Microsoft Server Gated Crypto, Netscape Server Gated Crypto
            X509v3 Basic Constraints: critical
            CA:FALSE
    Signature Algorithm: md5WithRSAEncryption
        33:e9:74:92:49:9a:e7:f8:3a:e7:d8:25:7d:94:3f:6f:68:b5:
        1f:13:dd:ed:52:62:8c:96:a1:19:12:44:2d:98:86:df:b1:86:
        90:8a:3d:8f:9d:2c:05:b0:00:9c:7f:1a:fe:06:a1:e5:39:48:
        7b:1e:1e:9a:e1:4c:47:39:2f:e2:31:9d:e3:8e:98:b0:9a:e0:
        b6:01:04:a0:a4:5d:9a:8c:15:51:e8:ba:eb:97:1b:6d:6a:a8:
        13:b3:fe:6c:9d:01:8c:92:8c:46:da:8f:a3:d4:12:fe:44:7b:
        35:9c:d5:48:67:16:be:bb:78:35:d0:dd:63:5a:6d:c4:b6:cd:
        ef:1b
-----BEGIN CERTIFICATE-----
MIICyzCCAjSgAwIBAgICAJowDQYJKoZIhvcNAQEEBQAwfTELMAkGA1UEBhMCTVkx
DTALBgNVBAgTBE1BSEExDTALBgNVBAcTBFBVTkUxDTALBgNVBAoTBFBTUEwxETAP
BgNVBAsTCE9CTElYLVFBMQ8wDQYDVQQDEwZwczI0MzYxHTAbBgkqhkiG9w0BCQEW
DnNhZ2FyQHBzcGwuY29tMB4XDTEwMDcwODEwMTk0OVoXDTExMDcwODEwMTk0OVow
cDELMAkGA1UEBhMCVVMxDTALBgNVBAgTBE1haGExDTALBgNVBAcTBFB1bmUxDzAN
BgNVBAoTBk9BTTExZzEPMA0GA1UECxMGT3JhY2xlMSEwHwYDVQQDExhkYWR2bWMw
Mzg3LnVzLm9yYWNsZS5jb20wgZ8wDQYJKoZIhvcNAQEBBQADgY0AMIGJAoGBAI7I
kMzADu+IOPRBYzaDzsAR6dbkH1FxEgpp8pJ6ln4r0aj1dw/uyBBPhcEryD3wQqTk
okyyfucbZvdfyVtyfe2++BGyIJkR30Btej/mjUnFJrg1g9gchdkOUblT0U37ICp5
sQQ2aDjIgg7XGs++pUckyVhcfj7HhIJY+2Deo8CZAgMBAAGjZzBlMB8GA1UdIwQY
MBaAFNv4ahUKglMfwuvM0G6DclfkRfJ0MDQGA1UdJQQtMCsGCCsGAQUFBwMBBggr
BgEFBQcDAgYKKwYBBAGCNwoDAwYJYIZIAYb4QgQBMAwGA1UdEwEB/wQCMAAwDQYJ
KoZIhvcNAQEEBQADgYEAM+l0kkma5/g659glfZQ/b2i1HxPd7VJijJahGRJELZiG
37GGkIo9j50sBbAAnH8a/gah5TlIex4emuFMRzkv4jGd446YsJrgtgEEoKRdmowV
Uei665cbbWqoE7P+bJ0BjJKMRtqPo9QS/kR7NZzVSGcWvrt4NdDdY1ptxLbN7xs=
-----END CERTIFICATE-----
