Certificate:
    Data:
        Version: 3 (0x2)
        Serial Number: 155 (0x9b)
        Signature Algorithm: md5WithRSAEncryption
        Issuer: C=MY, ST=MAHA, L=PUNE, O=PSPL, OU=OBLIX-QA, CN=ps2436/emailAddress=sagar@pspl.com
        Validity
            Not Before: Jul 14 13:08:38 2010 GMT
            Not After : Jul 14 13:08:38 2011 GMT
        Subject: CN=weblogic/emailAddress=weblogic@oracle.com
        Subject Public Key Info:
            Public Key Algorithm: rsaEncryption
            RSA Public Key: (1024 bit)
                Modulus (1024 bit):
                    00:be:89:fc:2d:d3:df:98:30:45:71:7a:1b:d8:48:
                    89:8c:33:4a:f6:ad:6e:e1:9d:14:28:70:c9:ec:82:
                    23:e8:02:a5:92:0e:e7:e7:19:31:0b:83:3d:28:64:
                    86:aa:a5:99:3f:7c:05:76:f1:e5:f3:83:73:8e:58:
                    5b:80:42:84:0c:65:e8:c1:d3:b4:c6:2a:03:75:5f:
                    1c:fd:a8:51:cf:6b:9c:bd:fe:b0:86:18:7c:46:b7:
                    84:3e:43:f7:9e:9b:d3:a9:cb:b7:cc:85:3f:52:32:
                    ef:aa:ee:6b:33:1e:ee:71:35:23:22:2b:67:4d:ea:
                    e4:67:db:7b:f2:f3:1d:9e:d3
                Exponent: 65537 (0x10001)
        X509v3 extensions:
            X509v3 Subject Alternative Name: 
            email:weblogic@oracle.com
            X509v3 Basic Constraints: critical
            CA:FALSE
            X509v3 Authority Key Identifier: 
            keyid:DB:F8:6A:15:0A:82:53:1F:C2:EB:CC:D0:6E:83:72:57:E4:45:F2:74

            X509v3 Extended Key Usage: 
            TLS Web Client Authentication, E-mail Protection
    Signature Algorithm: md5WithRSAEncryption
        52:ec:43:33:28:55:ce:6d:f2:e3:5c:9e:69:85:06:1e:d2:29:
        09:36:69:b8:e3:59:3e:81:ea:4b:bd:b0:f5:6a:77:cc:3e:95:
        2d:1b:89:05:b0:4c:d2:d4:af:24:0f:e3:9c:d6:2f:25:52:ac:
        f5:c5:62:7c:c1:dc:a3:fd:89:08:42:21:3f:9b:c8:ea:52:b6:
        5d:f3:9e:40:1e:41:95:db:d2:bf:4f:2f:d6:d0:70:2c:34:2e:
        33:42:6a:9b:2a:0d:bb:dd:96:35:d2:d8:cc:7b:ab:65:e4:e2:
        ea:6b:26:dc:2f:76:8f:cb:93:9d:53:80:1a:ef:71:ec:5a:a4:
        05:41
-----BEGIN CERTIFICATE-----
MIICmzCCAgSgAwIBAgICAJswDQYJKoZIhvcNAQEEBQAwfTELMAkGA1UEBhMCTVkx
DTALBgNVBAgTBE1BSEExDTALBgNVBAcTBFBVTkUxDTALBgNVBAoTBFBTUEwxETAP
BgNVBAsTCE9CTElYLVFBMQ8wDQYDVQQDEwZwczI0MzYxHTAbBgkqhkiG9w0BCQEW
DnNhZ2FyQHBzcGwuY29tMB4XDTEwMDcxNDEzMDgzOFoXDTExMDcxNDEzMDgzOFow
NzERMA8GA1UEAxMId2VibG9naWMxIjAgBgkqhkiG9w0BCQEWE3dlYmxvZ2ljQG9y
YWNsZS5jb20wgZ8wDQYJKoZIhvcNAQEBBQADgY0AMIGJAoGBAL6J/C3T35gwRXF6
G9hIiYwzSvatbuGdFChwyeyCI+gCpZIO5+cZMQuDPShkhqqlmT98BXbx5fODc45Y
W4BChAxl6MHTtMYqA3VfHP2oUc9rnL3+sIYYfEa3hD5D956b06nLt8yFP1Iy76ru
azMe7nE1IyIrZ03q5Gfbe/LzHZ7TAgMBAAGjcDBuMB4GA1UdEQQXMBWBE3dlYmxv
Z2ljQG9yYWNsZS5jb20wDAYDVR0TAQH/BAIwADAfBgNVHSMEGDAWgBTb+GoVCoJT
H8LrzNBug3JX5EXydDAdBgNVHSUEFjAUBggrBgEFBQcDAgYIKwYBBQUHAwQwDQYJ
KoZIhvcNAQEEBQADgYEAUuxDMyhVzm3y41yeaYUGHtIpCTZpuONZPoHqS72w9Wp3
zD6VLRuJBbBM0tSvJA/jnNYvJVKs9cVifMHco/2JCEIhP5vI6lK2XfOeQB5BldvS
v08v1tBwLDQuM0JqmyoNu92WNdLYzHurZeTi6msm3C92j8uTnVOAGu9x7FqkBUE=
-----END CERTIFICATE-----
