Certificate:
    Data:
        Version: 3 (0x2)
        Serial Number: 156 (0x9c)
        Signature Algorithm: md5WithRSAEncryption
        Issuer: C=MY, ST=MAHA, L=PUNE, O=PSPL, OU=OBLIX-QA, CN=ps2436/emailAddress=sagar@pspl.com
        Validity
            Not Before: Jul 16 10:50:12 2010 GMT
            Not After : Jul 16 10:50:12 2011 GMT
        Subject: C=IN, ST=MAHA, L=PUNE, O=PSL, OU=Oracle, CN=dadvmn0120/emailAddress=sagar@oracle.com
        Subject Public Key Info:
            Public Key Algorithm: rsaEncryption
            RSA Public Key: (1024 bit)
                Modulus (1024 bit):
                    00:ab:f7:31:3f:af:67:33:ee:f5:95:83:a5:61:af:
                    c1:1f:5e:1b:08:7b:a5:46:cd:08:62:42:57:92:e7:
                    ff:93:e9:85:4e:f1:3a:07:c4:f6:28:9d:3a:3e:30:
                    30:bd:ec:cf:ea:7e:28:4b:21:25:70:71:86:c6:4f:
                    9f:f1:bf:71:3c:b3:15:84:c0:64:64:48:89:15:0b:
                    df:1e:80:64:9d:13:dd:8f:0b:5f:8f:02:49:8d:96:
                    7b:24:f4:eb:dc:59:9c:91:02:95:bc:61:4b:50:0d:
                    d3:97:05:40:d2:a1:7f:c4:50:81:8f:ea:10:02:e0:
                    f5:bf:6d:10:2c:d8:33:a5:dd
                Exponent: 65537 (0x10001)
        X509v3 extensions:
            X509v3 Authority Key Identifier: 
            keyid:DB:F8:6A:15:0A:82:53:1F:C2:EB:CC:D0:6E:83:72:57:E4:45:F2:74

            X509v3 Extended Key Usage: 
            TLS Web Server Authentication, TLS Web Client Authentication, Microsoft Server Gated Crypto, Netscape Server Gated Crypto
            X509v3 Basic Constraints: critical
            CA:FALSE
    Signature Algorithm: md5WithRSAEncryption
        0e:41:93:88:cb:be:e9:0b:d4:36:ff:c6:b6:0f:d9:86:4d:3e:
        48:10:f3:f1:a1:3c:10:12:71:f3:0a:4a:fc:8b:04:cc:62:f1:
        9c:68:d1:a7:17:ec:f2:7a:51:fb:70:1d:40:b3:08:de:e4:c4:
        4c:59:e9:67:64:5f:b4:a1:7c:2c:db:5d:d8:58:7d:80:68:fb:
        13:95:ab:6e:9e:e9:ae:a2:42:79:89:5f:5b:76:9b:ac:60:4f:
        ce:cb:25:d0:79:c3:05:bb:26:f4:04:04:f5:cb:c2:d4:6b:e7:
        63:ff:6c:57:ac:c6:16:66:f5:c7:de:56:6f:91:09:16:d5:0d:
        73:3c
-----BEGIN CERTIFICATE-----
MIIC3DCCAkWgAwIBAgICAJwwDQYJKoZIhvcNAQEEBQAwfTELMAkGA1UEBhMCTVkx
DTALBgNVBAgTBE1BSEExDTALBgNVBAcTBFBVTkUxDTALBgNVBAoTBFBTUEwxETAP
BgNVBAsTCE9CTElYLVFBMQ8wDQYDVQQDEwZwczI0MzYxHTAbBgkqhkiG9w0BCQEW
DnNhZ2FyQHBzcGwuY29tMB4XDTEwMDcxNjEwNTAxMloXDTExMDcxNjEwNTAxMlow
gYAxCzAJBgNVBAYTAklOMQ0wCwYDVQQIEwRNQUhBMQ0wCwYDVQQHEwRQVU5FMQww
CgYDVQQKEwNQU0wxDzANBgNVBAsTBk9yYWNsZTETMBEGA1UEAxMKZGFkdm1uMDEy
MDEfMB0GCSqGSIb3DQEJARYQc2FnYXJAb3JhY2xlLmNvbTCBnzANBgkqhkiG9w0B
AQEFAAOBjQAwgYkCgYEAq/cxP69nM+71lYOlYa/BH14bCHulRs0IYkJXkuf/k+mF
TvE6B8T2KJ06PjAwvezP6n4oSyElcHGGxk+f8b9xPLMVhMBkZEiJFQvfHoBknRPd
jwtfjwJJjZZ7JPTr3FmckQKVvGFLUA3TlwVA0qF/xFCBj+oQAuD1v20QLNgzpd0C
AwEAAaNnMGUwHwYDVR0jBBgwFoAU2/hqFQqCUx/C68zQboNyV+RF8nQwNAYDVR0l
BC0wKwYIKwYBBQUHAwEGCCsGAQUFBwMCBgorBgEEAYI3CgMDBglghkgBhvhCBAEw
DAYDVR0TAQH/BAIwADANBgkqhkiG9w0BAQQFAAOBgQAOQZOIy77pC9Q2/8a2D9mG
TT5IEPPxoTwQEnHzCkr8iwTMYvGcaNGnF+zyelH7cB1Aswje5MRMWelnZF+0oXws
213YWH2AaPsTlatunumuokJ5iV9bdpusYE/OyyXQecMFuyb0BAT1y8LUa+dj/2xX
rMYWZvXH3lZvkQkW1Q1zPA==
-----END CERTIFICATE-----
