Certificate:
    Data:
        Version: 3 (0x2)
        Serial Number: 157 (0x9d)
        Signature Algorithm: md5WithRSAEncryption
        Issuer: C=MY, ST=MAHA, L=PUNE, O=PSPL, OU=OBLIX-QA, CN=ps2436/emailAddress=sagar@pspl.com
        Validity
            Not Before: Jul 22 08:16:21 2010 GMT
            Not After : Jul 22 08:16:21 2011 GMT
        Subject: CN=mayank/emailAddress=mayank@oracle.com
        Subject Public Key Info:
            Public Key Algorithm: rsaEncryption
            RSA Public Key: (1024 bit)
                Modulus (1024 bit):
                    00:df:0f:a3:78:0e:5c:bd:9c:68:cd:8d:f1:c1:96:
                    74:e0:84:bd:6a:4d:41:1d:26:48:c2:2c:50:34:36:
                    6b:5f:5b:1d:6c:3f:d9:a3:0d:25:88:3a:5a:88:6e:
                    27:22:da:55:b3:72:e5:45:16:88:7c:98:fa:f3:21:
                    78:9d:a9:ed:50:62:70:09:3b:ee:9d:d9:ee:25:13:
                    2a:da:53:8b:8a:ca:4f:3c:99:7a:a3:6e:8e:72:a0:
                    fa:b4:aa:35:02:f5:b0:50:ef:bc:7c:7e:37:68:aa:
                    80:dc:a3:df:26:02:b1:94:b3:97:23:cf:eb:40:c1:
                    c4:53:a7:9b:0d:c8:12:04:af
                Exponent: 65537 (0x10001)
        X509v3 extensions:
            X509v3 Subject Alternative Name: 
            email:mayank@oracle.com
            X509v3 Basic Constraints: critical
            CA:FALSE
            X509v3 Authority Key Identifier: 
            keyid:DB:F8:6A:15:0A:82:53:1F:C2:EB:CC:D0:6E:83:72:57:E4:45:F2:74

            X509v3 Extended Key Usage: 
            TLS Web Client Authentication, E-mail Protection
    Signature Algorithm: md5WithRSAEncryption
        31:66:b4:de:24:8d:e2:12:36:70:29:b0:2a:30:30:39:35:be:
        41:2f:dc:56:84:91:f6:1f:14:c8:d2:bf:6f:44:04:2a:6a:61:
        cd:26:ca:79:5b:4e:ac:47:05:66:6e:91:f1:c6:45:af:5f:33:
        c4:6a:df:d2:1f:7d:ed:76:7f:cf:e1:f7:21:0c:76:82:68:f9:
        4b:73:bc:47:51:30:e1:50:ac:79:dd:0d:bd:c7:3f:02:9b:49:
        b5:a4:c8:dc:f5:12:db:c2:f2:f4:6a:7f:4b:0c:8e:5c:c0:e2:
        5d:27:42:d8:6c:3a:f0:6f:76:8f:bb:67:15:56:0b:33:fe:d2:
        c1:5e
-----BEGIN CERTIFICATE-----
MIIClTCCAf6gAwIBAgICAJ0wDQYJKoZIhvcNAQEEBQAwfTELMAkGA1UEBhMCTVkx
DTALBgNVBAgTBE1BSEExDTALBgNVBAcTBFBVTkUxDTALBgNVBAoTBFBTUEwxETAP
BgNVBAsTCE9CTElYLVFBMQ8wDQYDVQQDEwZwczI0MzYxHTAbBgkqhkiG9w0BCQEW
DnNhZ2FyQHBzcGwuY29tMB4XDTEwMDcyMjA4MTYyMVoXDTExMDcyMjA4MTYyMVow
MzEPMA0GA1UEAxMGbWF5YW5rMSAwHgYJKoZIhvcNAQkBFhFtYXlhbmtAb3JhY2xl
LmNvbTCBnzANBgkqhkiG9w0BAQEFAAOBjQAwgYkCgYEA3w+jeA5cvZxozY3xwZZ0
4IS9ak1BHSZIwixQNDZrX1sdbD/Zow0liDpaiG4nItpVs3LlRRaIfJj68yF4nant
UGJwCTvundnuJRMq2lOLispPPJl6o26OcqD6tKo1AvWwUO+8fH43aKqA3KPfJgKx
lLOXI8/rQMHEU6ebDcgSBK8CAwEAAaNuMGwwHAYDVR0RBBUwE4ERbWF5YW5rQG9y
YWNsZS5jb20wDAYDVR0TAQH/BAIwADAfBgNVHSMEGDAWgBTb+GoVCoJTH8LrzNBu
g3JX5EXydDAdBgNVHSUEFjAUBggrBgEFBQcDAgYIKwYBBQUHAwQwDQYJKoZIhvcN
AQEEBQADgYEAMWa03iSN4hI2cCmwKjAwOTW+QS/cVoSR9h8UyNK/b0QEKmphzSbK
eVtOrEcFZm6R8cZFr18zxGrf0h997XZ/z+H3IQx2gmj5S3O8R1Ew4VCsed0Nvcc/
AptJtaTI3PUS28Ly9Gp/SwyOXMDiXSdC2Gw68G92j7tnFVYLM/7SwV4=
-----END CERTIFICATE-----
