Certificate:
    Data:
        Version: 3 (0x2)
        Serial Number: 158 (0x9e)
        Signature Algorithm: md5WithRSAEncryption
        Issuer: C=MY, ST=MAHA, L=PUNE, O=PSPL, OU=OBLIX-QA, CN=ps2436/emailAddress=sagar@pspl.com
        Validity
            Not Before: Jul 27 10:08:35 2010 GMT
            Not After : Jul 27 10:08:35 2011 GMT
        Subject: C=IN, ST=MAHA, L=PUNE, O=PSL, OU=Oracle, CN=adc2170365.us.oracle.com
        Subject Public Key Info:
            Public Key Algorithm: rsaEncryption
            RSA Public Key: (1024 bit)
                Modulus (1024 bit):
                    00:b9:fd:4c:e8:d8:15:5f:bd:79:5d:d0:8a:17:e6:
                    23:f4:1f:23:59:05:48:be:3e:74:38:41:bc:4b:e8:
                    3c:af:ff:ad:a4:b4:c6:b7:51:15:53:90:8a:c0:0c:
                    d2:7d:ae:2f:a8:05:22:ec:c1:b5:9b:73:4f:dc:b5:
                    bc:5a:62:9a:8b:3c:49:ca:40:34:dd:01:8d:3b:ac:
                    aa:4e:aa:1c:56:bb:53:d7:99:17:05:98:81:06:88:
                    20:5b:4f:44:ad:95:e1:ca:e6:cf:2c:49:54:4f:ca:
                    a5:4d:28:2a:c2:3c:71:5e:5f:40:9f:26:d7:16:a2:
                    06:40:1f:2b:9b:8b:b9:30:1f
                Exponent: 65537 (0x10001)
        X509v3 extensions:
            X509v3 Authority Key Identifier: 
            keyid:DB:F8:6A:15:0A:82:53:1F:C2:EB:CC:D0:6E:83:72:57:E4:45:F2:74

            X509v3 Extended Key Usage: 
            TLS Web Server Authentication, TLS Web Client Authentication, Microsoft Server Gated Crypto, Netscape Server Gated Crypto
            X509v3 Basic Constraints: critical
            CA:FALSE
    Signature Algorithm: md5WithRSAEncryption
        95:ea:3f:b0:4c:38:20:d7:0b:13:26:7e:47:c8:7b:c6:45:51:
        92:ee:ed:a2:ea:b9:cf:3c:ce:ef:d1:0d:57:74:15:e5:81:ce:
        aa:1a:18:67:bc:55:2c:6b:18:e8:8d:8d:0a:04:a2:dd:b9:42:
        b3:8c:4d:fb:b3:11:58:9f:3c:ce:46:7c:80:8f:d8:d5:70:0a:
        b0:c9:c3:88:04:ef:53:04:f9:44:78:df:84:38:5c:e7:df:3a:
        cb:02:07:39:42:4a:8a:53:03:5e:f3:9b:45:33:cd:c6:2d:f1:
        b5:71:38:bc:7d:0f:2b:6a:43:28:e0:22:b4:01:ee:87:e7:c9:
        fa:c3
-----BEGIN CERTIFICATE-----
MIICyDCCAjGgAwIBAgICAJ4wDQYJKoZIhvcNAQEEBQAwfTELMAkGA1UEBhMCTVkx
DTALBgNVBAgTBE1BSEExDTALBgNVBAcTBFBVTkUxDTALBgNVBAoTBFBTUEwxETAP
BgNVBAsTCE9CTElYLVFBMQ8wDQYDVQQDEwZwczI0MzYxHTAbBgkqhkiG9w0BCQEW
DnNhZ2FyQHBzcGwuY29tMB4XDTEwMDcyNzEwMDgzNVoXDTExMDcyNzEwMDgzNVow
bTELMAkGA1UEBhMCSU4xDTALBgNVBAgTBE1BSEExDTALBgNVBAcTBFBVTkUxDDAK
BgNVBAoTA1BTTDEPMA0GA1UECxMGT3JhY2xlMSEwHwYDVQQDExhhZGMyMTcwMzY1
LnVzLm9yYWNsZS5jb20wgZ8wDQYJKoZIhvcNAQEBBQADgY0AMIGJAoGBALn9TOjY
FV+9eV3QihfmI/QfI1kFSL4+dDhBvEvoPK//raS0xrdRFVOQisAM0n2uL6gFIuzB
tZtzT9y1vFpimos8ScpANN0BjTusqk6qHFa7U9eZFwWYgQaIIFtPRK2V4crmzyxJ
VE/KpU0oKsI8cV5fQJ8m1xaiBkAfK5uLuTAfAgMBAAGjZzBlMB8GA1UdIwQYMBaA
FNv4ahUKglMfwuvM0G6DclfkRfJ0MDQGA1UdJQQtMCsGCCsGAQUFBwMBBggrBgEF
BQcDAgYKKwYBBAGCNwoDAwYJYIZIAYb4QgQBMAwGA1UdEwEB/wQCMAAwDQYJKoZI
hvcNAQEEBQADgYEAleo/sEw4INcLEyZ+R8h7xkVRku7touq5zzzO79ENV3QV5YHO
qhoYZ7xVLGsY6I2NCgSi3blCs4xN+7MRWJ88zkZ8gI/Y1XAKsMnDiATvUwT5RHjf
hDhc5986ywIHOUJKilMDXvObRTPNxi3xtXE4vH0PK2pDKOAitAHuh+fJ+sM=
-----END CERTIFICATE-----
