Certificate:
    Data:
        Version: 3 (0x2)
        Serial Number: 159 (0x9f)
        Signature Algorithm: md5WithRSAEncryption
        Issuer: C=MY, ST=MAHA, L=PUNE, O=PSPL, OU=OBLIX-QA, CN=ps2436/emailAddress=sagar@pspl.com
        Validity
            Not Before: Aug 16 14:34:14 2010 GMT
            Not After : Aug 16 14:34:14 2011 GMT
        Subject: C=in, ST=maharashtra, L=pune, O=psl, OU=oblix, CN=10.159.49.145
        Subject Public Key Info:
            Public Key Algorithm: rsaEncryption
            RSA Public Key: (1024 bit)
                Modulus (1024 bit):
                    00:dc:20:13:a4:55:d3:f5:ba:9e:b5:d9:f1:ee:aa:
                    01:b6:96:98:86:9c:1e:15:f4:ee:5a:a5:38:e3:87:
                    83:a2:0e:36:21:9e:63:71:a0:c7:60:fa:32:35:cb:
                    73:07:3d:e0:53:40:fc:47:a5:55:48:b0:eb:56:21:
                    6d:c2:66:23:47:55:9d:7a:cc:79:95:74:40:9e:ad:
                    b8:d6:5f:1a:89:6d:1a:2e:3a:71:81:af:a8:72:b2:
                    d3:9b:1d:ae:aa:bf:87:36:93:a4:6c:e9:1b:0f:1a:
                    e4:2b:1e:a7:cb:55:c8:5d:35:bd:27:81:2f:24:07:
                    d0:07:3e:49:11:01:5e:bc:d7
                Exponent: 65537 (0x10001)
        X509v3 extensions:
            X509v3 Authority Key Identifier: 
            keyid:DB:F8:6A:15:0A:82:53:1F:C2:EB:CC:D0:6E:83:72:57:E4:45:F2:74

            X509v3 Extended Key Usage: 
            TLS Web Server Authentication, TLS Web Client Authentication, Microsoft Server Gated Crypto, Netscape Server Gated Crypto
            X509v3 Basic Constraints: critical
            CA:FALSE
    Signature Algorithm: md5WithRSAEncryption
        41:8f:e9:71:06:01:31:40:0f:0d:f9:1b:ed:63:a2:4e:87:a1:
        2f:60:15:ff:c2:8a:33:ca:5f:70:ec:e7:d6:e8:fd:93:f9:52:
        9a:6a:1b:6c:74:ce:43:96:ac:20:ba:3e:da:21:e2:38:9d:4a:
        54:c9:d7:7d:2f:cf:f7:77:c4:0d:02:78:07:db:a1:44:3a:d9:
        b8:c7:46:c8:06:f6:15:98:e2:22:4e:7c:1f:52:ca:47:6a:2a:
        8d:1b:f5:99:c6:ae:a0:52:86:ee:98:41:1d:a1:f0:98:9b:03:
        53:64:e1:68:f8:51:75:6b:0c:55:3e:50:d7:93:13:d9:60:be:
        85:a2
-----BEGIN CERTIFICATE-----
MIICwzCCAiygAwIBAgICAJ8wDQYJKoZIhvcNAQEEBQAwfTELMAkGA1UEBhMCTVkx
DTALBgNVBAgTBE1BSEExDTALBgNVBAcTBFBVTkUxDTALBgNVBAoTBFBTUEwxETAP
BgNVBAsTCE9CTElYLVFBMQ8wDQYDVQQDEwZwczI0MzYxHTAbBgkqhkiG9w0BCQEW
DnNhZ2FyQHBzcGwuY29tMB4XDTEwMDgxNjE0MzQxNFoXDTExMDgxNjE0MzQxNFow
aDELMAkGA1UEBhMCaW4xFDASBgNVBAgTC21haGFyYXNodHJhMQ0wCwYDVQQHEwRw
dW5lMQwwCgYDVQQKEwNwc2wxDjAMBgNVBAsTBW9ibGl4MRYwFAYDVQQDEw0xMC4x
NTkuNDkuMTQ1MIGfMA0GCSqGSIb3DQEBAQUAA4GNADCBiQKBgQDcIBOkVdP1up61
2fHuqgG2lpiGnB4V9O5apTjjh4OiDjYhnmNxoMdg+jI1y3MHPeBTQPxHpVVIsOtW
IW3CZiNHVZ16zHmVdECerbjWXxqJbRouOnGBr6hystObHa6qv4c2k6Rs6RsPGuQr
HqfLVchdNb0ngS8kB9AHPkkRAV681wIDAQABo2cwZTAfBgNVHSMEGDAWgBTb+GoV
CoJTH8LrzNBug3JX5EXydDA0BgNVHSUELTArBggrBgEFBQcDAQYIKwYBBQUHAwIG
CisGAQQBgjcKAwMGCWCGSAGG+EIEATAMBgNVHRMBAf8EAjAAMA0GCSqGSIb3DQEB
BAUAA4GBAEGP6XEGATFADw35G+1jok6HoS9gFf/CijPKX3Ds59bo/ZP5UppqG2x0
zkOWrCC6Ptoh4jidSlTJ130vz/d3xA0CeAfboUQ62bjHRsgG9hWY4iJOfB9Sykdq
Ko0b9ZnGrqBShu6YQR2h8JibA1Nk4Wj4UXVrDFU+UNeTE9lgvoWi
-----END CERTIFICATE-----
