Certificate:
    Data:
        Version: 3 (0x2)
        Serial Number: 160 (0xa0)
        Signature Algorithm: md5WithRSAEncryption
        Issuer: C=MY, ST=MAHA, L=PUNE, O=PSPL, OU=OBLIX-QA, CN=ps2436/emailAddress=sagar@pspl.com
        Validity
            Not Before: Aug 30 10:44:27 2010 GMT
            Not After : Aug 30 10:44:27 2011 GMT
        Subject: C=US, ST=Maha, L=Pune, O=OAM, OU=Oracle, CN=dadvmc0406.us.oracle.com
        Subject Public Key Info:
            Public Key Algorithm: rsaEncryption
            RSA Public Key: (1024 bit)
                Modulus (1024 bit):
                    00:aa:ed:13:bb:c9:79:6f:ad:59:12:47:0e:d4:9e:
                    77:20:1b:72:94:ea:a8:ac:7f:9c:78:0f:d0:da:04:
                    3c:70:c9:20:26:b1:11:a9:a6:c3:51:f7:0d:8d:b7:
                    b5:5b:cb:02:08:58:8e:73:8b:a1:c4:a9:4d:17:78:
                    a5:e4:cd:3a:51:f9:96:24:d5:13:a2:f4:c9:1f:b5:
                    3d:89:b2:61:36:36:8b:a2:70:18:68:2f:66:30:70:
                    9d:ea:b7:8d:10:14:8f:f3:16:d7:47:1f:78:f7:90:
                    36:a6:11:de:5a:88:a7:14:81:1f:80:ad:9a:b2:64:
                    1b:f1:40:99:04:45:86:12:5b
                Exponent: 65537 (0x10001)
        X509v3 extensions:
            X509v3 Authority Key Identifier: 
            keyid:DB:F8:6A:15:0A:82:53:1F:C2:EB:CC:D0:6E:83:72:57:E4:45:F2:74

            X509v3 Extended Key Usage: 
            TLS Web Server Authentication, TLS Web Client Authentication, Microsoft Server Gated Crypto, Netscape Server Gated Crypto
            X509v3 Basic Constraints: critical
            CA:FALSE
    Signature Algorithm: md5WithRSAEncryption
        be:13:ac:89:c8:8d:fe:f7:33:0c:32:93:d1:76:3c:7a:89:5d:
        86:58:67:47:f0:d9:30:9c:49:f4:84:8c:e3:74:9f:34:63:2d:
        8f:6d:51:95:6b:c5:1d:85:ba:78:6f:ec:c2:29:e8:ad:bb:f7:
        4c:02:d1:f0:bb:3a:d6:a3:6d:18:d4:b6:bc:9e:bd:b6:d4:35:
        66:43:8d:06:b1:fb:8b:a8:3e:c5:b3:41:b9:ec:bf:03:d0:54:
        6e:55:a5:5a:f8:02:10:50:b5:ba:77:7f:d6:44:f6:39:ba:50:
        e5:3c:c3:a8:b3:df:c6:63:c7:21:c2:3e:91:06:a0:84:23:64:
        4b:d8
-----BEGIN CERTIFICATE-----
MIICyDCCAjGgAwIBAgICAKAwDQYJKoZIhvcNAQEEBQAwfTELMAkGA1UEBhMCTVkx
DTALBgNVBAgTBE1BSEExDTALBgNVBAcTBFBVTkUxDTALBgNVBAoTBFBTUEwxETAP
BgNVBAsTCE9CTElYLVFBMQ8wDQYDVQQDEwZwczI0MzYxHTAbBgkqhkiG9w0BCQEW
DnNhZ2FyQHBzcGwuY29tMB4XDTEwMDgzMDEwNDQyN1oXDTExMDgzMDEwNDQyN1ow
bTELMAkGA1UEBhMCVVMxDTALBgNVBAgTBE1haGExDTALBgNVBAcTBFB1bmUxDDAK
BgNVBAoTA09BTTEPMA0GA1UECxMGT3JhY2xlMSEwHwYDVQQDExhkYWR2bWMwNDA2
LnVzLm9yYWNsZS5jb20wgZ8wDQYJKoZIhvcNAQEBBQADgY0AMIGJAoGBAKrtE7vJ
eW+tWRJHDtSedyAbcpTqqKx/nHgP0NoEPHDJICaxEammw1H3DY23tVvLAghYjnOL
ocSpTRd4peTNOlH5liTVE6L0yR+1PYmyYTY2i6JwGGgvZjBwneq3jRAUj/MW10cf
ePeQNqYR3lqIpxSBH4CtmrJkG/FAmQRFhhJbAgMBAAGjZzBlMB8GA1UdIwQYMBaA
FNv4ahUKglMfwuvM0G6DclfkRfJ0MDQGA1UdJQQtMCsGCCsGAQUFBwMBBggrBgEF
BQcDAgYKKwYBBAGCNwoDAwYJYIZIAYb4QgQBMAwGA1UdEwEB/wQCMAAwDQYJKoZI
hvcNAQEEBQADgYEAvhOsiciN/vczDDKT0XY8eoldhlhnR/DZMJxJ9ISM43SfNGMt
j21RlWvFHYW6eG/swinorbv3TALR8Ls61qNtGNS2vJ69ttQ1ZkONBrH7i6g+xbNB
uey/A9BUblWlWvgCEFC1und/1kT2ObpQ5TzDqLPfxmPHIcI+kQaghCNkS9g=
-----END CERTIFICATE-----
