Certificate:
    Data:
        Version: 3 (0x2)
        Serial Number: 161 (0xa1)
        Signature Algorithm: md5WithRSAEncryption
        Issuer: C=MY, ST=MAHA, L=PUNE, O=PSPL, OU=OBLIX-QA, CN=ps2436/emailAddress=sagar@pspl.com
        Validity
            Not Before: Sep  1 07:38:52 2010 GMT
            Not After : Sep  1 07:38:52 2011 GMT
        Subject: C=US, ST=Maha, L=Pune, O=OAM, OU=Oracle, CN=dadvml0027.us.oracle.com
        Subject Public Key Info:
            Public Key Algorithm: rsaEncryption
            RSA Public Key: (1024 bit)
                Modulus (1024 bit):
                    00:93:0f:bb:61:b1:0a:78:a0:68:69:3c:60:76:88:
                    0a:b8:71:71:b9:33:05:1f:e4:ab:0a:d7:9b:70:cb:
                    f0:82:80:d8:83:9d:15:21:32:14:09:6a:84:9e:49:
                    21:84:4e:c1:b9:16:88:c2:91:14:3b:e3:7c:b2:e8:
                    c0:e2:e9:81:bc:c3:48:07:95:fc:b6:4a:6c:5f:ac:
                    9b:43:ba:62:02:cc:55:0d:db:c8:bc:48:0c:40:47:
                    d0:4d:28:2d:41:fa:7a:38:5f:5f:75:06:07:39:2f:
                    66:4f:c2:ce:58:13:b6:fb:ad:80:7c:e5:c4:9d:bf:
                    0c:10:5b:8e:59:42:73:3c:77
                Exponent: 65537 (0x10001)
        X509v3 extensions:
            X509v3 Authority Key Identifier: 
            keyid:DB:F8:6A:15:0A:82:53:1F:C2:EB:CC:D0:6E:83:72:57:E4:45:F2:74

            X509v3 Extended Key Usage: 
            TLS Web Server Authentication, TLS Web Client Authentication, Microsoft Server Gated Crypto, Netscape Server Gated Crypto
            X509v3 Basic Constraints: critical
            CA:FALSE
    Signature Algorithm: md5WithRSAEncryption
        44:6d:ec:fc:e9:ad:5b:0f:5e:3e:2f:d9:28:2f:6e:34:a9:36:
        a2:ac:1e:59:25:1e:2c:f8:7a:d3:b2:bd:4f:81:f0:e4:5a:27:
        ce:85:41:45:44:7e:35:e4:ce:2f:06:7d:da:72:d0:fc:91:d0:
        c2:e1:9d:e2:7c:66:23:4a:dc:e6:b2:89:8d:df:1e:d2:cb:17:
        92:af:a4:5f:e2:fe:f6:63:6e:e6:fa:ee:c3:1b:05:ad:e3:11:
        8b:f2:30:af:38:96:58:6e:57:c7:67:26:d1:3d:dc:69:1a:d4:
        aa:8b:57:32:18:78:78:2a:01:84:34:30:75:09:ca:e2:2b:39:
        3f:94
-----BEGIN CERTIFICATE-----
MIICyDCCAjGgAwIBAgICAKEwDQYJKoZIhvcNAQEEBQAwfTELMAkGA1UEBhMCTVkx
DTALBgNVBAgTBE1BSEExDTALBgNVBAcTBFBVTkUxDTALBgNVBAoTBFBTUEwxETAP
BgNVBAsTCE9CTElYLVFBMQ8wDQYDVQQDEwZwczI0MzYxHTAbBgkqhkiG9w0BCQEW
DnNhZ2FyQHBzcGwuY29tMB4XDTEwMDkwMTA3Mzg1MloXDTExMDkwMTA3Mzg1Mlow
bTELMAkGA1UEBhMCVVMxDTALBgNVBAgTBE1haGExDTALBgNVBAcTBFB1bmUxDDAK
BgNVBAoTA09BTTEPMA0GA1UECxMGT3JhY2xlMSEwHwYDVQQDExhkYWR2bWwwMDI3
LnVzLm9yYWNsZS5jb20wgZ8wDQYJKoZIhvcNAQEBBQADgY0AMIGJAoGBAJMPu2Gx
CnigaGk8YHaICrhxcbkzBR/kqwrXm3DL8IKA2IOdFSEyFAlqhJ5JIYROwbkWiMKR
FDvjfLLowOLpgbzDSAeV/LZKbF+sm0O6YgLMVQ3byLxIDEBH0E0oLUH6ejhfX3UG
BzkvZk/CzlgTtvutgHzlxJ2/DBBbjllCczx3AgMBAAGjZzBlMB8GA1UdIwQYMBaA
FNv4ahUKglMfwuvM0G6DclfkRfJ0MDQGA1UdJQQtMCsGCCsGAQUFBwMBBggrBgEF
BQcDAgYKKwYBBAGCNwoDAwYJYIZIAYb4QgQBMAwGA1UdEwEB/wQCMAAwDQYJKoZI
hvcNAQEEBQADgYEARG3s/OmtWw9ePi/ZKC9uNKk2oqweWSUeLPh607K9T4Hw5Fon
zoVBRUR+NeTOLwZ92nLQ/JHQwuGd4nxmI0rc5rKJjd8e0ssXkq+kX+L+9mNu5vru
wxsFreMRi/IwrziWWG5Xx2cm0T3caRrUqotXMhh4eCoBhDQwdQnK4is5P5Q=
-----END CERTIFICATE-----
