Certificate:
    Data:
        Version: 3 (0x2)
        Serial Number: 162 (0xa2)
        Signature Algorithm: md5WithRSAEncryption
        Issuer: C=MY, ST=MAHA, L=PUNE, O=PSPL, OU=OBLIX-QA, CN=ps2436/emailAddress=sagar@pspl.com
        Validity
            Not Before: Sep  6 09:20:34 2010 GMT
            Not After : Sep  6 09:20:34 2011 GMT
        Subject: C=OL, ST=UT, L=AS, O=PSL, OU=OBLIX, CN=dadvmc0406.us.oracle.com/emailAddress=sagar@oracle.com
        Subject Public Key Info:
            Public Key Algorithm: rsaEncryption
            RSA Public Key: (1024 bit)
                Modulus (1024 bit):
                    00:c5:c3:eb:a0:15:a3:b7:a2:f4:ef:8a:c5:8f:e4:
                    96:f5:90:1c:01:a1:a2:7f:4a:a7:f2:98:49:7b:39:
                    a9:a8:52:38:88:81:dc:1a:6a:91:8b:af:c9:94:66:
                    fb:aa:e9:00:50:54:01:b6:0c:12:65:a9:b6:76:be:
                    45:ec:d3:8e:49:27:07:d0:7b:44:bd:30:8f:f3:d1:
                    9f:dd:81:55:03:f4:71:88:23:15:88:86:13:81:55:
                    32:1c:9c:9b:cc:64:22:0a:23:87:6f:8a:f7:27:8a:
                    98:bd:e9:23:13:57:bc:eb:a2:14:0c:f1:b3:89:78:
                    43:b8:5f:2d:df:7f:08:6d:af
                Exponent: 65537 (0x10001)
        X509v3 extensions:
            X509v3 Authority Key Identifier: 
            keyid:DB:F8:6A:15:0A:82:53:1F:C2:EB:CC:D0:6E:83:72:57:E4:45:F2:74

            X509v3 Extended Key Usage: 
            TLS Web Server Authentication, TLS Web Client Authentication, Microsoft Server Gated Crypto, Netscape Server Gated Crypto
            X509v3 Basic Constraints: critical
            CA:FALSE
    Signature Algorithm: md5WithRSAEncryption
        0f:ca:ec:86:cc:9e:ec:6a:ea:35:c8:c3:2b:72:62:01:b0:5f:
        e9:cb:0c:ec:2b:5f:2c:06:cb:17:18:c1:57:6a:3d:ec:a1:f1:
        aa:4a:db:3f:2f:7f:6e:95:7c:31:e2:9c:20:bd:97:75:57:71:
        75:f0:99:68:f7:8d:ee:d7:09:3f:5b:c1:90:14:3c:0a:40:16:
        30:2f:04:62:bb:d2:1f:71:d5:e4:e3:4b:19:4c:41:f0:7a:ca:
        e0:4c:6e:e5:13:08:d5:a4:4a:cf:ad:3b:7b:c0:84:6b:62:cd:
        cd:2b:a3:5c:69:ed:71:01:22:4b:55:25:cb:02:c8:bf:68:f6:
        db:69
-----BEGIN CERTIFICATE-----
MIIC5TCCAk6gAwIBAgICAKIwDQYJKoZIhvcNAQEEBQAwfTELMAkGA1UEBhMCTVkx
DTALBgNVBAgTBE1BSEExDTALBgNVBAcTBFBVTkUxDTALBgNVBAoTBFBTUEwxETAP
BgNVBAsTCE9CTElYLVFBMQ8wDQYDVQQDEwZwczI0MzYxHTAbBgkqhkiG9w0BCQEW
DnNhZ2FyQHBzcGwuY29tMB4XDTEwMDkwNjA5MjAzNFoXDTExMDkwNjA5MjAzNFow
gYkxCzAJBgNVBAYTAk9MMQswCQYDVQQIEwJVVDELMAkGA1UEBxMCQVMxDDAKBgNV
BAoTA1BTTDEOMAwGA1UECxMFT0JMSVgxITAfBgNVBAMTGGRhZHZtYzA0MDYudXMu
b3JhY2xlLmNvbTEfMB0GCSqGSIb3DQEJARYQc2FnYXJAb3JhY2xlLmNvbTCBnzAN
BgkqhkiG9w0BAQEFAAOBjQAwgYkCgYEAxcProBWjt6L074rFj+SW9ZAcAaGif0qn
8phJezmpqFI4iIHcGmqRi6/JlGb7qukAUFQBtgwSZam2dr5F7NOOSScH0HtEvTCP
89Gf3YFVA/RxiCMViIYTgVUyHJybzGQiCiOHb4r3J4qYvekjE1e866IUDPGziXhD
uF8t338Iba8CAwEAAaNnMGUwHwYDVR0jBBgwFoAU2/hqFQqCUx/C68zQboNyV+RF
8nQwNAYDVR0lBC0wKwYIKwYBBQUHAwEGCCsGAQUFBwMCBgorBgEEAYI3CgMDBglg
hkgBhvhCBAEwDAYDVR0TAQH/BAIwADANBgkqhkiG9w0BAQQFAAOBgQAPyuyGzJ7s
auo1yMMrcmIBsF/pywzsK18sBssXGMFXaj3sofGqSts/L39ulXwx4pwgvZd1V3F1
8Jlo943u1wk/W8GQFDwKQBYwLwRiu9IfcdXk40sZTEHwesrgTG7lEwjVpErPrTt7
wIRrYs3NK6Ncae1xASJLVSXLAsi/aPbbaQ==
-----END CERTIFICATE-----
