Certificate:
    Data:
        Version: 3 (0x2)
        Serial Number: 163 (0xa3)
        Signature Algorithm: md5WithRSAEncryption
        Issuer: C=MY, ST=MAHA, L=PUNE, O=PSPL, OU=OBLIX-QA, CN=ps2436/emailAddress=sagar@pspl.com
        Validity
            Not Before: Sep  8 12:55:33 2010 GMT
            Not After : Sep  8 12:55:33 2011 GMT
        Subject: CN=charles/emailAddress=charles@oracle.com
        Subject Public Key Info:
            Public Key Algorithm: rsaEncryption
            RSA Public Key: (1024 bit)
                Modulus (1024 bit):
                    00:ee:a9:d8:15:57:fc:e5:18:c2:83:92:80:bc:9d:
                    a8:9b:10:c5:88:ee:9e:35:56:ce:b6:5e:37:76:aa:
                    f7:9a:7c:74:5b:7f:26:83:6c:56:73:dd:81:3e:96:
                    86:93:7f:74:0f:35:23:cd:00:0c:f2:dc:2a:7b:55:
                    e5:8c:a0:70:ba:24:9a:8b:6b:8f:f8:0e:35:e0:24:
                    7c:bc:11:26:ed:8a:26:26:56:ad:32:6a:93:ee:02:
                    04:6e:2c:b6:d0:72:53:1f:bc:25:d6:16:65:78:4a:
                    96:b3:54:99:be:a5:d1:82:7d:6d:2a:b5:46:a3:56:
                    af:dd:51:1c:38:c6:ba:46:35
                Exponent: 65537 (0x10001)
        X509v3 extensions:
            X509v3 Subject Alternative Name: 
            email:charles@oracle.com
            X509v3 Basic Constraints: critical
            CA:FALSE
            X509v3 Authority Key Identifier: 
            keyid:DB:F8:6A:15:0A:82:53:1F:C2:EB:CC:D0:6E:83:72:57:E4:45:F2:74

            X509v3 Extended Key Usage: 
            TLS Web Client Authentication, E-mail Protection
    Signature Algorithm: md5WithRSAEncryption
        92:7f:d9:f5:5c:ba:ea:7e:7d:3f:21:66:03:a9:e3:d1:d7:d2:
        a3:56:cc:12:10:82:c1:2f:04:96:df:3d:28:a2:8d:f5:5e:25:
        25:36:b0:da:dd:38:68:68:ec:5e:7a:aa:d4:34:d7:b0:e0:94:
        b9:6f:91:94:f2:97:51:ed:59:cf:27:2e:17:14:01:ae:0d:f7:
        18:d1:22:26:09:a1:fd:c5:5c:27:3f:59:aa:ab:38:c4:b6:55:
        30:c7:ca:b4:67:df:93:67:3b:b6:ec:a1:65:5c:bb:dd:42:23:
        15:ec:0d:7c:f6:d8:89:3e:3d:23:26:9c:0c:37:6d:c3:ef:e9:
        79:24
-----BEGIN CERTIFICATE-----
MIICmDCCAgGgAwIBAgICAKMwDQYJKoZIhvcNAQEEBQAwfTELMAkGA1UEBhMCTVkx
DTALBgNVBAgTBE1BSEExDTALBgNVBAcTBFBVTkUxDTALBgNVBAoTBFBTUEwxETAP
BgNVBAsTCE9CTElYLVFBMQ8wDQYDVQQDEwZwczI0MzYxHTAbBgkqhkiG9w0BCQEW
DnNhZ2FyQHBzcGwuY29tMB4XDTEwMDkwODEyNTUzM1oXDTExMDkwODEyNTUzM1ow
NTEQMA4GA1UEAxMHY2hhcmxlczEhMB8GCSqGSIb3DQEJARYSY2hhcmxlc0BvcmFj
bGUuY29tMIGfMA0GCSqGSIb3DQEBAQUAA4GNADCBiQKBgQDuqdgVV/zlGMKDkoC8
naibEMWI7p41Vs62Xjd2qveafHRbfyaDbFZz3YE+loaTf3QPNSPNAAzy3Cp7VeWM
oHC6JJqLa4/4DjXgJHy8ESbtiiYmVq0yapPuAgRuLLbQclMfvCXWFmV4SpazVJm+
pdGCfW0qtUajVq/dURw4xrpGNQIDAQABo28wbTAdBgNVHREEFjAUgRJjaGFybGVz
QG9yYWNsZS5jb20wDAYDVR0TAQH/BAIwADAfBgNVHSMEGDAWgBTb+GoVCoJTH8Lr
zNBug3JX5EXydDAdBgNVHSUEFjAUBggrBgEFBQcDAgYIKwYBBQUHAwQwDQYJKoZI
hvcNAQEEBQADgYEAkn/Z9Vy66n59PyFmA6nj0dfSo1bMEhCCwS8Elt89KKKN9V4l
JTaw2t04aGjsXnqq1DTXsOCUuW+RlPKXUe1ZzycuFxQBrg33GNEiJgmh/cVcJz9Z
qqs4xLZVMMfKtGffk2c7tuyhZVy73UIjFewNfPbYiT49IyacDDdtw+/peSQ=
-----END CERTIFICATE-----
