Certificate:
    Data:
        Version: 3 (0x2)
        Serial Number: 164 (0xa4)
        Signature Algorithm: md5WithRSAEncryption
        Issuer: C=MY, ST=MAHA, L=PUNE, O=PSPL, OU=OBLIX-QA, CN=ps2436/emailAddress=sagar@pspl.com
        Validity
            Not Before: Sep 15 06:57:05 2010 GMT
            Not After : Sep 15 06:57:05 2011 GMT
        Subject: C=US, ST=Some-State, L=Locality Name, O=Some-Organization Pty Ltd, OU=production, CN=hostName.domainName.com/emailAddress=mail@domain.com
        Subject Public Key Info:
            Public Key Algorithm: rsaEncryption
            RSA Public Key: (1024 bit)
                Modulus (1024 bit):
                    00:e5:b9:da:a1:d4:17:bb:67:20:e7:a2:11:6f:df:
                    51:22:f4:95:06:b4:aa:98:54:c5:c1:e7:50:ca:71:
                    5f:48:59:05:93:c0:fc:bc:44:73:44:de:3f:45:e5:
                    af:84:a4:fb:c7:81:38:53:87:66:ea:ca:15:69:dc:
                    b4:fd:cd:0c:da:95:11:6c:3b:65:55:0a:f6:a3:09:
                    de:11:0a:5b:da:5c:a0:72:45:e6:83:9f:9c:9e:00:
                    e2:ea:99:25:b3:59:d4:f4:8c:eb:5a:b8:a3:29:fb:
                    f8:2f:1c:1d:55:1d:e0:ad:0c:a8:03:63:aa:31:8f:
                    86:b6:b3:67:ae:6f:a3:29:2f
                Exponent: 65537 (0x10001)
        X509v3 extensions:
            X509v3 Authority Key Identifier: 
            keyid:DB:F8:6A:15:0A:82:53:1F:C2:EB:CC:D0:6E:83:72:57:E4:45:F2:74

            X509v3 Extended Key Usage: 
            TLS Web Server Authentication, TLS Web Client Authentication, Microsoft Server Gated Crypto, Netscape Server Gated Crypto
            X509v3 Basic Constraints: critical
            CA:FALSE
    Signature Algorithm: md5WithRSAEncryption
        19:a5:4d:b4:1b:e4:c9:75:ce:3c:87:6b:aa:3e:4b:76:cf:c0:
        7b:d7:be:15:4c:2c:e9:66:70:7d:25:3e:b0:17:80:90:b8:1b:
        60:eb:6e:a9:ce:56:18:fb:82:55:ac:67:1a:9a:cf:aa:2e:8e:
        9a:87:2b:9c:8d:4d:59:a8:63:e7:56:e6:5f:6e:ac:95:a0:93:
        06:19:3e:4c:e2:cf:37:e1:c4:62:ae:d1:ff:63:4c:88:a2:8f:
        b4:49:a6:ff:4c:e2:ea:f4:49:99:a6:b3:f0:df:16:7c:40:97:
        2b:66:cc:c6:3d:2d:e1:d0:6b:71:d4:53:54:13:f4:15:30:cb:
        9a:b5
-----BEGIN CERTIFICATE-----
MIIDETCCAnqgAwIBAgICAKQwDQYJKoZIhvcNAQEEBQAwfTELMAkGA1UEBhMCTVkx
DTALBgNVBAgTBE1BSEExDTALBgNVBAcTBFBVTkUxDTALBgNVBAoTBFBTUEwxETAP
BgNVBAsTCE9CTElYLVFBMQ8wDQYDVQQDEwZwczI0MzYxHTAbBgkqhkiG9w0BCQEW
DnNhZ2FyQHBzcGwuY29tMB4XDTEwMDkxNTA2NTcwNVoXDTExMDkxNTA2NTcwNVow
gbUxCzAJBgNVBAYTAlVTMRMwEQYDVQQIEwpTb21lLVN0YXRlMRYwFAYDVQQHEw1M
b2NhbGl0eSBOYW1lMSIwIAYDVQQKExlTb21lLU9yZ2FuaXphdGlvbiBQdHkgTHRk
MRMwEQYDVQQLEwpwcm9kdWN0aW9uMSAwHgYDVQQDExdob3N0TmFtZS5kb21haW5O
YW1lLmNvbTEeMBwGCSqGSIb3DQEJARYPbWFpbEBkb21haW4uY29tMIGfMA0GCSqG
SIb3DQEBAQUAA4GNADCBiQKBgQDludqh1Be7ZyDnohFv31Ei9JUGtKqYVMXB51DK
cV9IWQWTwPy8RHNE3j9F5a+EpPvHgThTh2bqyhVp3LT9zQzalRFsO2VVCvajCd4R
ClvaXKByReaDn5yeAOLqmSWzWdT0jOtauKMp+/gvHB1VHeCtDKgDY6oxj4a2s2eu
b6MpLwIDAQABo2cwZTAfBgNVHSMEGDAWgBTb+GoVCoJTH8LrzNBug3JX5EXydDA0
BgNVHSUELTArBggrBgEFBQcDAQYIKwYBBQUHAwIGCisGAQQBgjcKAwMGCWCGSAGG
+EIEATAMBgNVHRMBAf8EAjAAMA0GCSqGSIb3DQEBBAUAA4GBABmlTbQb5Ml1zjyH
a6o+S3bPwHvXvhVMLOlmcH0lPrAXgJC4G2DrbqnOVhj7glWsZxqaz6oujpqHK5yN
TVmoY+dW5l9urJWgkwYZPkzizzfhxGKu0f9jTIiij7RJpv9M4ur0SZmms/DfFnxA
lytmzMY9LeHQa3HUU1QT9BUwy5q1
-----END CERTIFICATE-----
