Certificate:
    Data:
        Version: 3 (0x2)
        Serial Number: 165 (0xa5)
        Signature Algorithm: md5WithRSAEncryption
        Issuer: C=MY, ST=MAHA, L=PUNE, O=PSPL, OU=OBLIX-QA, CN=ps2436/emailAddress=sagar@pspl.com
        Validity
            Not Before: Sep 30 11:02:22 2010 GMT
            Not After : Sep 30 11:02:22 2011 GMT
        Subject: C=US, ST=Some-State, L=Locality Name, O=Some-Organization Pty Ltd, OU=production, CN=hostName.domainName.com/emailAddress=mail@domain.com
        Subject Public Key Info:
            Public Key Algorithm: rsaEncryption
            RSA Public Key: (1024 bit)
                Modulus (1024 bit):
                    00:ce:23:ba:2e:58:a5:59:0a:29:c4:90:01:0c:ce:
                    4b:0c:9f:3d:11:27:11:4b:cb:11:59:0f:a7:d8:4a:
                    26:ef:24:cd:f1:33:09:80:81:52:fc:07:1d:99:d5:
                    49:f5:24:c9:96:cf:43:fb:36:00:ff:e2:a9:d3:e1:
                    b0:70:46:04:fe:f2:c1:0a:a8:59:30:bb:ee:a2:a9:
                    5e:7a:77:d5:7f:8f:e6:72:e2:8c:4b:8f:f9:2e:cb:
                    56:16:66:37:18:29:77:07:87:41:4f:f6:4c:49:2d:
                    24:2b:26:3b:c7:5c:10:f7:66:6d:58:df:6c:2d:02:
                    98:46:6a:12:e1:19:f9:cf:17
                Exponent: 65537 (0x10001)
        X509v3 extensions:
            X509v3 Authority Key Identifier: 
            keyid:DB:F8:6A:15:0A:82:53:1F:C2:EB:CC:D0:6E:83:72:57:E4:45:F2:74

            X509v3 Extended Key Usage: 
            TLS Web Server Authentication, TLS Web Client Authentication, Microsoft Server Gated Crypto, Netscape Server Gated Crypto
            X509v3 Basic Constraints: critical
            CA:FALSE
    Signature Algorithm: md5WithRSAEncryption
        bd:c8:1d:a0:f3:89:d1:c0:64:87:16:f4:db:9e:d7:fc:a5:56:
        84:e8:3d:03:76:2f:98:da:68:3d:f5:d1:96:49:19:d7:2c:b3:
        b1:21:99:81:15:95:1a:46:04:d1:ba:10:e1:ca:e7:dd:9e:7e:
        a9:6a:06:d7:53:fc:0c:6d:f1:98:62:0e:10:05:b8:b7:e6:f7:
        92:96:34:8a:c9:95:6a:f7:2a:4c:12:aa:33:c0:72:fc:41:08:
        a1:4b:b4:fe:3c:c9:f7:b7:21:36:0c:05:6e:d8:ed:52:ee:02:
        e6:a2:03:cd:be:be:ca:a8:ed:5f:cd:40:56:5f:4c:55:16:11:
        f6:fe
-----BEGIN CERTIFICATE-----
MIIDETCCAnqgAwIBAgICAKUwDQYJKoZIhvcNAQEEBQAwfTELMAkGA1UEBhMCTVkx
DTALBgNVBAgTBE1BSEExDTALBgNVBAcTBFBVTkUxDTALBgNVBAoTBFBTUEwxETAP
BgNVBAsTCE9CTElYLVFBMQ8wDQYDVQQDEwZwczI0MzYxHTAbBgkqhkiG9w0BCQEW
DnNhZ2FyQHBzcGwuY29tMB4XDTEwMDkzMDExMDIyMloXDTExMDkzMDExMDIyMlow
gbUxCzAJBgNVBAYTAlVTMRMwEQYDVQQIEwpTb21lLVN0YXRlMRYwFAYDVQQHEw1M
b2NhbGl0eSBOYW1lMSIwIAYDVQQKExlTb21lLU9yZ2FuaXphdGlvbiBQdHkgTHRk
MRMwEQYDVQQLEwpwcm9kdWN0aW9uMSAwHgYDVQQDExdob3N0TmFtZS5kb21haW5O
YW1lLmNvbTEeMBwGCSqGSIb3DQEJARYPbWFpbEBkb21haW4uY29tMIGfMA0GCSqG
SIb3DQEBAQUAA4GNADCBiQKBgQDOI7ouWKVZCinEkAEMzksMnz0RJxFLyxFZD6fY
SibvJM3xMwmAgVL8Bx2Z1Un1JMmWz0P7NgD/4qnT4bBwRgT+8sEKqFkwu+6iqV56
d9V/j+Zy4oxLj/kuy1YWZjcYKXcHh0FP9kxJLSQrJjvHXBD3Zm1Y32wtAphGahLh
GfnPFwIDAQABo2cwZTAfBgNVHSMEGDAWgBTb+GoVCoJTH8LrzNBug3JX5EXydDA0
BgNVHSUELTArBggrBgEFBQcDAQYIKwYBBQUHAwIGCisGAQQBgjcKAwMGCWCGSAGG
+EIEATAMBgNVHRMBAf8EAjAAMA0GCSqGSIb3DQEBBAUAA4GBAL3IHaDzidHAZIcW
9Nue1/ylVoToPQN2L5jaaD310ZZJGdcss7EhmYEVlRpGBNG6EOHK592efqlqBtdT
/Axt8ZhiDhAFuLfm95KWNIrJlWr3KkwSqjPAcvxBCKFLtP48yfe3ITYMBW7Y7VLu
AuaiA82+vsqo7V/NQFZfTFUWEfb+
-----END CERTIFICATE-----
