Certificate:
    Data:
        Version: 3 (0x2)
        Serial Number: 166 (0xa6)
        Signature Algorithm: md5WithRSAEncryption
        Issuer: C=MY, ST=MAHA, L=PUNE, O=PSPL, OU=OBLIX-QA, CN=ps2436/emailAddress=sagar@pspl.com
        Validity
            Not Before: Oct  1 11:17:11 2010 GMT
            Not After : Oct  1 11:17:11 2011 GMT
        Subject: C=US, ST=NewYork, L=SantaClara, O=Oracle, OU=Oblix, CN=adc2101066.us.oracle.com/emailAddress=r_autade@rediffmail.com
        Subject Public Key Info:
            Public Key Algorithm: rsaEncryption
            RSA Public Key: (1024 bit)
                Modulus (1024 bit):
                    00:ba:29:9c:0a:3c:31:95:47:2e:00:32:37:30:5a:
                    92:21:ec:65:7a:13:07:6d:e5:05:e0:61:16:43:ff:
                    2e:d2:cb:73:89:9f:9b:bb:53:cb:ae:d3:91:6e:1e:
                    70:4c:5f:33:8e:cb:cd:99:22:01:b4:26:88:16:03:
                    da:64:92:b9:8f:75:ef:11:2e:5e:ab:59:4d:50:b9:
                    34:74:c6:8d:ae:e2:28:52:ac:fc:ca:5b:17:c7:ab:
                    69:2c:fa:d6:bd:d3:45:08:a6:73:b4:cb:79:fc:82:
                    b7:7b:a3:bd:5e:95:0a:ad:8a:ea:ab:5f:69:4f:b0:
                    05:ae:b9:59:59:a1:45:d3:b1
                Exponent: 65537 (0x10001)
        X509v3 extensions:
            X509v3 Authority Key Identifier: 
            keyid:DB:F8:6A:15:0A:82:53:1F:C2:EB:CC:D0:6E:83:72:57:E4:45:F2:74

            X509v3 Extended Key Usage: 
            TLS Web Server Authentication, TLS Web Client Authentication, Microsoft Server Gated Crypto, Netscape Server Gated Crypto
            X509v3 Basic Constraints: critical
            CA:FALSE
    Signature Algorithm: md5WithRSAEncryption
        7a:98:7e:de:16:8e:96:f5:f7:be:12:fd:a6:17:21:97:f0:52:
        59:d7:0e:4e:c1:1c:2a:2a:c8:b9:55:3c:19:d6:09:5a:dd:2a:
        96:4f:53:9f:fb:e2:b5:36:79:f2:d3:04:9b:47:36:33:f4:bd:
        24:fb:1d:a3:9b:91:a8:58:ea:d6:8b:16:d8:57:28:a4:57:71:
        a5:4c:69:42:b2:a5:38:0f:a4:3c:86:55:85:7a:97:0e:be:ae:
        0c:0f:5b:c1:d4:c1:2b:46:39:79:42:19:8f:22:b2:a9:0d:98:
        cf:c8:1e:c4:55:ce:d1:16:b6:d1:cf:ac:23:36:a4:e7:a2:77:
        41:b1
-----BEGIN CERTIFICATE-----
MIIC/DCCAmWgAwIBAgICAKYwDQYJKoZIhvcNAQEEBQAwfTELMAkGA1UEBhMCTVkx
DTALBgNVBAgTBE1BSEExDTALBgNVBAcTBFBVTkUxDTALBgNVBAoTBFBTUEwxETAP
BgNVBAsTCE9CTElYLVFBMQ8wDQYDVQQDEwZwczI0MzYxHTAbBgkqhkiG9w0BCQEW
DnNhZ2FyQHBzcGwuY29tMB4XDTEwMTAwMTExMTcxMVoXDTExMTAwMTExMTcxMVow
gaAxCzAJBgNVBAYTAlVTMRAwDgYDVQQIEwdOZXdZb3JrMRMwEQYDVQQHEwpTYW50
YUNsYXJhMQ8wDQYDVQQKEwZPcmFjbGUxDjAMBgNVBAsTBU9ibGl4MSEwHwYDVQQD
ExhhZGMyMTAxMDY2LnVzLm9yYWNsZS5jb20xJjAkBgkqhkiG9w0BCQEWF3JfYXV0
YWRlQHJlZGlmZm1haWwuY29tMIGfMA0GCSqGSIb3DQEBAQUAA4GNADCBiQKBgQC6
KZwKPDGVRy4AMjcwWpIh7GV6Ewdt5QXgYRZD/y7Sy3OJn5u7U8uu05FuHnBMXzOO
y82ZIgG0JogWA9pkkrmPde8RLl6rWU1QuTR0xo2u4ihSrPzKWxfHq2ks+ta900UI
pnO0y3n8grd7o71elQqtiuqrX2lPsAWuuVlZoUXTsQIDAQABo2cwZTAfBgNVHSME
GDAWgBTb+GoVCoJTH8LrzNBug3JX5EXydDA0BgNVHSUELTArBggrBgEFBQcDAQYI
KwYBBQUHAwIGCisGAQQBgjcKAwMGCWCGSAGG+EIEATAMBgNVHRMBAf8EAjAAMA0G
CSqGSIb3DQEBBAUAA4GBAHqYft4Wjpb1974S/aYXIZfwUlnXDk7BHCoqyLlVPBnW
CVrdKpZPU5/74rU2efLTBJtHNjP0vST7HaObkahY6taLFthXKKRXcaVMaUKypTgP
pDyGVYV6lw6+rgwPW8HUwStGOXlCGY8isqkNmM/IHsRVztEWttHPrCM2pOeid0Gx
-----END CERTIFICATE-----
