Certificate:
    Data:
        Version: 3 (0x2)
        Serial Number: 167 (0xa7)
        Signature Algorithm: md5WithRSAEncryption
        Issuer: C=MY, ST=MAHA, L=PUNE, O=PSPL, OU=OBLIX-QA, CN=ps2436/emailAddress=sagar@pspl.com
        Validity
            Not Before: Oct  4 11:52:51 2010 GMT
            Not After : Oct  4 11:52:51 2011 GMT
        Subject: C=IN, ST=MAH, L=PUNE, O=PSL, OU=OBLIX, CN=dadvmc0404.us.oracle.com/emailAddress=r_autade@gmail.com
        Subject Public Key Info:
            Public Key Algorithm: rsaEncryption
            RSA Public Key: (1024 bit)
                Modulus (1024 bit):
                    00:aa:4f:b2:fb:e4:31:c8:a4:21:d7:0d:ff:f8:b0:
                    eb:65:e9:46:58:a5:83:79:5a:7c:30:63:23:b0:70:
                    aa:7e:72:47:fe:3d:bf:ed:f4:1e:c8:c6:58:6b:e8:
                    a6:bf:99:a0:a9:76:6c:a2:89:39:0d:c1:61:c0:9b:
                    a2:8d:04:c1:04:d7:17:d0:8d:fc:d4:d8:d7:45:3d:
                    e0:5d:12:01:60:8a:91:3f:3b:0e:03:8d:3d:0b:bb:
                    bd:81:ae:8d:df:93:ef:98:e6:61:e9:13:dc:a5:80:
                    36:b0:ed:91:65:5a:04:4a:e9:79:c2:d0:d8:8f:c9:
                    b4:e4:b6:26:93:bd:dd:a0:d7
                Exponent: 65537 (0x10001)
        X509v3 extensions:
            X509v3 Authority Key Identifier: 
            keyid:DB:F8:6A:15:0A:82:53:1F:C2:EB:CC:D0:6E:83:72:57:E4:45:F2:74

            X509v3 Extended Key Usage: 
            TLS Web Server Authentication, TLS Web Client Authentication, Microsoft Server Gated Crypto, Netscape Server Gated Crypto
            X509v3 Basic Constraints: critical
            CA:FALSE
    Signature Algorithm: md5WithRSAEncryption
        70:95:94:16:d0:49:86:37:f4:ff:d8:d1:c4:45:3f:c0:e1:fa:
        72:b2:32:21:e4:67:39:b0:ba:27:4e:b1:d7:cc:04:ab:5e:84:
        40:42:a7:68:66:88:8e:5d:8e:82:6f:79:37:a6:da:87:8f:3b:
        e3:11:28:0a:ff:b1:27:6f:14:54:bf:92:3d:72:4a:63:68:b1:
        dd:9b:f3:d2:88:65:c8:db:ac:1d:3a:79:63:1b:41:b6:e4:38:
        e0:b4:88:95:0b:39:95:a6:49:e5:cc:12:bd:32:21:19:dc:ae:
        b7:72:5f:12:e5:c0:65:65:9b:a6:7e:52:57:a1:52:15:f0:a3:
        87:a4
-----BEGIN CERTIFICATE-----
MIIC6jCCAlOgAwIBAgICAKcwDQYJKoZIhvcNAQEEBQAwfTELMAkGA1UEBhMCTVkx
DTALBgNVBAgTBE1BSEExDTALBgNVBAcTBFBVTkUxDTALBgNVBAoTBFBTUEwxETAP
BgNVBAsTCE9CTElYLVFBMQ8wDQYDVQQDEwZwczI0MzYxHTAbBgkqhkiG9w0BCQEW
DnNhZ2FyQHBzcGwuY29tMB4XDTEwMTAwNDExNTI1MVoXDTExMTAwNDExNTI1MVow
gY4xCzAJBgNVBAYTAklOMQwwCgYDVQQIEwNNQUgxDTALBgNVBAcTBFBVTkUxDDAK
BgNVBAoTA1BTTDEOMAwGA1UECxMFT0JMSVgxITAfBgNVBAMTGGRhZHZtYzA0MDQu
dXMub3JhY2xlLmNvbTEhMB8GCSqGSIb3DQEJARYScl9hdXRhZGVAZ21haWwuY29t
MIGfMA0GCSqGSIb3DQEBAQUAA4GNADCBiQKBgQCqT7L75DHIpCHXDf/4sOtl6UZY
pYN5WnwwYyOwcKp+ckf+Pb/t9B7Ixlhr6Ka/maCpdmyiiTkNwWHAm6KNBMEE1xfQ
jfzU2NdFPeBdEgFgipE/Ow4DjT0Lu72Bro3fk++Y5mHpE9ylgDaw7ZFlWgRK6XnC
0NiPybTktiaTvd2g1wIDAQABo2cwZTAfBgNVHSMEGDAWgBTb+GoVCoJTH8LrzNBu
g3JX5EXydDA0BgNVHSUELTArBggrBgEFBQcDAQYIKwYBBQUHAwIGCisGAQQBgjcK
AwMGCWCGSAGG+EIEATAMBgNVHRMBAf8EAjAAMA0GCSqGSIb3DQEBBAUAA4GBAHCV
lBbQSYY39P/Y0cRFP8Dh+nKyMiHkZzmwuidOsdfMBKtehEBCp2hmiI5djoJveTem
2oePO+MRKAr/sSdvFFS/kj1ySmNosd2b89KIZcjbrB06eWMbQbbkOOC0iJULOZWm
SeXMEr0yIRncrrdyXxLlwGVlm6Z+UlehUhXwo4ek
-----END CERTIFICATE-----
