Certificate:
    Data:
        Version: 3 (0x2)
        Serial Number: 168 (0xa8)
        Signature Algorithm: md5WithRSAEncryption
        Issuer: C=MY, ST=MAHA, L=PUNE, O=PSPL, OU=OBLIX-QA, CN=ps2436/emailAddress=sagar@pspl.com
        Validity
            Not Before: Nov  8 13:22:04 2010 GMT
            Not After : Nov  8 13:22:04 2011 GMT
        Subject: C=US, ST=MAHA, L=PUNE, O=Oracle, OU=OBLIX, CN=Stevef-v2.blue.com/emailAddress=test@oracle.com
        Subject Public Key Info:
            Public Key Algorithm: rsaEncryption
            RSA Public Key: (1024 bit)
                Modulus (1024 bit):
                    00:c0:17:d0:a6:d5:f3:13:66:55:50:be:55:88:f8:
                    c2:7e:5d:3b:d3:bd:c2:40:04:45:3d:09:39:2b:9d:
                    ed:2b:d2:17:89:b7:b9:7c:5d:07:af:80:6d:4c:a3:
                    64:f9:86:7e:77:17:20:93:27:79:d2:e7:14:bc:af:
                    02:8d:a6:d2:7e:90:2f:36:36:a5:71:35:a5:ce:9a:
                    53:fa:74:8a:f5:4b:73:e4:dc:e0:94:ae:ab:77:2c:
                    8b:14:d0:5d:05:73:57:29:10:d9:27:0e:af:1d:dc:
                    15:04:a1:ad:56:ef:11:99:78:92:a1:4e:9d:78:28:
                    4a:1e:eb:7a:fe:e2:5f:66:57
                Exponent: 65537 (0x10001)
        X509v3 extensions:
            X509v3 Authority Key Identifier: 
            keyid:DB:F8:6A:15:0A:82:53:1F:C2:EB:CC:D0:6E:83:72:57:E4:45:F2:74

            X509v3 Extended Key Usage: 
            TLS Web Server Authentication, TLS Web Client Authentication, Microsoft Server Gated Crypto, Netscape Server Gated Crypto
            X509v3 Basic Constraints: critical
            CA:FALSE
    Signature Algorithm: md5WithRSAEncryption
        1e:dc:08:ff:5f:91:b6:b7:bc:53:27:5d:a9:b5:05:92:18:7e:
        38:92:e5:ad:d5:da:83:4c:77:89:fa:6a:de:a7:c5:85:96:c2:
        eb:37:6b:fb:23:c9:24:8f:dc:5e:d6:2f:62:54:0e:52:a5:05:
        0c:ba:32:9b:33:2a:2d:21:22:72:1b:da:e9:0e:94:7a:1e:d0:
        e3:96:0a:c3:65:3d:4f:5f:ef:e7:e8:02:91:1b:60:15:d1:0e:
        a4:3c:78:1c:26:7c:20:61:98:fd:68:fd:41:b1:15:13:16:59:
        80:f3:ef:8c:69:84:0d:40:78:4d:34:be:24:b6:31:71:96:8c:
        f9:17
-----BEGIN CERTIFICATE-----
MIIC5TCCAk6gAwIBAgICAKgwDQYJKoZIhvcNAQEEBQAwfTELMAkGA1UEBhMCTVkx
DTALBgNVBAgTBE1BSEExDTALBgNVBAcTBFBVTkUxDTALBgNVBAoTBFBTUEwxETAP
BgNVBAsTCE9CTElYLVFBMQ8wDQYDVQQDEwZwczI0MzYxHTAbBgkqhkiG9w0BCQEW
DnNhZ2FyQHBzcGwuY29tMB4XDTEwMTEwODEzMjIwNFoXDTExMTEwODEzMjIwNFow
gYkxCzAJBgNVBAYTAlVTMQ0wCwYDVQQIEwRNQUhBMQ0wCwYDVQQHEwRQVU5FMQ8w
DQYDVQQKEwZPcmFjbGUxDjAMBgNVBAsTBU9CTElYMRswGQYDVQQDExJTdGV2ZWYt
djIuYmx1ZS5jb20xHjAcBgkqhkiG9w0BCQEWD3Rlc3RAb3JhY2xlLmNvbTCBnzAN
BgkqhkiG9w0BAQEFAAOBjQAwgYkCgYEAwBfQptXzE2ZVUL5ViPjCfl07073CQARF
PQk5K53tK9IXibe5fF0Hr4BtTKNk+YZ+dxcgkyd50ucUvK8CjabSfpAvNjalcTWl
zppT+nSK9Utz5NzglK6rdyyLFNBdBXNXKRDZJw6vHdwVBKGtVu8RmXiSoU6deChK
Hut6/uJfZlcCAwEAAaNnMGUwHwYDVR0jBBgwFoAU2/hqFQqCUx/C68zQboNyV+RF
8nQwNAYDVR0lBC0wKwYIKwYBBQUHAwEGCCsGAQUFBwMCBgorBgEEAYI3CgMDBglg
hkgBhvhCBAEwDAYDVR0TAQH/BAIwADANBgkqhkiG9w0BAQQFAAOBgQAe3Aj/X5G2
t7xTJ12ptQWSGH44kuWt1dqDTHeJ+mrep8WFlsLrN2v7I8kkj9xe1i9iVA5SpQUM
ujKbMyotISJyG9rpDpR6HtDjlgrDZT1PX+/n6AKRG2AV0Q6kPHgcJnwgYZj9aP1B
sRUTFlmA8++MaYQNQHhNNL4ktjFxloz5Fw==
-----END CERTIFICATE-----
