Certificate:
    Data:
        Version: 3 (0x2)
        Serial Number: 169 (0xa9)
        Signature Algorithm: md5WithRSAEncryption
        Issuer: C=MY, ST=MAHA, L=PUNE, O=PSPL, OU=OBLIX-QA, CN=ps2436/emailAddress=sagar@pspl.com
        Validity
            Not Before: Nov 15 13:00:48 2010 GMT
            Not After : Nov 15 13:00:48 2011 GMT
        Subject: C=IN, ST=MAHA, L=PUNE, O=PSL, OU=ORACLE, CN=sta00170.us.oracle.com/emailAddress=test@oracle.com
        Subject Public Key Info:
            Public Key Algorithm: rsaEncryption
            RSA Public Key: (1024 bit)
                Modulus (1024 bit):
                    00:9e:34:ca:23:bb:c1:dc:f5:85:15:f7:ee:db:30:
                    2b:f9:32:ff:88:50:3b:a9:32:b8:ac:6b:f8:26:56:
                    80:50:25:ff:90:5a:8e:2b:6a:d2:0b:b1:38:28:31:
                    7b:26:2d:a6:f6:84:79:32:39:ee:57:69:25:a4:b2:
                    f2:5b:6a:61:74:a2:58:f0:3a:fc:46:2e:93:eb:6a:
                    9e:e3:8c:fa:d9:9e:41:b4:35:d8:aa:66:04:31:b5:
                    7e:49:f9:d3:5b:ef:10:b3:f9:48:41:3c:83:42:db:
                    63:dc:be:82:19:65:0c:64:1c:49:64:7b:75:66:55:
                    e4:30:dd:09:61:21:a5:41:a9
                Exponent: 65537 (0x10001)
        X509v3 extensions:
            X509v3 Authority Key Identifier: 
            keyid:DB:F8:6A:15:0A:82:53:1F:C2:EB:CC:D0:6E:83:72:57:E4:45:F2:74

            X509v3 Extended Key Usage: 
            TLS Web Server Authentication, TLS Web Client Authentication, Microsoft Server Gated Crypto, Netscape Server Gated Crypto
            X509v3 Basic Constraints: critical
            CA:FALSE
    Signature Algorithm: md5WithRSAEncryption
        2a:c8:ba:93:1c:2d:cd:ee:15:8e:e7:2a:80:85:6f:12:3f:92:
        75:dd:05:06:52:1d:6d:49:52:1a:d5:67:86:89:64:5a:8a:84:
        5d:77:f1:ca:15:c4:fa:4d:b4:c4:d2:61:44:f6:ea:28:73:e5:
        4c:ac:19:5f:0b:f1:11:b1:5a:e2:ae:eb:0e:6b:50:e4:24:48:
        61:06:7c:02:e1:9a:88:e2:ee:93:71:ff:90:61:3e:9a:6a:62:
        8e:e0:42:f1:29:ec:8a:8d:61:11:e2:e0:55:ef:cf:98:59:7f:
        a4:ce:2f:c9:ab:05:33:61:dd:64:19:44:76:a7:3d:6f:26:00:
        8a:32
-----BEGIN CERTIFICATE-----
MIIC5zCCAlCgAwIBAgICAKkwDQYJKoZIhvcNAQEEBQAwfTELMAkGA1UEBhMCTVkx
DTALBgNVBAgTBE1BSEExDTALBgNVBAcTBFBVTkUxDTALBgNVBAoTBFBTUEwxETAP
BgNVBAsTCE9CTElYLVFBMQ8wDQYDVQQDEwZwczI0MzYxHTAbBgkqhkiG9w0BCQEW
DnNhZ2FyQHBzcGwuY29tMB4XDTEwMTExNTEzMDA0OFoXDTExMTExNTEzMDA0OFow
gYsxCzAJBgNVBAYTAklOMQ0wCwYDVQQIEwRNQUhBMQ0wCwYDVQQHEwRQVU5FMQww
CgYDVQQKEwNQU0wxDzANBgNVBAsTBk9SQUNMRTEfMB0GA1UEAxMWc3RhMDAxNzAu
dXMub3JhY2xlLmNvbTEeMBwGCSqGSIb3DQEJARYPdGVzdEBvcmFjbGUuY29tMIGf
MA0GCSqGSIb3DQEBAQUAA4GNADCBiQKBgQCeNMoju8Hc9YUV9+7bMCv5Mv+IUDup
Mrisa/gmVoBQJf+QWo4ratILsTgoMXsmLab2hHkyOe5XaSWksvJbamF0oljwOvxG
LpPrap7jjPrZnkG0NdiqZgQxtX5J+dNb7xCz+UhBPINC22PcvoIZZQxkHElke3Vm
VeQw3QlhIaVBqQIDAQABo2cwZTAfBgNVHSMEGDAWgBTb+GoVCoJTH8LrzNBug3JX
5EXydDA0BgNVHSUELTArBggrBgEFBQcDAQYIKwYBBQUHAwIGCisGAQQBgjcKAwMG
CWCGSAGG+EIEATAMBgNVHRMBAf8EAjAAMA0GCSqGSIb3DQEBBAUAA4GBACrIupMc
Lc3uFY7nKoCFbxI/knXdBQZSHW1JUhrVZ4aJZFqKhF138coVxPpNtMTSYUT26ihz
5UysGV8L8RGxWuKu6w5rUOQkSGEGfALhmoji7pNx/5BhPppqYo7gQvEp7IqNYRHi
4FXvz5hZf6TOL8mrBTNh3WQZRHanPW8mAIoy
-----END CERTIFICATE-----
