Certificate:
    Data:
        Version: 3 (0x2)
        Serial Number: 170 (0xaa)
        Signature Algorithm: md5WithRSAEncryption
        Issuer: C=MY, ST=MAHA, L=PUNE, O=PSPL, OU=OBLIX-QA, CN=ps2436/emailAddress=sagar@pspl.com
        Validity
            Not Before: Nov 30 09:08:02 2010 GMT
            Not After : Nov 30 09:08:02 2011 GMT
        Subject: CN=orcladmin/emailAddress=orcladmin
        Subject Public Key Info:
            Public Key Algorithm: rsaEncryption
            RSA Public Key: (1024 bit)
                Modulus (1024 bit):
                    00:a2:10:87:4a:c2:37:e1:e2:a7:c8:67:1b:90:90:
                    16:7d:74:02:3f:e1:aa:39:5d:a0:a8:4d:27:08:de:
                    ec:a1:a4:7e:04:d0:9a:9a:b9:22:a2:d7:5d:83:d2:
                    73:2b:e1:43:ef:73:e0:cc:50:f4:d0:0a:c5:83:70:
                    c6:32:b3:2d:a6:f8:6d:cf:82:55:26:ca:3c:e9:7d:
                    95:1b:c2:57:c4:1f:2e:ae:73:32:ef:aa:04:9d:17:
                    2e:c4:14:74:8c:30:f2:56:94:66:1f:48:92:cb:34:
                    6c:80:fe:2b:d1:7e:bf:8b:e0:fc:6c:f2:cf:66:2f:
                    50:45:77:a2:19:52:a4:97:f5
                Exponent: 65537 (0x10001)
        X509v3 extensions:
            X509v3 Subject Alternative Name: 
            email:orcladmin
            X509v3 Basic Constraints: critical
            CA:FALSE
            X509v3 Authority Key Identifier: 
            keyid:DB:F8:6A:15:0A:82:53:1F:C2:EB:CC:D0:6E:83:72:57:E4:45:F2:74

            X509v3 Extended Key Usage: 
            TLS Web Client Authentication, E-mail Protection
    Signature Algorithm: md5WithRSAEncryption
        6e:58:dd:7f:b8:d1:62:f0:20:92:03:5e:e0:95:33:fc:25:72:
        1c:da:03:94:4d:bc:f5:f0:6a:58:64:db:b7:95:f0:a7:15:0a:
        4d:2c:50:34:49:67:45:ad:68:82:9b:88:03:f7:a6:12:74:3c:
        c7:f9:0d:2e:23:da:7e:d2:60:8c:11:ae:34:e8:d6:a7:31:e0:
        9f:f2:9d:06:38:c2:3f:4e:99:ff:a2:a5:50:f4:eb:90:27:cf:
        26:4e:e8:a2:bc:c6:0a:19:6e:b8:a2:ae:cc:55:87:20:43:a7:
        45:56:0c:74:0d:54:51:9d:aa:e5:f5:34:34:d0:db:23:72:8b:
        d8:77
-----BEGIN CERTIFICATE-----
MIICiDCCAfGgAwIBAgICAKowDQYJKoZIhvcNAQEEBQAwfTELMAkGA1UEBhMCTVkx
DTALBgNVBAgTBE1BSEExDTALBgNVBAcTBFBVTkUxDTALBgNVBAoTBFBTUEwxETAP
BgNVBAsTCE9CTElYLVFBMQ8wDQYDVQQDEwZwczI0MzYxHTAbBgkqhkiG9w0BCQEW
DnNhZ2FyQHBzcGwuY29tMB4XDTEwMTEzMDA5MDgwMloXDTExMTEzMDA5MDgwMlow
LjESMBAGA1UEAxMJb3JjbGFkbWluMRgwFgYJKoZIhvcNAQkBFglvcmNsYWRtaW4w
gZ8wDQYJKoZIhvcNAQEBBQADgY0AMIGJAoGBAKIQh0rCN+Hip8hnG5CQFn10Aj/h
qjldoKhNJwje7KGkfgTQmpq5IqLXXYPScyvhQ+9z4MxQ9NAKxYNwxjKzLab4bc+C
VSbKPOl9lRvCV8QfLq5zMu+qBJ0XLsQUdIww8laUZh9Ikss0bID+K9F+v4vg/Gzy
z2YvUEV3ohlSpJf1AgMBAAGjZjBkMBQGA1UdEQQNMAuBCW9yY2xhZG1pbjAMBgNV
HRMBAf8EAjAAMB8GA1UdIwQYMBaAFNv4ahUKglMfwuvM0G6DclfkRfJ0MB0GA1Ud
JQQWMBQGCCsGAQUFBwMCBggrBgEFBQcDBDANBgkqhkiG9w0BAQQFAAOBgQBuWN1/
uNFi8CCSA17glTP8JXIc2gOUTbz18GpYZNu3lfCnFQpNLFA0SWdFrWiCm4gD96YS
dDzH+Q0uI9p+0mCMEa406NanMeCf8p0GOMI/Tpn/oqVQ9OuQJ88mTuiivMYKGW64
oq7MVYcgQ6dFVgx0DVRRnarl9TQ00NsjcovYdw==
-----END CERTIFICATE-----
