Certificate:
    Data:
        Version: 3 (0x2)
        Serial Number: 171 (0xab)
        Signature Algorithm: md5WithRSAEncryption
        Issuer: C=MY, ST=MAHA, L=PUNE, O=PSPL, OU=OBLIX-QA, CN=ps2436/emailAddress=sagar@pspl.com
        Validity
            Not Before: Nov 30 09:12:43 2010 GMT
            Not After : Nov 30 09:12:43 2011 GMT
        Subject: CN=newuser1/emailAddress=newuser1@oracle.com
        Subject Public Key Info:
            Public Key Algorithm: rsaEncryption
            RSA Public Key: (1024 bit)
                Modulus (1024 bit):
                    00:bb:fd:6e:a7:0e:a2:f7:23:d3:c9:f1:45:42:46:
                    21:cc:2f:c8:ca:e4:93:2a:28:b6:9f:1e:72:22:08:
                    bf:9e:71:49:67:78:4a:0b:7a:61:fb:df:d4:b6:55:
                    ce:da:0a:9a:5f:60:89:bd:51:71:1d:96:63:1c:75:
                    b5:cd:b5:ad:6d:83:7b:56:18:c6:69:13:ea:d0:c3:
                    07:a9:12:03:28:ca:13:f9:bb:c5:7c:47:88:29:4f:
                    ca:9a:91:16:95:f0:b6:da:8c:12:ee:93:01:01:76:
                    34:72:73:74:73:7e:0b:27:b9:77:1b:0c:92:88:fa:
                    01:6f:15:37:2c:0f:e7:5c:4b
                Exponent: 65537 (0x10001)
        X509v3 extensions:
            X509v3 Subject Alternative Name: 
            email:newuser1@oracle.com
            X509v3 Basic Constraints: critical
            CA:FALSE
            X509v3 Authority Key Identifier: 
            keyid:DB:F8:6A:15:0A:82:53:1F:C2:EB:CC:D0:6E:83:72:57:E4:45:F2:74

            X509v3 Extended Key Usage: 
            TLS Web Client Authentication, E-mail Protection
    Signature Algorithm: md5WithRSAEncryption
        3b:73:96:11:2c:3f:c7:c2:c6:5c:17:00:ff:b2:9d:78:8b:31:
        16:40:06:73:6a:6f:a4:40:9e:64:5b:8d:f1:c8:9f:8a:98:42:
        43:df:1e:f9:bd:f1:34:70:7f:35:62:f7:cf:2b:85:04:15:cd:
        26:be:84:40:b8:b5:73:b5:2a:94:40:c4:a7:eb:2e:2f:65:81:
        28:49:dd:d2:da:91:41:1f:72:0c:9f:f8:31:8d:53:6f:81:68:
        af:96:f5:50:eb:2e:00:d7:9a:72:8e:43:6b:f1:8e:61:f2:a1:
        ca:0a:ba:e2:2e:46:97:f9:ab:b9:45:7d:1e:a2:18:47:00:15:
        15:6d
-----BEGIN CERTIFICATE-----
MIICmzCCAgSgAwIBAgICAKswDQYJKoZIhvcNAQEEBQAwfTELMAkGA1UEBhMCTVkx
DTALBgNVBAgTBE1BSEExDTALBgNVBAcTBFBVTkUxDTALBgNVBAoTBFBTUEwxETAP
BgNVBAsTCE9CTElYLVFBMQ8wDQYDVQQDEwZwczI0MzYxHTAbBgkqhkiG9w0BCQEW
DnNhZ2FyQHBzcGwuY29tMB4XDTEwMTEzMDA5MTI0M1oXDTExMTEzMDA5MTI0M1ow
NzERMA8GA1UEAxMIbmV3dXNlcjExIjAgBgkqhkiG9w0BCQEWE25ld3VzZXIxQG9y
YWNsZS5jb20wgZ8wDQYJKoZIhvcNAQEBBQADgY0AMIGJAoGBALv9bqcOovcj08nx
RUJGIcwvyMrkkyootp8eciIIv55xSWd4Sgt6Yfvf1LZVztoKml9gib1RcR2WYxx1
tc21rW2De1YYxmkT6tDDB6kSAyjKE/m7xXxHiClPypqRFpXwttqMEu6TAQF2NHJz
dHN+Cye5dxsMkoj6AW8VNywP51xLAgMBAAGjcDBuMB4GA1UdEQQXMBWBE25ld3Vz
ZXIxQG9yYWNsZS5jb20wDAYDVR0TAQH/BAIwADAfBgNVHSMEGDAWgBTb+GoVCoJT
H8LrzNBug3JX5EXydDAdBgNVHSUEFjAUBggrBgEFBQcDAgYIKwYBBQUHAwQwDQYJ
KoZIhvcNAQEEBQADgYEAO3OWESw/x8LGXBcA/7KdeIsxFkAGc2pvpECeZFuN8cif
iphCQ98e+b3xNHB/NWL3zyuFBBXNJr6EQLi1c7UqlEDEp+suL2WBKEnd0tqRQR9y
DJ/4MY1Tb4For5b1UOsuANeaco5Da/GOYfKhygq64i5Gl/mruUV9HqIYRwAVFW0=
-----END CERTIFICATE-----
