Certificate:
    Data:
        Version: 3 (0x2)
        Serial Number: 172 (0xac)
        Signature Algorithm: md5WithRSAEncryption
        Issuer: C=MY, ST=MAHA, L=PUNE, O=PSPL, OU=OBLIX-QA, CN=ps2436/emailAddress=sagar@pspl.com
        Validity
            Not Before: Nov 30 09:33:36 2010 GMT
            Not After : Nov 30 09:33:36 2011 GMT
        Subject: CN=orcladmin/emailAddress=orcladmin@oracle.com
        Subject Public Key Info:
            Public Key Algorithm: rsaEncryption
            RSA Public Key: (1024 bit)
                Modulus (1024 bit):
                    00:cb:30:b6:80:f7:50:33:d3:55:ca:b3:bc:3d:4d:
                    d9:1d:b8:62:36:2a:7f:e2:5e:c0:f7:7a:5b:82:ca:
                    a4:df:a3:24:61:de:1b:d7:3f:aa:f0:97:b1:fb:e7:
                    32:aa:f2:7f:c9:95:34:ac:3d:37:ef:d4:31:6a:be:
                    b2:ac:42:94:a9:12:ea:b8:b2:f8:ba:39:11:4e:1f:
                    f2:9e:ee:7c:10:e3:ea:86:68:b0:82:7c:e1:b6:f2:
                    df:cb:2e:fe:73:b2:2c:01:0b:9b:fd:3c:84:f0:c0:
                    a0:da:b2:ca:e5:c5:c8:19:d1:db:58:e4:04:ab:0f:
                    f9:24:a4:9d:5c:d2:2b:9b:71
                Exponent: 65537 (0x10001)
        X509v3 extensions:
            X509v3 Subject Alternative Name: 
            email:orcladmin@oracle.com
            X509v3 Basic Constraints: critical
            CA:FALSE
            X509v3 Authority Key Identifier: 
            keyid:DB:F8:6A:15:0A:82:53:1F:C2:EB:CC:D0:6E:83:72:57:E4:45:F2:74

            X509v3 Extended Key Usage: 
            TLS Web Client Authentication, E-mail Protection
    Signature Algorithm: md5WithRSAEncryption
        a8:79:62:96:1e:bd:5c:ea:b5:bc:b8:75:e3:8d:9d:42:72:2f:
        5c:fd:05:aa:31:af:3b:13:f0:f2:9b:c3:6a:c7:a8:20:87:56:
        bf:d9:2f:42:9a:80:9d:dc:92:e9:c9:e8:98:03:85:0b:61:1c:
        74:a8:d5:7e:e3:ef:2d:5b:e7:79:5c:28:a0:e6:a8:33:ab:90:
        0b:6a:54:7e:0b:0c:84:b3:b4:c2:a6:40:84:da:a7:99:75:96:
        d5:22:f1:90:c3:d6:7c:ed:e4:e3:76:87:67:b1:ae:9e:8d:17:
        55:4a:34:c5:5e:14:13:0d:ad:a9:3a:c2:4b:3d:b8:c3:39:4b:
        71:c8
-----BEGIN CERTIFICATE-----
MIICnjCCAgegAwIBAgICAKwwDQYJKoZIhvcNAQEEBQAwfTELMAkGA1UEBhMCTVkx
DTALBgNVBAgTBE1BSEExDTALBgNVBAcTBFBVTkUxDTALBgNVBAoTBFBTUEwxETAP
BgNVBAsTCE9CTElYLVFBMQ8wDQYDVQQDEwZwczI0MzYxHTAbBgkqhkiG9w0BCQEW
DnNhZ2FyQHBzcGwuY29tMB4XDTEwMTEzMDA5MzMzNloXDTExMTEzMDA5MzMzNlow
OTESMBAGA1UEAxMJb3JjbGFkbWluMSMwIQYJKoZIhvcNAQkBFhRvcmNsYWRtaW5A
b3JhY2xlLmNvbTCBnzANBgkqhkiG9w0BAQEFAAOBjQAwgYkCgYEAyzC2gPdQM9NV
yrO8PU3ZHbhiNip/4l7A93pbgsqk36MkYd4b1z+q8Jex++cyqvJ/yZU0rD0379Qx
ar6yrEKUqRLquLL4ujkRTh/ynu58EOPqhmiwgnzhtvLfyy7+c7IsAQub/TyE8MCg
2rLK5cXIGdHbWOQEqw/5JKSdXNIrm3ECAwEAAaNxMG8wHwYDVR0RBBgwFoEUb3Jj
bGFkbWluQG9yYWNsZS5jb20wDAYDVR0TAQH/BAIwADAfBgNVHSMEGDAWgBTb+GoV
CoJTH8LrzNBug3JX5EXydDAdBgNVHSUEFjAUBggrBgEFBQcDAgYIKwYBBQUHAwQw
DQYJKoZIhvcNAQEEBQADgYEAqHlilh69XOq1vLh1442dQnIvXP0FqjGvOxPw8pvD
aseoIIdWv9kvQpqAndyS6cnomAOFC2EcdKjVfuPvLVvneVwooOaoM6uQC2pUfgsM
hLO0wqZAhNqnmXWW1SLxkMPWfO3k43aHZ7Guno0XVUo0xV4UEw2tqTrCSz24wzlL
ccg=
-----END CERTIFICATE-----
