Certificate:
    Data:
        Version: 3 (0x2)
        Serial Number: 173 (0xad)
        Signature Algorithm: md5WithRSAEncryption
        Issuer: C=MY, ST=MAHA, L=PUNE, O=PSPL, OU=OBLIX-QA, CN=ps2436/emailAddress=sagar@pspl.com
        Validity
            Not Before: Nov 30 11:24:38 2010 GMT
            Not After : Nov 30 11:24:38 2011 GMT
        Subject: C=US, ST=ST, L=City, O=ORG, OU=OU, CN=stbbm02
        Subject Public Key Info:
            Public Key Algorithm: rsaEncryption
            RSA Public Key: (1024 bit)
                Modulus (1024 bit):
                    00:9b:7f:df:34:06:5c:17:60:9a:d9:29:09:8c:c8:
                    b8:f3:8f:a8:50:0b:31:66:87:b9:cc:ac:12:49:cb:
                    c2:6e:6d:c8:92:dd:4e:84:a9:43:a8:ef:5a:bb:8d:
                    e6:74:5b:be:20:43:38:35:eb:1e:7b:03:71:1f:41:
                    54:53:01:34:09:c5:2f:24:99:01:47:98:1c:fc:7e:
                    f5:f6:8b:22:bc:90:4d:f0:de:94:f3:94:76:ac:2e:
                    69:53:d7:7a:cf:d3:18:be:7b:98:d6:71:61:8c:f5:
                    e7:c7:b1:ca:38:14:1b:5d:e4:d3:62:a0:50:85:f0:
                    18:44:cd:aa:e5:5e:d6:e1:53
                Exponent: 65537 (0x10001)
        X509v3 extensions:
            X509v3 Authority Key Identifier: 
            keyid:DB:F8:6A:15:0A:82:53:1F:C2:EB:CC:D0:6E:83:72:57:E4:45:F2:74

            X509v3 Extended Key Usage: 
            TLS Web Server Authentication, TLS Web Client Authentication, Microsoft Server Gated Crypto, Netscape Server Gated Crypto
            X509v3 Basic Constraints: critical
            CA:FALSE
    Signature Algorithm: md5WithRSAEncryption
        7a:99:33:60:91:3b:f7:1d:19:37:e9:ce:30:5b:4b:87:e6:13:
        d5:99:6f:2e:20:a6:22:76:64:21:ce:17:59:de:fa:6d:d3:f7:
        9f:a6:c6:6b:99:14:51:81:70:cb:3c:85:67:30:41:86:a1:73:
        73:87:89:c6:0d:77:48:22:56:9d:49:5d:e1:48:3a:57:d0:e6:
        ac:c8:54:37:a4:24:a6:3b:0f:12:9f:db:c6:5b:34:26:59:3a:
        d6:dd:81:da:7d:ec:cf:3d:45:30:71:22:dc:5a:fc:ea:ae:30:
        68:fa:e6:67:ab:24:da:ba:1c:89:b9:1c:d3:13:18:8a:80:c1:
        7e:90
-----BEGIN CERTIFICATE-----
MIICsTCCAhqgAwIBAgICAK0wDQYJKoZIhvcNAQEEBQAwfTELMAkGA1UEBhMCTVkx
DTALBgNVBAgTBE1BSEExDTALBgNVBAcTBFBVTkUxDTALBgNVBAoTBFBTUEwxETAP
BgNVBAsTCE9CTElYLVFBMQ8wDQYDVQQDEwZwczI0MzYxHTAbBgkqhkiG9w0BCQEW
DnNhZ2FyQHBzcGwuY29tMB4XDTEwMTEzMDExMjQzOFoXDTExMTEzMDExMjQzOFow
VjELMAkGA1UEBhMCVVMxCzAJBgNVBAgTAlNUMQ0wCwYDVQQHEwRDaXR5MQwwCgYD
VQQKEwNPUkcxCzAJBgNVBAsTAk9VMRAwDgYDVQQDEwdzdGJibTAyMIGfMA0GCSqG
SIb3DQEBAQUAA4GNADCBiQKBgQCbf980BlwXYJrZKQmMyLjzj6hQCzFmh7nMrBJJ
y8JubciS3U6EqUOo71q7jeZ0W74gQzg16x57A3EfQVRTATQJxS8kmQFHmBz8fvX2
iyK8kE3w3pTzlHasLmlT13rP0xi+e5jWcWGM9efHsco4FBtd5NNioFCF8BhEzarl
XtbhUwIDAQABo2cwZTAfBgNVHSMEGDAWgBTb+GoVCoJTH8LrzNBug3JX5EXydDA0
BgNVHSUELTArBggrBgEFBQcDAQYIKwYBBQUHAwIGCisGAQQBgjcKAwMGCWCGSAGG
+EIEATAMBgNVHRMBAf8EAjAAMA0GCSqGSIb3DQEBBAUAA4GBAHqZM2CRO/cdGTfp
zjBbS4fmE9WZby4gpiJ2ZCHOF1ne+m3T95+mxmuZFFGBcMs8hWcwQYahc3OHicYN
d0giVp1JXeFIOlfQ5qzIVDekJKY7DxKf28ZbNCZZOtbdgdp97M89RTBxItxa/Oqu
MGj65merJNq6HIm5HNMTGIqAwX6Q
-----END CERTIFICATE-----
