Certificate:
    Data:
        Version: 3 (0x2)
        Serial Number: 174 (0xae)
        Signature Algorithm: md5WithRSAEncryption
        Issuer: C=MY, ST=MAHA, L=PUNE, O=PSPL, OU=OBLIX-QA, CN=ps2436/emailAddress=sagar@pspl.com
        Validity
            Not Before: Dec  1 09:31:37 2010 GMT
            Not After : Dec  1 09:31:37 2011 GMT
        Subject: C=US, ST=ST, L=City, O=Org, OU=OU, CN=stbbm02.us.oracle.com
        Subject Public Key Info:
            Public Key Algorithm: rsaEncryption
            RSA Public Key: (1024 bit)
                Modulus (1024 bit):
                    00:bc:8d:a7:58:4a:a1:26:56:e0:11:5b:ed:5a:33:
                    0e:28:d1:5e:10:63:77:ec:c3:85:ca:f5:03:bd:58:
                    b4:bf:1b:d8:94:a5:9d:7a:b8:ea:9c:06:aa:a4:76:
                    44:37:8f:84:3f:30:4d:03:1b:a4:e1:80:2c:fb:77:
                    83:a1:7e:ca:e3:96:b9:17:ab:96:99:7e:f4:d1:df:
                    53:ef:f3:df:e9:42:78:18:79:1a:df:a0:f2:54:2d:
                    1a:03:e3:1f:99:6f:b2:e7:d1:39:84:a6:b3:e3:66:
                    d7:52:12:8a:f8:7a:b9:97:a0:c0:74:4a:a1:87:36:
                    eb:d7:36:17:ff:86:3a:db:8b
                Exponent: 65537 (0x10001)
        X509v3 extensions:
            X509v3 Authority Key Identifier: 
            keyid:DB:F8:6A:15:0A:82:53:1F:C2:EB:CC:D0:6E:83:72:57:E4:45:F2:74

            X509v3 Extended Key Usage: 
            TLS Web Server Authentication, TLS Web Client Authentication, Microsoft Server Gated Crypto, Netscape Server Gated Crypto
            X509v3 Basic Constraints: critical
            CA:FALSE
    Signature Algorithm: md5WithRSAEncryption
        39:1c:61:5f:3b:f1:c2:4e:37:4b:33:21:b1:17:24:ac:fd:4b:
        a4:cc:10:ed:c5:e6:fa:a2:c6:ab:f9:2f:7b:21:d7:50:f0:5b:
        7b:a6:f9:e5:87:92:0e:3e:5c:5c:d7:b3:ae:05:3a:b0:0f:47:
        05:16:be:eb:7a:ad:ce:95:38:e6:ab:de:cd:37:2d:2c:e9:6e:
        e1:8b:f6:ea:81:b0:5a:4d:20:78:6e:2f:9e:8b:87:ec:b6:33:
        a6:f0:58:a2:34:d3:90:8c:c6:61:cb:85:75:14:a6:57:d0:0b:
        20:fd:fe:c0:43:f6:ab:e3:4e:d0:44:16:94:28:93:28:63:ee:
        10:1c
-----BEGIN CERTIFICATE-----
MIICvzCCAiigAwIBAgICAK4wDQYJKoZIhvcNAQEEBQAwfTELMAkGA1UEBhMCTVkx
DTALBgNVBAgTBE1BSEExDTALBgNVBAcTBFBVTkUxDTALBgNVBAoTBFBTUEwxETAP
BgNVBAsTCE9CTElYLVFBMQ8wDQYDVQQDEwZwczI0MzYxHTAbBgkqhkiG9w0BCQEW
DnNhZ2FyQHBzcGwuY29tMB4XDTEwMTIwMTA5MzEzN1oXDTExMTIwMTA5MzEzN1ow
ZDELMAkGA1UEBhMCVVMxCzAJBgNVBAgTAlNUMQ0wCwYDVQQHEwRDaXR5MQwwCgYD
VQQKEwNPcmcxCzAJBgNVBAsTAk9VMR4wHAYDVQQDExVzdGJibTAyLnVzLm9yYWNs
ZS5jb20wgZ8wDQYJKoZIhvcNAQEBBQADgY0AMIGJAoGBALyNp1hKoSZW4BFb7Voz
DijRXhBjd+zDhcr1A71YtL8b2JSlnXq46pwGqqR2RDePhD8wTQMbpOGALPt3g6F+
yuOWuRerlpl+9NHfU+/z3+lCeBh5Gt+g8lQtGgPjH5lvsufROYSms+Nm11ISivh6
uZegwHRKoYc269c2F/+GOtuLAgMBAAGjZzBlMB8GA1UdIwQYMBaAFNv4ahUKglMf
wuvM0G6DclfkRfJ0MDQGA1UdJQQtMCsGCCsGAQUFBwMBBggrBgEFBQcDAgYKKwYB
BAGCNwoDAwYJYIZIAYb4QgQBMAwGA1UdEwEB/wQCMAAwDQYJKoZIhvcNAQEEBQAD
gYEAORxhXzvxwk43SzMhsRckrP1LpMwQ7cXm+qLGq/kveyHXUPBbe6b55YeSDj5c
XNezrgU6sA9HBRa+63qtzpU45qvezTctLOlu4Yv26oGwWk0geG4vnouH7LYzpvBY
ojTTkIzGYcuFdRSmV9ALIP3+wEP2q+NO0EQWlCiTKGPuEBw=
-----END CERTIFICATE-----
