Certificate:
    Data:
        Version: 3 (0x2)
        Serial Number: 175 (0xaf)
        Signature Algorithm: md5WithRSAEncryption
        Issuer: C=MY, ST=MAHA, L=PUNE, O=PSPL, OU=OBLIX-QA, CN=ps2436/emailAddress=sagar@pspl.com
        Validity
            Not Before: Dec  1 11:51:12 2010 GMT
            Not After : Dec  1 11:51:12 2011 GMT
        Subject: C=US, ST=ST, L=L, O=Org, OU=OU, CN=stbbm02.us.oracle.com
        Subject Public Key Info:
            Public Key Algorithm: rsaEncryption
            RSA Public Key: (1024 bit)
                Modulus (1024 bit):
                    00:94:34:ac:ea:7f:b5:07:38:43:d7:99:c2:07:9b:
                    02:eb:68:3c:4e:ae:81:43:a1:22:95:aa:8c:d1:77:
                    ae:f4:54:5d:e6:d8:d7:21:a9:73:24:cd:df:d1:9e:
                    81:9e:86:95:62:8c:4d:d1:12:33:5a:fa:07:87:42:
                    81:c7:5c:90:3e:c5:45:45:86:5f:c1:41:48:74:5a:
                    2b:cc:b5:7a:7a:f1:3f:9b:96:55:93:5b:a0:b8:0a:
                    e5:46:57:74:cd:86:49:b8:18:75:69:b5:2b:f7:68:
                    62:79:9a:ca:40:b2:f2:af:cd:ee:6d:35:aa:40:20:
                    12:0b:90:5b:bc:75:99:22:95
                Exponent: 65537 (0x10001)
        X509v3 extensions:
            X509v3 Authority Key Identifier: 
            keyid:DB:F8:6A:15:0A:82:53:1F:C2:EB:CC:D0:6E:83:72:57:E4:45:F2:74

            X509v3 Extended Key Usage: 
            TLS Web Server Authentication, TLS Web Client Authentication, Microsoft Server Gated Crypto, Netscape Server Gated Crypto
            X509v3 Basic Constraints: critical
            CA:FALSE
    Signature Algorithm: md5WithRSAEncryption
        bc:67:84:d4:b0:05:3c:13:2b:ba:0f:ff:36:03:22:96:43:c7:
        ba:7d:1a:39:16:56:b4:f2:f0:50:dc:47:71:9e:ed:9a:d3:71:
        ee:22:74:20:82:98:79:05:c4:b4:0d:73:41:1d:ef:f1:8c:61:
        e4:18:e2:00:d0:b0:7a:0f:a7:b0:68:d4:83:59:19:77:04:9a:
        9e:e5:48:6b:ff:d4:eb:63:fc:05:29:6f:9d:73:73:8a:18:84:
        bb:f4:e2:a0:d9:be:40:07:dd:60:0a:86:c6:a7:c5:c7:24:0e:
        65:56:0c:ba:e8:c0:88:4b:46:fd:23:63:a9:8a:b8:e7:7b:ac:
        1c:3e
-----BEGIN CERTIFICATE-----
MIICvDCCAiWgAwIBAgICAK8wDQYJKoZIhvcNAQEEBQAwfTELMAkGA1UEBhMCTVkx
DTALBgNVBAgTBE1BSEExDTALBgNVBAcTBFBVTkUxDTALBgNVBAoTBFBTUEwxETAP
BgNVBAsTCE9CTElYLVFBMQ8wDQYDVQQDEwZwczI0MzYxHTAbBgkqhkiG9w0BCQEW
DnNhZ2FyQHBzcGwuY29tMB4XDTEwMTIwMTExNTExMloXDTExMTIwMTExNTExMlow
YTELMAkGA1UEBhMCVVMxCzAJBgNVBAgTAlNUMQowCAYDVQQHEwFMMQwwCgYDVQQK
EwNPcmcxCzAJBgNVBAsTAk9VMR4wHAYDVQQDExVzdGJibTAyLnVzLm9yYWNsZS5j
b20wgZ8wDQYJKoZIhvcNAQEBBQADgY0AMIGJAoGBAJQ0rOp/tQc4Q9eZwgebAuto
PE6ugUOhIpWqjNF3rvRUXebY1yGpcyTN39GegZ6GlWKMTdESM1r6B4dCgcdckD7F
RUWGX8FBSHRaK8y1enrxP5uWVZNboLgK5UZXdM2GSbgYdWm1K/doYnmaykCy8q/N
7m01qkAgEguQW7x1mSKVAgMBAAGjZzBlMB8GA1UdIwQYMBaAFNv4ahUKglMfwuvM
0G6DclfkRfJ0MDQGA1UdJQQtMCsGCCsGAQUFBwMBBggrBgEFBQcDAgYKKwYBBAGC
NwoDAwYJYIZIAYb4QgQBMAwGA1UdEwEB/wQCMAAwDQYJKoZIhvcNAQEEBQADgYEA
vGeE1LAFPBMrug//NgMilkPHun0aORZWtPLwUNxHcZ7tmtNx7iJ0IIKYeQXEtA1z
QR3v8Yxh5BjiANCweg+nsGjUg1kZdwSanuVIa//U62P8BSlvnXNzihiEu/TioNm+
QAfdYAqGxqfFxyQOZVYMuujAiEtG/SNjqYq453usHD4=
-----END CERTIFICATE-----
