Certificate:
    Data:
        Version: 3 (0x2)
        Serial Number: 176 (0xb0)
        Signature Algorithm: md5WithRSAEncryption
        Issuer: C=MY, ST=MAHA, L=PUNE, O=PSPL, OU=OBLIX-QA, CN=ps2436/emailAddress=sagar@pspl.com
        Validity
            Not Before: Dec  1 13:10:54 2010 GMT
            Not After : Dec  1 13:10:54 2011 GMT
        Subject: C=US, ST=Maha, L=Pune, O=PSL, OU=Oracle, CN=stbbm02.us.oracle.com
        Subject Public Key Info:
            Public Key Algorithm: rsaEncryption
            RSA Public Key: (1024 bit)
                Modulus (1024 bit):
                    00:a4:5a:13:2f:2c:fa:49:b2:03:5a:59:e2:a5:08:
                    af:75:71:7d:bc:ea:96:58:e0:56:52:19:92:d1:13:
                    36:c4:e5:bf:2e:6d:3e:47:9a:5a:25:2c:13:05:c9:
                    14:ee:5a:e4:2a:80:fd:c1:5f:7d:6d:ad:63:08:a3:
                    f5:e1:9a:c1:2b:c7:c0:be:6e:9b:e6:a9:fa:78:8a:
                    b1:ab:86:ad:7f:19:83:e1:56:fe:18:e4:c5:ec:32:
                    1f:93:30:f5:0d:a0:f7:34:ba:40:81:30:a9:4f:3f:
                    55:96:77:3f:65:6b:c6:6e:b3:09:ed:7d:10:42:1d:
                    e1:8b:fb:fa:e0:67:47:91:77
                Exponent: 65537 (0x10001)
        X509v3 extensions:
            X509v3 Authority Key Identifier: 
            keyid:DB:F8:6A:15:0A:82:53:1F:C2:EB:CC:D0:6E:83:72:57:E4:45:F2:74

            X509v3 Extended Key Usage: 
            TLS Web Server Authentication, TLS Web Client Authentication, Microsoft Server Gated Crypto, Netscape Server Gated Crypto
            X509v3 Basic Constraints: critical
            CA:FALSE
    Signature Algorithm: md5WithRSAEncryption
        41:20:3e:a2:12:db:c7:d9:a0:d5:f3:9c:0f:b5:88:e6:b0:8b:
        c6:95:c7:0f:a0:c2:04:fb:4b:3d:43:84:a4:4c:b5:c0:24:64:
        33:6b:b3:d4:d9:7d:8d:a6:9b:ce:54:a7:d7:63:2d:c6:9a:02:
        de:b2:a7:7b:9d:4b:71:00:68:e0:18:76:1e:4f:c3:9b:6d:a1:
        f5:37:20:93:0e:0f:eb:b7:9d:60:02:b9:35:8a:d6:dc:06:0c:
        1c:ee:48:46:ef:b5:5b:3c:b5:3d:ec:a4:c2:ff:13:79:c3:20:
        b0:c2:cd:8f:b9:6a:fe:bb:bc:88:04:a6:12:82:50:8e:49:ff:
        66:4a
-----BEGIN CERTIFICATE-----
MIICxTCCAi6gAwIBAgICALAwDQYJKoZIhvcNAQEEBQAwfTELMAkGA1UEBhMCTVkx
DTALBgNVBAgTBE1BSEExDTALBgNVBAcTBFBVTkUxDTALBgNVBAoTBFBTUEwxETAP
BgNVBAsTCE9CTElYLVFBMQ8wDQYDVQQDEwZwczI0MzYxHTAbBgkqhkiG9w0BCQEW
DnNhZ2FyQHBzcGwuY29tMB4XDTEwMTIwMTEzMTA1NFoXDTExMTIwMTEzMTA1NFow
ajELMAkGA1UEBhMCVVMxDTALBgNVBAgTBE1haGExDTALBgNVBAcTBFB1bmUxDDAK
BgNVBAoTA1BTTDEPMA0GA1UECxMGT3JhY2xlMR4wHAYDVQQDExVzdGJibTAyLnVz
Lm9yYWNsZS5jb20wgZ8wDQYJKoZIhvcNAQEBBQADgY0AMIGJAoGBAKRaEy8s+kmy
A1pZ4qUIr3VxfbzqlljgVlIZktETNsTlvy5tPkeaWiUsEwXJFO5a5CqA/cFffW2t
Ywij9eGawSvHwL5um+ap+niKsauGrX8Zg+FW/hjkxewyH5Mw9Q2g9zS6QIEwqU8/
VZZ3P2Vrxm6zCe19EEId4Yv7+uBnR5F3AgMBAAGjZzBlMB8GA1UdIwQYMBaAFNv4
ahUKglMfwuvM0G6DclfkRfJ0MDQGA1UdJQQtMCsGCCsGAQUFBwMBBggrBgEFBQcD
AgYKKwYBBAGCNwoDAwYJYIZIAYb4QgQBMAwGA1UdEwEB/wQCMAAwDQYJKoZIhvcN
AQEEBQADgYEAQSA+ohLbx9mg1fOcD7WI5rCLxpXHD6DCBPtLPUOEpEy1wCRkM2uz
1Nl9jaabzlSn12MtxpoC3rKne51LcQBo4Bh2Hk/Dm22h9Tcgkw4P67edYAK5NYrW
3AYMHO5IRu+1Wzy1Peykwv8TecMgsMLNj7lq/ru8iASmEoJQjkn/Zko=
-----END CERTIFICATE-----
