Certificate:
    Data:
        Version: 3 (0x2)
        Serial Number: 177 (0xb1)
        Signature Algorithm: md5WithRSAEncryption
        Issuer: C=MY, ST=MAHA, L=PUNE, O=PSPL, OU=OBLIX-QA, CN=ps2436/emailAddress=sagar@pspl.com
        Validity
            Not Before: Dec 22 14:33:16 2010 GMT
            Not After : Dec 22 14:33:16 2011 GMT
        Subject: CN=testuser/emailAddress=testuser@oracle.com
        Subject Public Key Info:
            Public Key Algorithm: rsaEncryption
            RSA Public Key: (1024 bit)
                Modulus (1024 bit):
                    00:d6:37:f0:f5:20:5f:94:da:91:eb:9b:8b:69:19:
                    74:21:e2:30:02:78:a1:52:2a:6c:c6:37:f5:71:96:
                    4f:85:fd:59:5b:dc:ac:f3:b5:39:19:6d:4e:d6:b9:
                    b8:91:93:c3:5a:60:d0:ff:13:83:d2:39:c2:35:a6:
                    3f:b1:9d:6a:c4:d0:dd:fb:52:d0:f3:8c:22:00:53:
                    4f:b3:53:bc:2f:29:8b:e8:3d:f7:d9:3f:02:f3:71:
                    ec:61:a2:fa:4c:81:54:51:b6:be:b9:e0:76:a0:a8:
                    fe:0c:4e:16:c5:16:a2:10:43:d7:d5:6b:99:06:46:
                    a3:fd:72:91:74:99:b5:e0:0b
                Exponent: 65537 (0x10001)
        X509v3 extensions:
            X509v3 Subject Alternative Name: 
            email:testuser@oracle.com
            X509v3 Basic Constraints: critical
            CA:FALSE
            X509v3 Authority Key Identifier: 
            keyid:DB:F8:6A:15:0A:82:53:1F:C2:EB:CC:D0:6E:83:72:57:E4:45:F2:74

            X509v3 Extended Key Usage: 
            TLS Web Client Authentication, E-mail Protection
    Signature Algorithm: md5WithRSAEncryption
        2a:62:30:97:2b:73:5a:5a:70:f8:8a:96:4a:2d:59:68:41:2f:
        ab:a8:95:0f:38:3f:99:85:14:48:f2:97:70:01:21:ea:73:1e:
        39:24:23:a5:c5:01:62:d3:1e:39:16:cd:46:21:80:84:54:fc:
        a0:5e:da:33:13:e7:6f:93:e2:b6:cf:d3:85:70:5b:09:ef:88:
        2d:49:3f:f4:03:ef:db:93:d3:cc:77:0b:8f:7d:2e:4d:00:19:
        21:17:99:56:23:a4:b4:e0:7a:b0:6a:ff:6f:2f:a7:d9:83:10:
        52:53:0d:d3:e8:85:4a:35:88:06:72:6b:47:2f:de:31:98:33:
        cc:71
-----BEGIN CERTIFICATE-----
MIICmzCCAgSgAwIBAgICALEwDQYJKoZIhvcNAQEEBQAwfTELMAkGA1UEBhMCTVkx
DTALBgNVBAgTBE1BSEExDTALBgNVBAcTBFBVTkUxDTALBgNVBAoTBFBTUEwxETAP
BgNVBAsTCE9CTElYLVFBMQ8wDQYDVQQDEwZwczI0MzYxHTAbBgkqhkiG9w0BCQEW
DnNhZ2FyQHBzcGwuY29tMB4XDTEwMTIyMjE0MzMxNloXDTExMTIyMjE0MzMxNlow
NzERMA8GA1UEAxMIdGVzdHVzZXIxIjAgBgkqhkiG9w0BCQEWE3Rlc3R1c2VyQG9y
YWNsZS5jb20wgZ8wDQYJKoZIhvcNAQEBBQADgY0AMIGJAoGBANY38PUgX5Takeub
i2kZdCHiMAJ4oVIqbMY39XGWT4X9WVvcrPO1ORltTta5uJGTw1pg0P8Tg9I5wjWm
P7GdasTQ3ftS0POMIgBTT7NTvC8pi+g999k/AvNx7GGi+kyBVFG2vrngdqCo/gxO
FsUWohBD19VrmQZGo/1ykXSZteALAgMBAAGjcDBuMB4GA1UdEQQXMBWBE3Rlc3R1
c2VyQG9yYWNsZS5jb20wDAYDVR0TAQH/BAIwADAfBgNVHSMEGDAWgBTb+GoVCoJT
H8LrzNBug3JX5EXydDAdBgNVHSUEFjAUBggrBgEFBQcDAgYIKwYBBQUHAwQwDQYJ
KoZIhvcNAQEEBQADgYEAKmIwlytzWlpw+IqWSi1ZaEEvq6iVDzg/mYUUSPKXcAEh
6nMeOSQjpcUBYtMeORbNRiGAhFT8oF7aMxPnb5Pits/ThXBbCe+ILUk/9APv25PT
zHcLj30uTQAZIReZViOktOB6sGr/by+n2YMQUlMN0+iFSjWIBnJrRy/eMZgzzHE=
-----END CERTIFICATE-----
