Certificate:
    Data:
        Version: 3 (0x2)
        Serial Number: 178 (0xb2)
        Signature Algorithm: md5WithRSAEncryption
        Issuer: C=MY, ST=MAHA, L=PUNE, O=PSPL, OU=OBLIX-QA, CN=ps2436/emailAddress=sagar@pspl.com
        Validity
            Not Before: Dec 28 14:47:36 2010 GMT
            Not After : Dec 28 14:47:36 2011 GMT
        Subject: CN=mayank/emailAddress=maynk@psl.com
        Subject Public Key Info:
            Public Key Algorithm: rsaEncryption
            RSA Public Key: (1024 bit)
                Modulus (1024 bit):
                    00:a8:a3:48:ca:3c:47:1a:4e:dd:8f:58:30:bf:23:
                    93:8b:12:db:47:63:0f:14:8a:f1:53:f0:e5:a3:85:
                    1f:97:bd:0b:bb:2e:ed:96:ee:d6:83:28:68:35:5c:
                    3a:33:f3:36:07:90:1c:a5:96:f6:16:89:3c:b7:cf:
                    c7:af:d7:c2:c1:25:80:07:bc:7f:81:e9:72:a0:56:
                    19:be:a5:ce:e9:bb:d9:ba:99:2a:05:59:9c:f0:49:
                    5f:b7:bd:6c:f1:5c:55:2a:83:0c:e4:21:d8:78:42:
                    ac:83:e1:33:58:39:4b:f2:be:39:4d:e5:1e:02:30:
                    b6:d3:41:04:81:1b:c6:27:05
                Exponent: 65537 (0x10001)
        X509v3 extensions:
            X509v3 Subject Alternative Name: 
            email:maynk@psl.com
            X509v3 Basic Constraints: critical
            CA:FALSE
            X509v3 Authority Key Identifier: 
            keyid:DB:F8:6A:15:0A:82:53:1F:C2:EB:CC:D0:6E:83:72:57:E4:45:F2:74

            X509v3 Extended Key Usage: 
            TLS Web Client Authentication, E-mail Protection
    Signature Algorithm: md5WithRSAEncryption
        60:ad:e2:f5:86:b1:2c:95:34:25:4f:eb:9d:a6:37:44:4c:35:
        d8:47:67:e6:4c:9c:8b:4d:63:0d:80:f3:1a:31:6a:98:65:7f:
        68:d3:f1:68:60:73:5f:0e:43:a3:45:b5:d5:40:34:f5:d4:70:
        9a:80:d7:66:1f:ab:1f:ac:01:53:af:45:f9:76:52:ba:fd:ba:
        9a:74:af:97:6b:a6:fb:de:45:c1:8c:e0:78:80:c3:43:f8:0f:
        63:91:a7:bd:61:ba:bd:96:c3:1e:0c:64:3a:83:05:60:40:d1:
        b7:21:1e:90:30:8e:85:13:9d:c0:f4:b9:79:c2:7d:e3:34:d1:
        48:04
-----BEGIN CERTIFICATE-----
MIICjTCCAfagAwIBAgICALIwDQYJKoZIhvcNAQEEBQAwfTELMAkGA1UEBhMCTVkx
DTALBgNVBAgTBE1BSEExDTALBgNVBAcTBFBVTkUxDTALBgNVBAoTBFBTUEwxETAP
BgNVBAsTCE9CTElYLVFBMQ8wDQYDVQQDEwZwczI0MzYxHTAbBgkqhkiG9w0BCQEW
DnNhZ2FyQHBzcGwuY29tMB4XDTEwMTIyODE0NDczNloXDTExMTIyODE0NDczNlow
LzEPMA0GA1UEAxMGbWF5YW5rMRwwGgYJKoZIhvcNAQkBFg1tYXlua0Bwc2wuY29t
MIGfMA0GCSqGSIb3DQEBAQUAA4GNADCBiQKBgQCoo0jKPEcaTt2PWDC/I5OLEttH
Yw8UivFT8OWjhR+XvQu7Lu2W7taDKGg1XDoz8zYHkByllvYWiTy3z8ev18LBJYAH
vH+B6XKgVhm+pc7pu9m6mSoFWZzwSV+3vWzxXFUqgwzkIdh4QqyD4TNYOUvyvjlN
5R4CMLbTQQSBG8YnBQIDAQABo2owaDAYBgNVHREEETAPgQ1tYXlua0Bwc2wuY29t
MAwGA1UdEwEB/wQCMAAwHwYDVR0jBBgwFoAU2/hqFQqCUx/C68zQboNyV+RF8nQw
HQYDVR0lBBYwFAYIKwYBBQUHAwIGCCsGAQUFBwMEMA0GCSqGSIb3DQEBBAUAA4GB
AGCt4vWGsSyVNCVP652mN0RMNdhHZ+ZMnItNYw2A8xoxaphlf2jT8Whgc18OQ6NF
tdVANPXUcJqA12Yfqx+sAVOvRfl2Urr9upp0r5drpvveRcGM4HiAw0P4D2ORp71h
ur2Wwx4MZDqDBWBA0bchHpAwjoUTncD0uXnCfeM00UgE
-----END CERTIFICATE-----
