Certificate:
    Data:
        Version: 3 (0x2)
        Serial Number: 179 (0xb3)
        Signature Algorithm: md5WithRSAEncryption
        Issuer: C=MY, ST=MAHA, L=PUNE, O=PSPL, OU=OBLIX-QA, CN=ps2436/emailAddress=sagar@pspl.com
        Validity
            Not Before: Jan  5 11:46:01 2011 GMT
            Not After : Jan  5 11:46:01 2012 GMT
        Subject: C=US, ST=MAHA, L=PUNE, O=PLS, OU=Oracle, CN=sta00097.us.oracle.com
        Subject Public Key Info:
            Public Key Algorithm: rsaEncryption
            RSA Public Key: (1024 bit)
                Modulus (1024 bit):
                    00:80:7a:30:0c:bc:6c:ac:34:c1:83:61:64:7f:3e:
                    05:5c:95:f7:70:a0:ce:2b:58:63:66:57:62:7b:8f:
                    37:3a:8f:4a:e8:37:74:4f:3c:80:2f:d0:31:d2:53:
                    fc:37:36:c3:23:97:62:a0:1b:65:42:57:e8:4b:57:
                    80:78:8c:a8:5c:1d:77:5c:d8:7a:85:f3:04:96:ec:
                    8d:0b:93:6b:91:5f:2f:c7:63:cd:a9:5e:d7:cf:c8:
                    f5:3d:97:e1:88:9c:b7:30:56:a5:b8:c0:c9:78:87:
                    b7:4a:c0:9b:01:13:68:c5:0e:77:c0:27:51:70:ee:
                    57:a3:18:77:e9:d5:7f:c5:e9
                Exponent: 65537 (0x10001)
        X509v3 extensions:
            X509v3 Authority Key Identifier: 
            keyid:DB:F8:6A:15:0A:82:53:1F:C2:EB:CC:D0:6E:83:72:57:E4:45:F2:74

            X509v3 Extended Key Usage: 
            TLS Web Server Authentication, TLS Web Client Authentication, Microsoft Server Gated Crypto, Netscape Server Gated Crypto
            X509v3 Basic Constraints: critical
            CA:FALSE
    Signature Algorithm: md5WithRSAEncryption
        3a:5c:8e:02:85:26:f2:19:da:22:5b:c5:98:e7:29:d9:c7:8a:
        4d:a2:66:63:c4:46:ba:5d:ef:46:64:86:11:06:2e:60:89:67:
        a1:a4:6a:03:73:f4:87:63:89:69:f5:f3:c5:9d:81:fe:5c:9c:
        da:cd:a6:3a:53:1c:7b:83:45:9a:c6:79:2c:1a:33:50:ab:90:
        a0:ec:1c:0c:3c:d0:17:cc:5d:13:bf:cd:49:42:70:c5:0f:e8:
        54:1c:e1:dc:1c:19:72:41:41:85:86:6b:f6:0c:15:0e:c1:cc:
        e7:ae:ac:e2:70:d0:fe:d0:4f:eb:62:26:87:fb:32:c8:23:fd:
        61:46
-----BEGIN CERTIFICATE-----
MIICxjCCAi+gAwIBAgICALMwDQYJKoZIhvcNAQEEBQAwfTELMAkGA1UEBhMCTVkx
DTALBgNVBAgTBE1BSEExDTALBgNVBAcTBFBVTkUxDTALBgNVBAoTBFBTUEwxETAP
BgNVBAsTCE9CTElYLVFBMQ8wDQYDVQQDEwZwczI0MzYxHTAbBgkqhkiG9w0BCQEW
DnNhZ2FyQHBzcGwuY29tMB4XDTExMDEwNTExNDYwMVoXDTEyMDEwNTExNDYwMVow
azELMAkGA1UEBhMCVVMxDTALBgNVBAgTBE1BSEExDTALBgNVBAcTBFBVTkUxDDAK
BgNVBAoTA1BMUzEPMA0GA1UECxMGT3JhY2xlMR8wHQYDVQQDExZzdGEwMDA5Ny51
cy5vcmFjbGUuY29tMIGfMA0GCSqGSIb3DQEBAQUAA4GNADCBiQKBgQCAejAMvGys
NMGDYWR/PgVclfdwoM4rWGNmV2J7jzc6j0roN3RPPIAv0DHSU/w3NsMjl2KgG2VC
V+hLV4B4jKhcHXdc2HqF8wSW7I0Lk2uRXy/HY82pXtfPyPU9l+GInLcwVqW4wMl4
h7dKwJsBE2jFDnfAJ1Fw7lejGHfp1X/F6QIDAQABo2cwZTAfBgNVHSMEGDAWgBTb
+GoVCoJTH8LrzNBug3JX5EXydDA0BgNVHSUELTArBggrBgEFBQcDAQYIKwYBBQUH
AwIGCisGAQQBgjcKAwMGCWCGSAGG+EIEATAMBgNVHRMBAf8EAjAAMA0GCSqGSIb3
DQEBBAUAA4GBADpcjgKFJvIZ2iJbxZjnKdnHik2iZmPERrpd70ZkhhEGLmCJZ6Gk
agNz9IdjiWn188Wdgf5cnNrNpjpTHHuDRZrGeSwaM1CrkKDsHAw80BfMXRO/zUlC
cMUP6FQc4dwcGXJBQYWGa/YMFQ7BzOeurOJw0P7QT+tiJof7Msgj/WFG
-----END CERTIFICATE-----
