Certificate:
    Data:
        Version: 3 (0x2)
        Serial Number: 180 (0xb4)
        Signature Algorithm: md5WithRSAEncryption
        Issuer: C=MY, ST=MAHA, L=PUNE, O=PSPL, OU=OBLIX-QA, CN=ps2436/emailAddress=sagar@pspl.com
        Validity
            Not Before: Jan  6 13:58:46 2011 GMT
            Not After : Jan  6 13:58:46 2012 GMT
        Subject: CN=amuser/emailAddress=amuser@oracle.com
        Subject Public Key Info:
            Public Key Algorithm: rsaEncryption
            RSA Public Key: (1024 bit)
                Modulus (1024 bit):
                    00:97:18:6f:54:30:8b:ce:df:4f:c2:f7:97:39:85:
                    07:0f:9e:60:0f:33:8a:89:e4:c1:82:41:34:01:c0:
                    a4:9a:50:0b:72:4d:cb:43:f4:fb:69:54:4a:4a:b0:
                    fe:3c:21:2e:ba:a3:ee:e2:81:c8:3d:68:ce:d6:34:
                    70:48:4b:77:17:a2:14:6c:aa:d3:13:c5:b8:79:bc:
                    a8:7b:2f:79:c0:af:c7:c5:9e:92:ff:9b:2c:fc:ac:
                    9e:f7:60:d7:5a:46:49:30:dd:18:3a:4e:e7:a0:81:
                    f2:1d:05:dc:45:51:27:65:5f:62:f5:3e:0f:f9:b7:
                    24:06:6f:06:6b:60:f7:20:c3
                Exponent: 65537 (0x10001)
        X509v3 extensions:
            X509v3 Subject Alternative Name: 
            email:amuser@oracle.com
            X509v3 Basic Constraints: critical
            CA:FALSE
            X509v3 Authority Key Identifier: 
            keyid:DB:F8:6A:15:0A:82:53:1F:C2:EB:CC:D0:6E:83:72:57:E4:45:F2:74

            X509v3 Extended Key Usage: 
            TLS Web Client Authentication, E-mail Protection
    Signature Algorithm: md5WithRSAEncryption
        0e:20:4d:40:d4:05:f7:a0:e5:ee:14:8a:de:a6:d2:76:0c:c2:
        3e:bb:5d:fe:34:fc:f2:fb:36:25:49:9f:d5:bd:8d:c9:31:4c:
        23:4c:97:53:ea:1e:86:08:75:e8:ac:4e:10:cd:a4:80:21:f2:
        b6:dc:f3:c2:73:d3:f8:ad:ae:85:57:a1:ad:68:7a:b8:c1:b2:
        42:c6:33:c2:92:53:4c:0a:c6:da:cd:0c:cd:68:25:28:6f:9f:
        62:9b:f8:94:7d:3f:0d:0f:c6:e0:13:ea:a2:c4:ac:8d:70:3a:
        a3:e7:d4:89:4e:fe:79:62:e3:fe:20:45:b4:38:52:70:5d:bd:
        19:b8
-----BEGIN CERTIFICATE-----
MIIClTCCAf6gAwIBAgICALQwDQYJKoZIhvcNAQEEBQAwfTELMAkGA1UEBhMCTVkx
DTALBgNVBAgTBE1BSEExDTALBgNVBAcTBFBVTkUxDTALBgNVBAoTBFBTUEwxETAP
BgNVBAsTCE9CTElYLVFBMQ8wDQYDVQQDEwZwczI0MzYxHTAbBgkqhkiG9w0BCQEW
DnNhZ2FyQHBzcGwuY29tMB4XDTExMDEwNjEzNTg0NloXDTEyMDEwNjEzNTg0Nlow
MzEPMA0GA1UEAxMGYW11c2VyMSAwHgYJKoZIhvcNAQkBFhFhbXVzZXJAb3JhY2xl
LmNvbTCBnzANBgkqhkiG9w0BAQEFAAOBjQAwgYkCgYEAlxhvVDCLzt9PwveXOYUH
D55gDzOKieTBgkE0AcCkmlALck3LQ/T7aVRKSrD+PCEuuqPu4oHIPWjO1jRwSEt3
F6IUbKrTE8W4ebyoey95wK/HxZ6S/5ss/Kye92DXWkZJMN0YOk7noIHyHQXcRVEn
ZV9i9T4P+bckBm8Ga2D3IMMCAwEAAaNuMGwwHAYDVR0RBBUwE4ERYW11c2VyQG9y
YWNsZS5jb20wDAYDVR0TAQH/BAIwADAfBgNVHSMEGDAWgBTb+GoVCoJTH8LrzNBu
g3JX5EXydDAdBgNVHSUEFjAUBggrBgEFBQcDAgYIKwYBBQUHAwQwDQYJKoZIhvcN
AQEEBQADgYEADiBNQNQF96Dl7hSK3qbSdgzCPrtd/jT88vs2JUmf1b2NyTFMI0yX
U+oehgh16KxOEM2kgCHyttzzwnPT+K2uhVehrWh6uMGyQsYzwpJTTArG2s0MzWgl
KG+fYpv4lH0/DQ/G4BPqosSsjXA6o+fUiU7+eWLj/iBFtDhScF29Gbg=
-----END CERTIFICATE-----
