Certificate:
    Data:
        Version: 3 (0x2)
        Serial Number: 181 (0xb5)
        Signature Algorithm: md5WithRSAEncryption
        Issuer: C=MY, ST=MAHA, L=PUNE, O=PSPL, OU=OBLIX-QA, CN=ps2436/emailAddress=sagar@pspl.com
        Validity
            Not Before: Jan 19 12:49:26 2011 GMT
            Not After : Jan 19 12:49:26 2012 GMT
        Subject: CN=testedipi.12345/emailAddress=test@oracle.com
        Subject Public Key Info:
            Public Key Algorithm: rsaEncryption
            RSA Public Key: (1024 bit)
                Modulus (1024 bit):
                    00:c2:19:7d:b6:b0:d8:dc:08:b5:23:c5:12:e2:3a:
                    cb:1b:90:44:13:60:f5:0d:16:81:2e:cd:8d:e0:a2:
                    3e:da:2e:21:77:ed:9f:2f:aa:b1:de:b8:94:c0:c3:
                    f1:38:39:c9:68:62:2c:4c:3e:0f:8b:29:6a:09:09:
                    57:76:3b:9f:ea:55:4d:71:5f:f1:f3:a6:91:27:c6:
                    a8:86:9c:69:34:93:44:89:40:8b:aa:30:11:a6:de:
                    3b:2b:4c:31:61:b2:ec:1c:72:c1:07:6b:2c:d2:b5:
                    99:1d:9b:c6:65:b8:ed:67:8e:d4:7d:64:4f:19:05:
                    d4:b3:33:ab:2d:68:64:00:c3
                Exponent: 65537 (0x10001)
        X509v3 extensions:
            X509v3 Subject Alternative Name: 
            email:test@oracle.com
            X509v3 Basic Constraints: critical
            CA:FALSE
            X509v3 Authority Key Identifier: 
            keyid:DB:F8:6A:15:0A:82:53:1F:C2:EB:CC:D0:6E:83:72:57:E4:45:F2:74

            X509v3 Extended Key Usage: 
            TLS Web Client Authentication, E-mail Protection
    Signature Algorithm: md5WithRSAEncryption
        1e:c1:98:18:5f:e3:84:ea:d0:0e:ba:94:5c:7b:43:4c:e6:82:
        fb:33:90:9d:d0:21:0c:22:98:1c:c1:93:4e:fb:64:7f:8a:57:
        fc:05:f3:e7:1a:2b:ee:de:a2:75:be:7f:51:fe:92:45:d4:08:
        fd:55:77:86:64:a5:4b:80:1a:7a:b2:49:cc:9d:71:0a:78:5b:
        4e:49:b3:13:c4:ee:40:ba:15:cb:32:9a:b2:19:45:7b:bb:85:
        85:6d:00:25:ce:6d:f7:17:6f:ec:94:d8:16:9f:3a:63:6f:17:
        61:af:f9:d5:e5:d6:6d:49:90:3e:1f:2c:be:8f:b3:d5:0c:7b:
        2a:25
-----BEGIN CERTIFICATE-----
MIICmjCCAgOgAwIBAgICALUwDQYJKoZIhvcNAQEEBQAwfTELMAkGA1UEBhMCTVkx
DTALBgNVBAgTBE1BSEExDTALBgNVBAcTBFBVTkUxDTALBgNVBAoTBFBTUEwxETAP
BgNVBAsTCE9CTElYLVFBMQ8wDQYDVQQDEwZwczI0MzYxHTAbBgkqhkiG9w0BCQEW
DnNhZ2FyQHBzcGwuY29tMB4XDTExMDExOTEyNDkyNloXDTEyMDExOTEyNDkyNlow
OjEYMBYGA1UEAxMPdGVzdGVkaXBpLjEyMzQ1MR4wHAYJKoZIhvcNAQkBFg90ZXN0
QG9yYWNsZS5jb20wgZ8wDQYJKoZIhvcNAQEBBQADgY0AMIGJAoGBAMIZfbaw2NwI
tSPFEuI6yxuQRBNg9Q0WgS7NjeCiPtouIXftny+qsd64lMDD8Tg5yWhiLEw+D4sp
agkJV3Y7n+pVTXFf8fOmkSfGqIacaTSTRIlAi6owEabeOytMMWGy7BxywQdrLNK1
mR2bxmW47WeO1H1kTxkF1LMzqy1oZADDAgMBAAGjbDBqMBoGA1UdEQQTMBGBD3Rl
c3RAb3JhY2xlLmNvbTAMBgNVHRMBAf8EAjAAMB8GA1UdIwQYMBaAFNv4ahUKglMf
wuvM0G6DclfkRfJ0MB0GA1UdJQQWMBQGCCsGAQUFBwMCBggrBgEFBQcDBDANBgkq
hkiG9w0BAQQFAAOBgQAewZgYX+OE6tAOupRce0NM5oL7M5Cd0CEMIpgcwZNO+2R/
ilf8BfPnGivu3qJ1vn9R/pJF1Aj9VXeGZKVLgBp6sknMnXEKeFtOSbMTxO5AuhXL
MpqyGUV7u4WFbQAlzm33F2/slNgWnzpjbxdhr/nV5dZtSZA+Hyy+j7PVDHsqJQ==
-----END CERTIFICATE-----
