Certificate:
    Data:
        Version: 3 (0x2)
        Serial Number: 182 (0xb6)
        Signature Algorithm: md5WithRSAEncryption
        Issuer: C=MY, ST=MAHA, L=PUNE, O=PSPL, OU=OBLIX-QA, CN=ps2436/emailAddress=sagar@pspl.com
        Validity
            Not Before: Feb  2 10:43:08 2011 GMT
            Not After : Feb  2 10:43:08 2012 GMT
        Subject: CN=shilpa/emailAddress=shilpa@oracle.com
        Subject Public Key Info:
            Public Key Algorithm: rsaEncryption
            RSA Public Key: (1024 bit)
                Modulus (1024 bit):
                    00:bc:8a:68:63:d8:0d:82:2e:48:c2:29:77:e6:85:
                    81:d1:86:f6:5d:8d:40:28:86:6e:a4:ab:6e:e8:b3:
                    ad:13:75:41:61:98:32:43:7a:31:3c:a8:8e:31:cf:
                    4d:1e:72:6d:75:01:9f:73:43:8d:ec:2c:6e:ff:8e:
                    6e:f0:ec:39:7e:9a:10:77:78:af:8b:b3:b5:9f:49:
                    aa:61:44:d6:cf:c1:37:02:0e:30:fa:27:4b:6c:b4:
                    27:60:48:79:30:f2:be:58:86:1a:03:cf:19:07:dd:
                    18:a8:ac:13:f4:d8:42:61:22:4e:5e:d6:4d:16:87:
                    c1:4c:0b:d0:fa:b3:e5:8c:5b
                Exponent: 65537 (0x10001)
        X509v3 extensions:
            X509v3 Subject Alternative Name: 
            email:shilpa@oracle.com
            X509v3 Basic Constraints: critical
            CA:FALSE
            X509v3 Authority Key Identifier: 
            keyid:DB:F8:6A:15:0A:82:53:1F:C2:EB:CC:D0:6E:83:72:57:E4:45:F2:74

            X509v3 Extended Key Usage: 
            TLS Web Client Authentication, E-mail Protection
    Signature Algorithm: md5WithRSAEncryption
        27:ba:65:b5:cd:cf:e4:0a:3e:a7:32:bf:1a:89:3c:ee:3a:bf:
        0f:d6:a6:eb:a9:a1:9f:1c:91:ab:44:69:13:01:5a:9e:bb:2c:
        6b:25:33:3d:8a:c7:c3:8d:da:6f:83:de:26:f0:e5:e6:de:ac:
        22:8f:77:e6:2d:29:26:2d:06:b9:2e:28:59:57:3f:a1:e3:b8:
        4b:b3:b4:6d:12:39:50:09:2a:ce:35:24:c5:a4:5f:64:40:7b:
        0e:d5:c5:5b:bc:e9:2d:cc:65:aa:98:a6:c4:74:67:17:96:0c:
        3a:bd:24:e8:4b:71:fa:2d:63:d4:03:29:9a:0a:78:a4:47:29:
        ac:c3
-----BEGIN CERTIFICATE-----
MIIClTCCAf6gAwIBAgICALYwDQYJKoZIhvcNAQEEBQAwfTELMAkGA1UEBhMCTVkx
DTALBgNVBAgTBE1BSEExDTALBgNVBAcTBFBVTkUxDTALBgNVBAoTBFBTUEwxETAP
BgNVBAsTCE9CTElYLVFBMQ8wDQYDVQQDEwZwczI0MzYxHTAbBgkqhkiG9w0BCQEW
DnNhZ2FyQHBzcGwuY29tMB4XDTExMDIwMjEwNDMwOFoXDTEyMDIwMjEwNDMwOFow
MzEPMA0GA1UEAxMGc2hpbHBhMSAwHgYJKoZIhvcNAQkBFhFzaGlscGFAb3JhY2xl
LmNvbTCBnzANBgkqhkiG9w0BAQEFAAOBjQAwgYkCgYEAvIpoY9gNgi5Iwil35oWB
0Yb2XY1AKIZupKtu6LOtE3VBYZgyQ3oxPKiOMc9NHnJtdQGfc0ON7Cxu/45u8Ow5
fpoQd3ivi7O1n0mqYUTWz8E3Ag4w+idLbLQnYEh5MPK+WIYaA88ZB90YqKwT9NhC
YSJOXtZNFofBTAvQ+rPljFsCAwEAAaNuMGwwHAYDVR0RBBUwE4ERc2hpbHBhQG9y
YWNsZS5jb20wDAYDVR0TAQH/BAIwADAfBgNVHSMEGDAWgBTb+GoVCoJTH8LrzNBu
g3JX5EXydDAdBgNVHSUEFjAUBggrBgEFBQcDAgYIKwYBBQUHAwQwDQYJKoZIhvcN
AQEEBQADgYEAJ7pltc3P5Ao+pzK/Gok87jq/D9am66mhnxyRq0RpEwFanrssayUz
PYrHw43ab4PeJvDl5t6sIo935i0pJi0GuS4oWVc/oeO4S7O0bRI5UAkqzjUkxaRf
ZEB7DtXFW7zpLcxlqpimxHRnF5YMOr0k6Etx+i1j1AMpmgp4pEcprMM=
-----END CERTIFICATE-----
