Certificate:
    Data:
        Version: 3 (0x2)
        Serial Number: 183 (0xb7)
        Signature Algorithm: md5WithRSAEncryption
        Issuer: C=MY, ST=MAHA, L=PUNE, O=PSPL, OU=OBLIX-QA, CN=ps2436/emailAddress=sagar@pspl.com
        Validity
            Not Before: Feb  3 13:30:28 2011 GMT
            Not After : Feb  3 13:30:28 2012 GMT
        Subject: C=US, O=company, CN=sagar
        Subject Public Key Info:
            Public Key Algorithm: rsaEncryption
            RSA Public Key: (1024 bit)
                Modulus (1024 bit):
                    00:c1:8b:8c:06:95:6d:c9:0e:bd:06:ac:db:7e:e4:
                    df:d6:99:d7:f5:7e:97:5c:b0:5d:7d:62:0c:4a:48:
                    d6:e7:02:06:b5:7b:10:ae:68:c4:05:0e:77:b4:be:
                    a8:2a:14:4c:86:bc:fe:84:ad:a8:40:54:cb:51:c4:
                    74:87:df:b0:fa:96:bb:52:d3:5b:fa:83:19:19:45:
                    93:3b:42:57:57:c5:2f:78:9e:03:d6:b2:14:0f:84:
                    87:a1:83:10:3a:33:1d:58:dc:8c:86:bd:b8:e5:34:
                    2d:08:da:dd:72:55:6a:5a:79:95:1f:81:7d:de:d8:
                    8c:4e:db:19:fd:fc:d2:34:31
                Exponent: 65537 (0x10001)
        X509v3 extensions:
            X509v3 Authority Key Identifier: 
            keyid:DB:F8:6A:15:0A:82:53:1F:C2:EB:CC:D0:6E:83:72:57:E4:45:F2:74

            X509v3 Extended Key Usage: 
            TLS Web Server Authentication, TLS Web Client Authentication, Microsoft Server Gated Crypto, Netscape Server Gated Crypto
            X509v3 Basic Constraints: critical
            CA:FALSE
    Signature Algorithm: md5WithRSAEncryption
        a7:21:47:4d:a2:59:b2:8b:eb:2c:12:27:b1:37:2f:53:d1:46:
        a4:4a:d2:a5:a9:35:82:22:ae:98:23:72:f2:3c:5d:3f:3c:ed:
        f3:c6:2e:6f:e4:0c:28:a4:90:9f:9c:c2:cf:8f:67:2a:9b:04:
        23:79:44:bc:52:25:a3:ff:fa:58:52:76:37:0f:c0:b6:eb:8f:
        cf:f8:c9:d9:7e:5a:16:1f:6f:63:3e:bb:55:b1:df:63:cf:07:
        ca:43:02:b8:6a:96:09:75:30:74:d3:62:0f:55:83:5d:a2:d6:
        43:4e:6f:88:d4:d7:d8:31:ef:29:48:fb:3e:fe:89:de:f7:ff:
        73:c4
-----BEGIN CERTIFICATE-----
MIICijCCAfOgAwIBAgICALcwDQYJKoZIhvcNAQEEBQAwfTELMAkGA1UEBhMCTVkx
DTALBgNVBAgTBE1BSEExDTALBgNVBAcTBFBVTkUxDTALBgNVBAoTBFBTUEwxETAP
BgNVBAsTCE9CTElYLVFBMQ8wDQYDVQQDEwZwczI0MzYxHTAbBgkqhkiG9w0BCQEW
DnNhZ2FyQHBzcGwuY29tMB4XDTExMDIwMzEzMzAyOFoXDTEyMDIwMzEzMzAyOFow
LzELMAkGA1UEBhMCVVMxEDAOBgNVBAoTB2NvbXBhbnkxDjAMBgNVBAMTBXNhZ2Fy
MIGfMA0GCSqGSIb3DQEBAQUAA4GNADCBiQKBgQDBi4wGlW3JDr0GrNt+5N/Wmdf1
fpdcsF19YgxKSNbnAga1exCuaMQFDne0vqgqFEyGvP6ErahAVMtRxHSH37D6lrtS
01v6gxkZRZM7QldXxS94ngPWshQPhIehgxA6Mx1Y3IyGvbjlNC0I2t1yVWpaeZUf
gX3e2IxO2xn9/NI0MQIDAQABo2cwZTAfBgNVHSMEGDAWgBTb+GoVCoJTH8LrzNBu
g3JX5EXydDA0BgNVHSUELTArBggrBgEFBQcDAQYIKwYBBQUHAwIGCisGAQQBgjcK
AwMGCWCGSAGG+EIEATAMBgNVHRMBAf8EAjAAMA0GCSqGSIb3DQEBBAUAA4GBAKch
R02iWbKL6ywSJ7E3L1PRRqRK0qWpNYIirpgjcvI8XT887fPGLm/kDCikkJ+cws+P
ZyqbBCN5RLxSJaP/+lhSdjcPwLbrj8/4ydl+WhYfb2M+u1Wx32PPB8pDArhqlgl1
MHTTYg9Vg12i1kNOb4jU19gx7ylI+z7+id73/3PE
-----END CERTIFICATE-----
