Certificate:
    Data:
        Version: 3 (0x2)
        Serial Number: 184 (0xb8)
        Signature Algorithm: md5WithRSAEncryption
        Issuer: C=MY, ST=MAHA, L=PUNE, O=PSPL, OU=OBLIX-QA, CN=ps2436/emailAddress=sagar@pspl.com
        Validity
            Not Before: Feb  3 14:26:34 2011 GMT
            Not After : Feb  3 14:26:34 2012 GMT
        Subject: C=US, O=company, CN=amol
        Subject Public Key Info:
            Public Key Algorithm: rsaEncryption
            RSA Public Key: (1024 bit)
                Modulus (1024 bit):
                    00:de:9b:84:a5:ba:fa:a9:d6:3c:08:45:e9:2b:8f:
                    70:47:a5:14:df:c8:0c:88:8c:c3:c6:64:cc:da:e9:
                    99:b4:bf:eb:c5:fe:fe:bc:a5:5d:ca:0e:16:f4:d1:
                    a5:d7:6d:87:80:fe:88:82:a9:65:ba:d1:c3:37:2a:
                    65:f6:e7:f8:a4:65:ce:ba:df:3b:35:80:3a:b9:fe:
                    07:4a:d6:d4:9e:c6:d0:74:ca:5b:f0:10:f0:ac:4f:
                    a2:b5:54:b8:d2:be:3e:55:3f:a5:ef:79:86:b2:8f:
                    6c:44:32:6a:c4:ac:55:77:d4:86:07:e2:5e:95:8a:
                    eb:c1:58:c8:34:0a:10:f8:87
                Exponent: 65537 (0x10001)
        X509v3 extensions:
            X509v3 Authority Key Identifier: 
            keyid:DB:F8:6A:15:0A:82:53:1F:C2:EB:CC:D0:6E:83:72:57:E4:45:F2:74

            X509v3 Extended Key Usage: 
            TLS Web Server Authentication, TLS Web Client Authentication, Microsoft Server Gated Crypto, Netscape Server Gated Crypto
            X509v3 Basic Constraints: critical
            CA:FALSE
    Signature Algorithm: md5WithRSAEncryption
        40:4d:7b:9f:90:a8:b0:30:f9:2f:15:26:fe:ec:4c:8c:4f:26:
        29:66:7e:f9:a2:29:e2:d6:70:60:41:be:4d:d6:cf:85:6e:96:
        7e:6a:ff:9c:cc:60:79:69:0c:34:20:02:f1:50:c2:af:e8:e4:
        65:db:53:eb:c7:f2:15:d7:33:e7:5d:a0:aa:40:d4:fc:94:32:
        53:0c:4b:73:e4:f9:0d:a8:98:bb:aa:07:a5:5f:7b:1f:c5:15:
        df:ca:78:fd:b6:be:09:e8:20:b4:9a:ac:39:7c:8f:96:9a:3b:
        a0:82:d0:68:9c:aa:01:18:57:b0:7d:b6:6a:f0:c7:47:42:40:
        fc:a0
-----BEGIN CERTIFICATE-----
MIICiTCCAfKgAwIBAgICALgwDQYJKoZIhvcNAQEEBQAwfTELMAkGA1UEBhMCTVkx
DTALBgNVBAgTBE1BSEExDTALBgNVBAcTBFBVTkUxDTALBgNVBAoTBFBTUEwxETAP
BgNVBAsTCE9CTElYLVFBMQ8wDQYDVQQDEwZwczI0MzYxHTAbBgkqhkiG9w0BCQEW
DnNhZ2FyQHBzcGwuY29tMB4XDTExMDIwMzE0MjYzNFoXDTEyMDIwMzE0MjYzNFow
LjELMAkGA1UEBhMCVVMxEDAOBgNVBAoTB2NvbXBhbnkxDTALBgNVBAMTBGFtb2ww
gZ8wDQYJKoZIhvcNAQEBBQADgY0AMIGJAoGBAN6bhKW6+qnWPAhF6SuPcEelFN/I
DIiMw8ZkzNrpmbS/68X+/rylXcoOFvTRpddth4D+iIKpZbrRwzcqZfbn+KRlzrrf
OzWAOrn+B0rW1J7G0HTKW/AQ8KxPorVUuNK+PlU/pe95hrKPbEQyasSsVXfUhgfi
XpWK68FYyDQKEPiHAgMBAAGjZzBlMB8GA1UdIwQYMBaAFNv4ahUKglMfwuvM0G6D
clfkRfJ0MDQGA1UdJQQtMCsGCCsGAQUFBwMBBggrBgEFBQcDAgYKKwYBBAGCNwoD
AwYJYIZIAYb4QgQBMAwGA1UdEwEB/wQCMAAwDQYJKoZIhvcNAQEEBQADgYEAQE17
n5CosDD5LxUm/uxMjE8mKWZ++aIp4tZwYEG+TdbPhW6Wfmr/nMxgeWkMNCAC8VDC
r+jkZdtT68fyFdcz512gqkDU/JQyUwxLc+T5DaiYu6oHpV97H8UV38p4/ba+Cegg
tJqsOXyPlpo7oILQaJyqARhXsH22avDHR0JA/KA=
-----END CERTIFICATE-----
