Certificate:
    Data:
        Version: 3 (0x2)
        Serial Number: 185 (0xb9)
        Signature Algorithm: md5WithRSAEncryption
        Issuer: C=MY, ST=MAHA, L=PUNE, O=PSPL, OU=OBLIX-QA, CN=ps2436/emailAddress=sagar@pspl.com
        Validity
            Not Before: Feb  4 10:22:52 2011 GMT
            Not After : Feb  4 10:22:52 2012 GMT
        Subject: C=us, O=company, CN=alok
        Subject Public Key Info:
            Public Key Algorithm: rsaEncryption
            RSA Public Key: (1024 bit)
                Modulus (1024 bit):
                    00:d1:fd:49:9c:f3:07:bd:68:bd:60:a0:1a:5a:12:
                    fc:21:ce:9b:aa:80:ec:0e:ca:50:e8:c6:aa:fd:09:
                    89:f0:d7:dc:c8:1a:2c:43:40:f5:54:0b:f0:0b:b7:
                    45:cf:ce:fd:96:95:e3:99:69:3d:27:53:b3:10:aa:
                    f0:37:60:4c:36:f7:81:8d:a6:9a:0c:4a:d9:23:db:
                    7c:10:3b:2c:58:da:fb:10:d9:51:29:7b:1b:8a:81:
                    15:5f:78:19:a8:e8:64:68:5e:cc:1f:23:bf:21:00:
                    30:9f:82:b8:54:1e:ba:ff:83:7e:8e:37:40:8c:0e:
                    d8:d9:79:42:49:75:48:45:93
                Exponent: 65537 (0x10001)
        X509v3 extensions:
            X509v3 Authority Key Identifier: 
            keyid:DB:F8:6A:15:0A:82:53:1F:C2:EB:CC:D0:6E:83:72:57:E4:45:F2:74

            X509v3 Extended Key Usage: 
            TLS Web Server Authentication, TLS Web Client Authentication, Microsoft Server Gated Crypto, Netscape Server Gated Crypto
            X509v3 Basic Constraints: critical
            CA:FALSE
    Signature Algorithm: md5WithRSAEncryption
        9b:ef:7f:3c:00:60:34:17:dd:d8:38:2c:99:8a:23:50:5b:10:
        ea:ff:6b:07:bc:79:b8:d3:64:ff:c0:78:9b:ef:9b:b4:d7:a9:
        99:e9:86:48:1e:a2:d0:7c:a9:79:b6:f7:57:8e:f0:e5:42:c6:
        15:fe:3d:ee:1e:51:16:f3:ee:5a:4a:90:c7:e0:41:76:11:29:
        7d:91:2d:7c:90:b9:f9:3f:ec:6d:54:40:eb:61:32:c0:d9:2c:
        a0:a7:bc:5a:7f:a1:62:a4:7b:52:80:f4:9c:0f:aa:01:c5:9f:
        3f:23:1b:f0:c3:7e:1f:21:c7:f1:ab:ae:0a:40:09:7a:20:32:
        6f:69
-----BEGIN CERTIFICATE-----
MIICiTCCAfKgAwIBAgICALkwDQYJKoZIhvcNAQEEBQAwfTELMAkGA1UEBhMCTVkx
DTALBgNVBAgTBE1BSEExDTALBgNVBAcTBFBVTkUxDTALBgNVBAoTBFBTUEwxETAP
BgNVBAsTCE9CTElYLVFBMQ8wDQYDVQQDEwZwczI0MzYxHTAbBgkqhkiG9w0BCQEW
DnNhZ2FyQHBzcGwuY29tMB4XDTExMDIwNDEwMjI1MloXDTEyMDIwNDEwMjI1Mlow
LjELMAkGA1UEBhMCdXMxEDAOBgNVBAoTB2NvbXBhbnkxDTALBgNVBAMTBGFsb2sw
gZ8wDQYJKoZIhvcNAQEBBQADgY0AMIGJAoGBANH9SZzzB71ovWCgGloS/CHOm6qA
7A7KUOjGqv0JifDX3MgaLENA9VQL8Au3Rc/O/ZaV45lpPSdTsxCq8DdgTDb3gY2m
mgxK2SPbfBA7LFja+xDZUSl7G4qBFV94GajoZGhezB8jvyEAMJ+CuFQeuv+Dfo43
QIwO2Nl5Qkl1SEWTAgMBAAGjZzBlMB8GA1UdIwQYMBaAFNv4ahUKglMfwuvM0G6D
clfkRfJ0MDQGA1UdJQQtMCsGCCsGAQUFBwMBBggrBgEFBQcDAgYKKwYBBAGCNwoD
AwYJYIZIAYb4QgQBMAwGA1UdEwEB/wQCMAAwDQYJKoZIhvcNAQEEBQADgYEAm+9/
PABgNBfd2DgsmYojUFsQ6v9rB7x5uNNk/8B4m++btNepmemGSB6i0Hypebb3V47w
5ULGFf497h5RFvPuWkqQx+BBdhEpfZEtfJC5+T/sbVRA62EywNksoKe8Wn+hYqR7
UoD0nA+qAcWfPyMb8MN+HyHH8auuCkAJeiAyb2k=
-----END CERTIFICATE-----
