Certificate:
    Data:
        Version: 3 (0x2)
        Serial Number: 186 (0xba)
        Signature Algorithm: md5WithRSAEncryption
        Issuer: C=MY, ST=MAHA, L=PUNE, O=PSPL, OU=OBLIX-QA, CN=ps2436/emailAddress=sagar@pspl.com
        Validity
            Not Before: Feb 11 14:17:38 2011 GMT
            Not After : Feb 11 14:17:38 2012 GMT
        Subject: CN=pem/emailAddress=pem@pem.com
        Subject Public Key Info:
            Public Key Algorithm: rsaEncryption
            RSA Public Key: (1024 bit)
                Modulus (1024 bit):
                    00:d4:6d:2f:79:8b:d9:88:7e:5d:17:51:7e:6a:e4:
                    41:93:01:25:cb:78:dc:82:5b:d4:e9:fa:df:07:77:
                    c4:74:50:29:aa:2e:de:c6:73:61:6f:8a:c1:da:fe:
                    29:5d:fa:80:6d:52:15:56:b3:02:ad:24:f9:01:18:
                    12:69:be:06:c3:41:d7:8c:d7:01:68:ad:6e:87:0b:
                    58:65:9b:47:ee:04:31:c5:f7:c9:f1:fb:53:49:2e:
                    e4:c6:7b:5d:f1:3d:a4:e8:01:eb:95:92:61:dd:be:
                    ed:db:9e:62:ec:f1:aa:c1:2f:fb:e1:02:f9:59:24:
                    8d:22:e8:9a:7e:85:7e:9e:47
                Exponent: 65537 (0x10001)
        X509v3 extensions:
            X509v3 Subject Alternative Name: 
            email:pem@pem.com
            X509v3 Basic Constraints: critical
            CA:FALSE
            X509v3 Authority Key Identifier: 
            keyid:DB:F8:6A:15:0A:82:53:1F:C2:EB:CC:D0:6E:83:72:57:E4:45:F2:74

            X509v3 Extended Key Usage: 
            TLS Web Client Authentication, E-mail Protection
    Signature Algorithm: md5WithRSAEncryption
        71:9b:aa:77:f7:90:94:c7:8f:96:fe:2d:a8:41:c6:7f:33:2c:
        42:ea:57:2b:0a:c6:5e:0c:29:bd:ea:0c:ce:8d:a7:64:f3:87:
        9e:dc:be:6b:f2:20:29:a7:a2:42:ff:63:f1:00:f2:81:c8:2a:
        89:2a:2d:a3:ba:75:22:11:ff:25:3f:f8:72:63:dd:da:79:3e:
        24:5f:f0:d3:42:80:71:d3:6e:82:5a:0e:3a:66:85:ea:62:8e:
        8d:be:c9:0e:a0:82:08:66:30:6d:3a:f9:08:95:3d:40:00:9d:
        83:1c:9a:b2:64:97:89:fe:b7:8e:7b:17:8d:67:e1:10:29:b4:
        bc:7c
-----BEGIN CERTIFICATE-----
MIIChjCCAe+gAwIBAgICALowDQYJKoZIhvcNAQEEBQAwfTELMAkGA1UEBhMCTVkx
DTALBgNVBAgTBE1BSEExDTALBgNVBAcTBFBVTkUxDTALBgNVBAoTBFBTUEwxETAP
BgNVBAsTCE9CTElYLVFBMQ8wDQYDVQQDEwZwczI0MzYxHTAbBgkqhkiG9w0BCQEW
DnNhZ2FyQHBzcGwuY29tMB4XDTExMDIxMTE0MTczOFoXDTEyMDIxMTE0MTczOFow
KjEMMAoGA1UEAxMDcGVtMRowGAYJKoZIhvcNAQkBFgtwZW1AcGVtLmNvbTCBnzAN
BgkqhkiG9w0BAQEFAAOBjQAwgYkCgYEA1G0veYvZiH5dF1F+auRBkwEly3jcglvU
6frfB3fEdFApqi7exnNhb4rB2v4pXfqAbVIVVrMCrST5ARgSab4Gw0HXjNcBaK1u
hwtYZZtH7gQxxffJ8ftTSS7kxntd8T2k6AHrlZJh3b7t255i7PGqwS/74QL5WSSN
IuiafoV+nkcCAwEAAaNoMGYwFgYDVR0RBA8wDYELcGVtQHBlbS5jb20wDAYDVR0T
AQH/BAIwADAfBgNVHSMEGDAWgBTb+GoVCoJTH8LrzNBug3JX5EXydDAdBgNVHSUE
FjAUBggrBgEFBQcDAgYIKwYBBQUHAwQwDQYJKoZIhvcNAQEEBQADgYEAcZuqd/eQ
lMePlv4tqEHGfzMsQupXKwrGXgwpveoMzo2nZPOHnty+a/IgKaeiQv9j8QDygcgq
iSoto7p1IhH/JT/4cmPd2nk+JF/w00KAcdNugloOOmaF6mKOjb7JDqCCCGYwbTr5
CJU9QACdgxyasmSXif63jnsXjWfhECm0vHw=
-----END CERTIFICATE-----
