Certificate:
    Data:
        Version: 3 (0x2)
        Serial Number: 187 (0xbb)
        Signature Algorithm: md5WithRSAEncryption
        Issuer: C=MY, ST=MAHA, L=PUNE, O=PSPL, OU=OBLIX-QA, CN=ps2436/emailAddress=sagar@pspl.com
        Validity
            Not Before: Jul 25 05:32:46 2014 GMT
            Not After : Jul 25 05:32:46 2015 GMT
        Subject: C=IN, ST=KA, L=BLR, O=Oracle, OU=IDM, CN=slc08fte.us.oracle.com/emailAddress=server@oracle.com
        Subject Public Key Info:
            Public Key Algorithm: rsaEncryption
            RSA Public Key: (1024 bit)
                Modulus (1024 bit):
                    00:e2:42:79:85:09:38:23:f2:b3:99:8f:95:2c:a8:
                    50:31:51:d3:a6:c8:4d:68:73:cb:72:4a:88:32:74:
                    8b:f1:74:78:db:03:96:9e:97:f4:6d:d4:86:d4:84:
                    d6:21:73:96:f0:f5:34:dc:ff:20:f3:7d:79:9c:2e:
                    5f:1b:15:9e:90:49:88:c4:d9:9d:a8:af:8a:e7:52:
                    6b:51:e4:33:ec:49:d7:cf:35:a7:c3:74:fa:fb:9f:
                    cc:3e:a8:f0:70:6c:20:bb:ce:38:25:15:c9:37:d6:
                    6a:78:70:91:ef:46:c3:ea:83:20:fe:2f:dd:8b:15:
                    70:26:d6:b8:8b:52:8b:e8:41
                Exponent: 65537 (0x10001)
        X509v3 extensions:
            X509v3 Authority Key Identifier: 
                keyid:DB:F8:6A:15:0A:82:53:1F:C2:EB:CC:D0:6E:83:72:57:E4:45:F2:74

            X509v3 Extended Key Usage: 
                TLS Web Server Authentication, TLS Web Client Authentication, Microsoft Server Gated Crypto, Netscape Server Gated Crypto
            X509v3 Basic Constraints: critical
                CA:FALSE
    Signature Algorithm: md5WithRSAEncryption
        25:df:06:c8:78:d9:42:c1:50:53:11:1a:0e:b6:67:28:8c:09:
        ab:82:cc:03:a9:d8:9a:b8:26:60:37:c6:71:dd:18:02:e9:e6:
        fd:94:e2:f6:3f:cd:75:c6:03:4f:56:3a:c4:a2:11:4f:55:21:
        68:2f:2f:b6:67:16:64:0f:21:08:30:b1:68:ff:84:8f:06:b1:
        e0:c4:37:83:01:66:0b:ef:b9:4e:58:66:ff:42:f5:8c:d4:76:
        6f:54:6a:1e:0d:af:4e:c6:34:5d:88:b1:e1:bb:e1:b1:a3:4b:
        cd:4f:70:68:e9:8d:f3:b2:e8:54:4e:c7:d3:9e:19:99:ce:45:
        42:c1
-----BEGIN CERTIFICATE-----
MIIC5jCCAk+gAwIBAgICALswDQYJKoZIhvcNAQEEBQAwfTELMAkGA1UEBhMCTVkx
DTALBgNVBAgTBE1BSEExDTALBgNVBAcTBFBVTkUxDTALBgNVBAoTBFBTUEwxETAP
BgNVBAsTCE9CTElYLVFBMQ8wDQYDVQQDEwZwczI0MzYxHTAbBgkqhkiG9w0BCQEW
DnNhZ2FyQHBzcGwuY29tMB4XDTE0MDcyNTA1MzI0NloXDTE1MDcyNTA1MzI0Nlow
gYoxCzAJBgNVBAYTAklOMQswCQYDVQQIEwJLQTEMMAoGA1UEBxMDQkxSMQ8wDQYD
VQQKEwZPcmFjbGUxDDAKBgNVBAsTA0lETTEfMB0GA1UEAxMWc2xjMDhmdGUudXMu
b3JhY2xlLmNvbTEgMB4GCSqGSIb3DQEJARYRc2VydmVyQG9yYWNsZS5jb20wgZ8w
DQYJKoZIhvcNAQEBBQADgY0AMIGJAoGBAOJCeYUJOCPys5mPlSyoUDFR06bITWhz
y3JKiDJ0i/F0eNsDlp6X9G3UhtSE1iFzlvD1NNz/IPN9eZwuXxsVnpBJiMTZnaiv
iudSa1HkM+xJ1881p8N0+vufzD6o8HBsILvOOCUVyTfWanhwke9Gw+qDIP4v3YsV
cCbWuItSi+hBAgMBAAGjZzBlMB8GA1UdIwQYMBaAFNv4ahUKglMfwuvM0G6Dclfk
RfJ0MDQGA1UdJQQtMCsGCCsGAQUFBwMBBggrBgEFBQcDAgYKKwYBBAGCNwoDAwYJ
YIZIAYb4QgQBMAwGA1UdEwEB/wQCMAAwDQYJKoZIhvcNAQEEBQADgYEAJd8GyHjZ
QsFQUxEaDrZnKIwJq4LMA6nYmrgmYDfGcd0YAunm/ZTi9j/NdcYDT1Y6xKIRT1Uh
aC8vtmcWZA8hCDCxaP+Ejwax4MQ3gwFmC++5Tlhm/0L1jNR2b1RqHg2vTsY0XYix
4bvhsaNLzU9waOmN87LoVE7H054Zmc5FQsE=
-----END CERTIFICATE-----
