Certificate:
    Data:
        Version: 3 (0x2)
        Serial Number: 188 (0xbc)
        Signature Algorithm: md5WithRSAEncryption
        Issuer: C=MY, ST=MAHA, L=PUNE, O=PSPL, OU=OBLIX-QA, CN=ps2436/emailAddress=sagar@pspl.com
        Validity
            Not Before: Jul 25 05:34:43 2014 GMT
            Not After : Jul 25 05:34:43 2015 GMT
        Subject: CN=lower/emailAddress=lower@oracle.com
        Subject Public Key Info:
            Public Key Algorithm: rsaEncryption
            RSA Public Key: (1024 bit)
                Modulus (1024 bit):
                    00:c4:4b:fb:4a:e6:26:78:8f:f5:18:5f:a7:1d:ae:
                    b9:51:b8:38:9e:fa:6c:c5:2d:fa:cf:aa:e0:cd:4e:
                    0d:d0:f3:9d:8a:e2:dd:af:9a:c5:6b:05:ce:8c:86:
                    98:29:f1:60:59:dd:a5:87:dc:f5:9d:52:eb:53:b7:
                    ab:36:33:b6:a1:c6:d1:8f:ed:a6:47:25:68:cf:68:
                    fd:39:b2:5b:04:bd:05:d5:88:f1:92:6e:12:01:ec:
                    21:3a:05:f2:ae:12:42:e7:99:2d:a3:a5:2d:a9:b0:
                    0e:00:95:d1:61:e7:fc:59:d0:ae:67:96:f7:61:c5:
                    2d:42:ce:dc:1f:4a:b3:72:9d
                Exponent: 65537 (0x10001)
        X509v3 extensions:
            X509v3 Subject Alternative Name: 
                email:lower@oracle.com
            X509v3 Basic Constraints: critical
                CA:FALSE
            X509v3 Authority Key Identifier: 
                keyid:DB:F8:6A:15:0A:82:53:1F:C2:EB:CC:D0:6E:83:72:57:E4:45:F2:74

            X509v3 Extended Key Usage: 
                TLS Web Client Authentication, E-mail Protection
    Signature Algorithm: md5WithRSAEncryption
        98:91:4b:f4:02:b6:23:99:60:8c:16:50:1b:03:2f:e9:20:a9:
        fe:45:59:23:34:20:c7:ff:4d:7c:27:a3:88:48:99:57:86:2f:
        77:67:6d:96:35:96:87:ea:63:6e:04:11:53:17:76:9a:73:b0:
        d5:f0:b6:16:14:be:dd:a3:b3:e4:da:cd:c1:01:bd:de:59:02:
        c8:21:18:e8:57:0a:e6:bc:3f:71:0e:3d:3a:f1:4f:1a:a5:f2:
        ff:e1:cc:90:4b:af:79:93:df:3c:3f:b8:99:3c:95:58:28:32:
        ef:77:eb:a1:38:87:de:c4:a2:f3:70:58:73:12:0d:aa:1b:05:
        94:32
-----BEGIN CERTIFICATE-----
MIICkjCCAfugAwIBAgICALwwDQYJKoZIhvcNAQEEBQAwfTELMAkGA1UEBhMCTVkx
DTALBgNVBAgTBE1BSEExDTALBgNVBAcTBFBVTkUxDTALBgNVBAoTBFBTUEwxETAP
BgNVBAsTCE9CTElYLVFBMQ8wDQYDVQQDEwZwczI0MzYxHTAbBgkqhkiG9w0BCQEW
DnNhZ2FyQHBzcGwuY29tMB4XDTE0MDcyNTA1MzQ0M1oXDTE1MDcyNTA1MzQ0M1ow
MTEOMAwGA1UEAxMFbG93ZXIxHzAdBgkqhkiG9w0BCQEWEGxvd2VyQG9yYWNsZS5j
b20wgZ8wDQYJKoZIhvcNAQEBBQADgY0AMIGJAoGBAMRL+0rmJniP9Rhfpx2uuVG4
OJ76bMUt+s+q4M1ODdDznYri3a+axWsFzoyGmCnxYFndpYfc9Z1S61O3qzYztqHG
0Y/tpkclaM9o/TmyWwS9BdWI8ZJuEgHsIToF8q4SQueZLaOlLamwDgCV0WHn/FnQ
rmeW92HFLULO3B9Ks3KdAgMBAAGjbTBrMBsGA1UdEQQUMBKBEGxvd2VyQG9yYWNs
ZS5jb20wDAYDVR0TAQH/BAIwADAfBgNVHSMEGDAWgBTb+GoVCoJTH8LrzNBug3JX
5EXydDAdBgNVHSUEFjAUBggrBgEFBQcDAgYIKwYBBQUHAwQwDQYJKoZIhvcNAQEE
BQADgYEAmJFL9AK2I5lgjBZQGwMv6SCp/kVZIzQgx/9NfCejiEiZV4Yvd2dtljWW
h+pjbgQRUxd2mnOw1fC2FhS+3aOz5NrNwQG93lkCyCEY6FcK5rw/cQ49OvFPGqXy
/+HMkEuveZPfPD+4mTyVWCgy73froTiH3sSi83BYcxINqhsFlDI=
-----END CERTIFICATE-----
