Certificate:
    Data:
        Version: 3 (0x2)
        Serial Number: 189 (0xbd)
        Signature Algorithm: md5WithRSAEncryption
        Issuer: C=MY, ST=MAHA, L=PUNE, O=PSPL, OU=OBLIX-QA, CN=ps2436/emailAddress=sagar@pspl.com
        Validity
            Not Before: Jul 25 05:35:35 2014 GMT
            Not After : Jul 25 05:35:35 2015 GMT
        Subject: CN=mayank/emailAddress=mayank@oracle.com
        Subject Public Key Info:
            Public Key Algorithm: rsaEncryption
            RSA Public Key: (1024 bit)
                Modulus (1024 bit):
                    00:bc:5c:dd:4b:ee:23:1f:f1:3f:15:d5:95:70:98:
                    4a:89:6c:a3:a1:ba:f6:5b:3b:1b:0e:14:5b:ee:cc:
                    e8:71:90:81:69:69:7a:54:2d:43:f0:6a:9c:1f:22:
                    2e:80:70:18:df:29:30:fb:b6:a2:b9:f4:bc:d4:ae:
                    74:c2:6c:22:15:06:d8:f3:95:48:4b:0b:d6:ef:f9:
                    28:5f:95:9a:e0:a2:b9:8e:13:c1:50:7b:1a:15:c5:
                    42:5b:c9:3a:e9:71:bc:33:ef:80:a6:10:10:d4:5e:
                    0f:70:fa:c3:56:d6:9f:73:b3:b6:84:03:8d:a8:c8:
                    38:45:ff:ad:c7:5e:99:3a:c9
                Exponent: 65537 (0x10001)
        X509v3 extensions:
            X509v3 Subject Alternative Name: 
                email:mayank@oracle.com
            X509v3 Basic Constraints: critical
                CA:FALSE
            X509v3 Authority Key Identifier: 
                keyid:DB:F8:6A:15:0A:82:53:1F:C2:EB:CC:D0:6E:83:72:57:E4:45:F2:74

            X509v3 Extended Key Usage: 
                TLS Web Client Authentication, E-mail Protection
    Signature Algorithm: md5WithRSAEncryption
        be:78:c4:7a:a9:2e:8c:d3:83:fb:b0:06:de:32:86:ed:91:f1:
        55:d7:eb:20:f8:fd:2f:c5:c9:14:93:44:fc:24:51:f6:17:d9:
        02:75:44:4d:09:57:16:14:19:28:fb:d2:85:a1:97:07:48:b6:
        2e:61:87:34:74:9f:de:9b:85:91:d9:64:f6:00:de:fe:0d:a7:
        11:50:ae:90:83:b4:8f:5d:2f:36:83:a6:81:82:b2:8d:13:3a:
        51:b6:26:f2:b1:cc:0d:b3:be:c0:6f:5b:e9:7c:db:cc:33:ce:
        88:ba:73:4c:bc:e3:d8:21:d6:79:66:e5:b1:44:de:e4:5d:63:
        cb:14
-----BEGIN CERTIFICATE-----
MIIClTCCAf6gAwIBAgICAL0wDQYJKoZIhvcNAQEEBQAwfTELMAkGA1UEBhMCTVkx
DTALBgNVBAgTBE1BSEExDTALBgNVBAcTBFBVTkUxDTALBgNVBAoTBFBTUEwxETAP
BgNVBAsTCE9CTElYLVFBMQ8wDQYDVQQDEwZwczI0MzYxHTAbBgkqhkiG9w0BCQEW
DnNhZ2FyQHBzcGwuY29tMB4XDTE0MDcyNTA1MzUzNVoXDTE1MDcyNTA1MzUzNVow
MzEPMA0GA1UEAxMGbWF5YW5rMSAwHgYJKoZIhvcNAQkBFhFtYXlhbmtAb3JhY2xl
LmNvbTCBnzANBgkqhkiG9w0BAQEFAAOBjQAwgYkCgYEAvFzdS+4jH/E/FdWVcJhK
iWyjobr2WzsbDhRb7szocZCBaWl6VC1D8GqcHyIugHAY3ykw+7aiufS81K50wmwi
FQbY85VISwvW7/koX5Wa4KK5jhPBUHsaFcVCW8k66XG8M++AphAQ1F4PcPrDVtaf
c7O2hAONqMg4Rf+tx16ZOskCAwEAAaNuMGwwHAYDVR0RBBUwE4ERbWF5YW5rQG9y
YWNsZS5jb20wDAYDVR0TAQH/BAIwADAfBgNVHSMEGDAWgBTb+GoVCoJTH8LrzNBu
g3JX5EXydDAdBgNVHSUEFjAUBggrBgEFBQcDAgYIKwYBBQUHAwQwDQYJKoZIhvcN
AQEEBQADgYEAvnjEeqkujNOD+7AG3jKG7ZHxVdfrIPj9L8XJFJNE/CRR9hfZAnVE
TQlXFhQZKPvShaGXB0i2LmGHNHSf3puFkdlk9gDe/g2nEVCukIO0j10vNoOmgYKy
jRM6UbYm8rHMDbO+wG9b6XzbzDPOiLpzTLzj2CHWeWblsUTe5F1jyxQ=
-----END CERTIFICATE-----
