Certificate:
    Data:
        Version: 3 (0x2)
        Serial Number: 190 (0xbe)
        Signature Algorithm: md5WithRSAEncryption
        Issuer: C=MY, ST=MAHA, L=PUNE, O=PSPL, OU=OBLIX-QA, CN=ps2436/emailAddress=sagar@pspl.com
        Validity
            Not Before: Sep  9 14:22:07 2014 GMT
            Not After : Sep  9 14:22:07 2015 GMT
        Subject: CN=weblogic/emailAddress=weblogic@oracle.com
        Subject Public Key Info:
            Public Key Algorithm: rsaEncryption
            RSA Public Key: (1024 bit)
                Modulus (1024 bit):
                    00:d4:78:16:8d:23:8c:96:cb:a0:ca:ec:cf:32:7e:
                    ee:16:f5:b0:44:d2:75:73:18:57:95:b2:2e:3a:b7:
                    01:a1:51:24:36:63:fb:71:ea:3a:7b:78:af:18:fa:
                    62:0e:f6:22:ee:b6:a2:2b:88:d9:7b:78:ab:e8:6f:
                    0e:c3:af:1e:c8:09:e8:40:53:e5:11:91:bc:20:bb:
                    94:ca:8f:92:be:d2:6c:5d:af:72:40:e6:3b:66:b1:
                    87:d7:3e:17:02:f9:44:61:c8:bc:dd:b6:b7:95:a7:
                    b4:dd:22:d7:8a:2e:59:81:ec:c5:ab:07:7d:b0:38:
                    24:87:e3:b6:63:75:00:0d:85
                Exponent: 65537 (0x10001)
        X509v3 extensions:
            X509v3 Subject Alternative Name: 
                email:weblogic@oracle.com
            X509v3 Basic Constraints: critical
                CA:FALSE
            X509v3 Authority Key Identifier: 
                keyid:DB:F8:6A:15:0A:82:53:1F:C2:EB:CC:D0:6E:83:72:57:E4:45:F2:74

            X509v3 Extended Key Usage: 
                TLS Web Client Authentication, E-mail Protection
    Signature Algorithm: md5WithRSAEncryption
        96:07:e8:18:57:a5:ed:6b:38:58:65:c5:f5:1e:ee:dc:e0:1d:
        3d:91:47:b0:88:89:9f:2d:7a:90:11:7b:92:df:3d:95:07:7b:
        7d:2f:5a:c1:90:13:fa:93:f5:a1:ba:a9:14:a3:14:44:e5:69:
        5a:f1:ed:0f:58:4d:4d:02:60:80:fa:8d:78:5a:b8:75:25:f9:
        44:4e:3e:92:18:b1:e3:72:8e:4f:0f:00:c4:f3:68:4a:29:6f:
        cb:c0:b3:cb:29:18:ad:6c:f5:12:75:1a:32:86:c9:59:52:06:
        e6:d8:20:78:0f:f7:b8:74:0e:b8:fc:05:58:64:2a:36:94:9f:
        d2:3b
-----BEGIN CERTIFICATE-----
MIICmzCCAgSgAwIBAgICAL4wDQYJKoZIhvcNAQEEBQAwfTELMAkGA1UEBhMCTVkx
DTALBgNVBAgTBE1BSEExDTALBgNVBAcTBFBVTkUxDTALBgNVBAoTBFBTUEwxETAP
BgNVBAsTCE9CTElYLVFBMQ8wDQYDVQQDEwZwczI0MzYxHTAbBgkqhkiG9w0BCQEW
DnNhZ2FyQHBzcGwuY29tMB4XDTE0MDkwOTE0MjIwN1oXDTE1MDkwOTE0MjIwN1ow
NzERMA8GA1UEAxMId2VibG9naWMxIjAgBgkqhkiG9w0BCQEWE3dlYmxvZ2ljQG9y
YWNsZS5jb20wgZ8wDQYJKoZIhvcNAQEBBQADgY0AMIGJAoGBANR4Fo0jjJbLoMrs
zzJ+7hb1sETSdXMYV5WyLjq3AaFRJDZj+3HqOnt4rxj6Yg72Iu62oiuI2Xt4q+hv
DsOvHsgJ6EBT5RGRvCC7lMqPkr7SbF2vckDmO2axh9c+FwL5RGHIvN22t5WntN0i
14ouWYHsxasHfbA4JIfjtmN1AA2FAgMBAAGjcDBuMB4GA1UdEQQXMBWBE3dlYmxv
Z2ljQG9yYWNsZS5jb20wDAYDVR0TAQH/BAIwADAfBgNVHSMEGDAWgBTb+GoVCoJT
H8LrzNBug3JX5EXydDAdBgNVHSUEFjAUBggrBgEFBQcDAgYIKwYBBQUHAwQwDQYJ
KoZIhvcNAQEEBQADgYEAlgfoGFel7Ws4WGXF9R7u3OAdPZFHsIiJny16kBF7kt89
lQd7fS9awZAT+pP1obqpFKMUROVpWvHtD1hNTQJggPqNeFq4dSX5RE4+khix43KO
Tw8AxPNoSilvy8CzyykYrWz1EnUaMobJWVIG5tggeA/3uHQOuPwFWGQqNpSf0js=
-----END CERTIFICATE-----
