Certificate:
    Data:
        Version: 3 (0x2)
        Serial Number: 191 (0xbf)
        Signature Algorithm: md5WithRSAEncryption
        Issuer: C=MY, ST=MAHA, L=PUNE, O=PSPL, OU=OBLIX-QA, CN=ps2436/emailAddress=sagar@pspl.com
        Validity
            Not Before: Nov 17 06:35:58 2015 GMT
            Not After : Nov 16 06:35:58 2016 GMT
        Subject: C=US, ST=CA, L=Redwood, O=IDM, OU=security, CN=slc08fte.us.oracle.com/emailAddress=server@oracle.com
        Subject Public Key Info:
            Public Key Algorithm: rsaEncryption
            RSA Public Key: (1024 bit)
                Modulus (1024 bit):
                    00:da:2b:a6:f5:85:70:14:89:28:64:7b:4c:05:09:
                    3d:77:f6:32:da:25:55:9e:fc:61:7a:67:cf:ed:ea:
                    63:ba:04:55:55:04:59:aa:58:9d:49:85:de:27:35:
                    7d:6c:d9:78:4b:73:dc:7e:75:4f:6f:99:ee:2b:b4:
                    d1:f1:5c:eb:1d:c6:8b:a2:0f:ae:c4:ce:5c:a9:41:
                    95:34:9c:07:bf:61:07:fb:ac:af:b7:70:2c:18:46:
                    ea:ce:38:a8:32:0d:93:e8:59:2c:6a:c9:b5:0e:3d:
                    3c:7e:aa:b5:e2:b6:2f:7c:69:f2:56:a4:cc:ab:22:
                    43:23:ed:78:39:4e:43:3d:47
                Exponent: 65537 (0x10001)
        X509v3 extensions:
            X509v3 Authority Key Identifier: 
                keyid:DB:F8:6A:15:0A:82:53:1F:C2:EB:CC:D0:6E:83:72:57:E4:45:F2:74

            X509v3 Extended Key Usage: 
                TLS Web Server Authentication, TLS Web Client Authentication, Microsoft Server Gated Crypto, Netscape Server Gated Crypto
            X509v3 Basic Constraints: critical
                CA:FALSE
    Signature Algorithm: md5WithRSAEncryption
        8c:0e:05:cf:a4:16:1e:3a:bf:bf:60:c8:ef:9d:15:bc:e3:54:
        11:ef:21:77:15:ac:88:1b:78:80:aa:d7:29:83:e1:89:4c:28:
        77:2f:21:49:91:6b:df:63:09:41:2f:33:b8:11:a6:3b:c2:c7:
        be:cb:24:18:d5:5b:12:b9:27:6e:16:db:61:cf:9a:f9:34:8d:
        60:80:35:7d:1a:5e:86:04:11:24:8a:13:ba:30:bc:f3:9b:6e:
        88:50:47:18:00:a4:7a:f6:c4:6c:46:7a:c8:b5:4b:bb:16:98:
        bb:c0:2a:74:f6:b7:03:df:5b:4e:84:0f:67:83:c4:ae:60:66:
        7c:06
-----BEGIN CERTIFICATE-----
MIIC7DCCAlWgAwIBAgICAL8wDQYJKoZIhvcNAQEEBQAwfTELMAkGA1UEBhMCTVkx
DTALBgNVBAgTBE1BSEExDTALBgNVBAcTBFBVTkUxDTALBgNVBAoTBFBTUEwxETAP
BgNVBAsTCE9CTElYLVFBMQ8wDQYDVQQDEwZwczI0MzYxHTAbBgkqhkiG9w0BCQEW
DnNhZ2FyQHBzcGwuY29tMB4XDTE1MTExNzA2MzU1OFoXDTE2MTExNjA2MzU1OFow
gZAxCzAJBgNVBAYTAlVTMQswCQYDVQQIEwJDQTEQMA4GA1UEBxMHUmVkd29vZDEM
MAoGA1UEChMDSURNMREwDwYDVQQLEwhzZWN1cml0eTEfMB0GA1UEAxMWc2xjMDhm
dGUudXMub3JhY2xlLmNvbTEgMB4GCSqGSIb3DQEJARYRc2VydmVyQG9yYWNsZS5j
b20wgZ8wDQYJKoZIhvcNAQEBBQADgY0AMIGJAoGBANorpvWFcBSJKGR7TAUJPXf2
MtolVZ78YXpnz+3qY7oEVVUEWapYnUmF3ic1fWzZeEtz3H51T2+Z7iu00fFc6x3G
i6IPrsTOXKlBlTScB79hB/usr7dwLBhG6s44qDINk+hZLGrJtQ49PH6qteK2L3xp
8lakzKsiQyPteDlOQz1HAgMBAAGjZzBlMB8GA1UdIwQYMBaAFNv4ahUKglMfwuvM
0G6DclfkRfJ0MDQGA1UdJQQtMCsGCCsGAQUFBwMBBggrBgEFBQcDAgYKKwYBBAGC
NwoDAwYJYIZIAYb4QgQBMAwGA1UdEwEB/wQCMAAwDQYJKoZIhvcNAQEEBQADgYEA
jA4Fz6QWHjq/v2DI750VvONUEe8hdxWsiBt4gKrXKYPhiUwody8hSZFr32MJQS8z
uBGmO8LHvsskGNVbErknbhbbYc+a+TSNYIA1fRpehgQRJIoTujC885tuiFBHGACk
evbEbEZ6yLVLuxaYu8AqdPa3A99bToQPZ4PErmBmfAY=
-----END CERTIFICATE-----
