Certificate:
    Data:
        Version: 3 (0x2)
        Serial Number: 192 (0xc0)
        Signature Algorithm: md5WithRSAEncryption
        Issuer: C=MY, ST=MAHA, L=PUNE, O=PSPL, OU=OBLIX-QA, CN=ps2436/emailAddress=sagar@pspl.com
        Validity
            Not Before: Nov 17 06:42:25 2015 GMT
            Not After : Nov 16 06:42:25 2016 GMT
        Subject: CN=weblogic/emailAddress=user@oracle.com
        Subject Public Key Info:
            Public Key Algorithm: rsaEncryption
            RSA Public Key: (1024 bit)
                Modulus (1024 bit):
                    00:e8:c7:d0:96:42:0d:78:bb:1b:6d:fc:a0:ca:ed:
                    ea:fd:2d:b5:06:02:6a:78:3b:ee:54:ca:f5:33:0a:
                    fe:3c:d8:e6:57:3c:77:e9:84:be:a1:ae:62:16:6e:
                    40:0f:41:8c:8b:91:37:91:da:bd:f7:74:8f:4d:8c:
                    c6:c2:a4:24:e3:58:c9:01:7a:6a:38:4f:08:c8:8f:
                    ea:d7:0a:61:e4:87:ff:f1:41:e6:99:a2:f4:7d:da:
                    c8:03:ff:0b:d9:f7:12:df:28:4b:9c:3b:18:26:f6:
                    9f:89:30:5c:cf:cc:64:eb:9f:57:5f:e6:66:fc:e7:
                    bc:7f:ab:62:65:20:3d:39:4d
                Exponent: 65537 (0x10001)
        X509v3 extensions:
            X509v3 Subject Alternative Name: 
                email:user@oracle.com
            X509v3 Basic Constraints: critical
                CA:FALSE
            X509v3 Authority Key Identifier: 
                keyid:DB:F8:6A:15:0A:82:53:1F:C2:EB:CC:D0:6E:83:72:57:E4:45:F2:74

            X509v3 Extended Key Usage: 
                TLS Web Client Authentication, E-mail Protection
    Signature Algorithm: md5WithRSAEncryption
        6c:e7:67:12:68:58:03:fc:50:ef:4f:5d:e3:2f:b1:e9:d6:fc:
        b5:20:c2:67:aa:e7:cc:a0:52:a9:8e:3c:52:6a:fc:78:b7:b6:
        05:e4:bd:55:da:a3:3f:e5:bd:02:52:d5:b6:a5:7c:c9:58:0c:
        f6:fb:cc:46:09:0c:fa:5b:4a:c8:5c:a0:73:b0:1e:99:f3:05:
        4d:e2:da:bb:e8:29:b5:14:77:8d:14:6c:1b:d2:f8:7e:ad:31:
        9b:fc:bb:04:80:2a:49:bd:03:cf:2c:2c:d8:7e:84:c8:f4:b3:
        94:9a:1b:9b:53:a6:e6:27:f9:f3:c5:3c:b6:0a:d6:5f:cd:fc:
        c4:13
-----BEGIN CERTIFICATE-----
MIICkzCCAfygAwIBAgICAMAwDQYJKoZIhvcNAQEEBQAwfTELMAkGA1UEBhMCTVkx
DTALBgNVBAgTBE1BSEExDTALBgNVBAcTBFBVTkUxDTALBgNVBAoTBFBTUEwxETAP
BgNVBAsTCE9CTElYLVFBMQ8wDQYDVQQDEwZwczI0MzYxHTAbBgkqhkiG9w0BCQEW
DnNhZ2FyQHBzcGwuY29tMB4XDTE1MTExNzA2NDIyNVoXDTE2MTExNjA2NDIyNVow
MzERMA8GA1UEAxMId2VibG9naWMxHjAcBgkqhkiG9w0BCQEWD3VzZXJAb3JhY2xl
LmNvbTCBnzANBgkqhkiG9w0BAQEFAAOBjQAwgYkCgYEA6MfQlkINeLsbbfygyu3q
/S21BgJqeDvuVMr1Mwr+PNjmVzx36YS+oa5iFm5AD0GMi5E3kdq993SPTYzGwqQk
41jJAXpqOE8IyI/q1wph5If/8UHmmaL0fdrIA/8L2fcS3yhLnDsYJvafiTBcz8xk
659XX+Zm/Oe8f6tiZSA9OU0CAwEAAaNsMGowGgYDVR0RBBMwEYEPdXNlckBvcmFj
bGUuY29tMAwGA1UdEwEB/wQCMAAwHwYDVR0jBBgwFoAU2/hqFQqCUx/C68zQboNy
V+RF8nQwHQYDVR0lBBYwFAYIKwYBBQUHAwIGCCsGAQUFBwMEMA0GCSqGSIb3DQEB
BAUAA4GBAGznZxJoWAP8UO9PXeMvsenW/LUgwmeq58ygUqmOPFJq/Hi3tgXkvVXa
oz/lvQJS1balfMlYDPb7zEYJDPpbSshcoHOwHpnzBU3i2rvoKbUUd40UbBvS+H6t
MZv8uwSAKkm9A88sLNh+hMj0s5SaG5tTpuYn+fPFPLYK1l/N/MQT
-----END CERTIFICATE-----
