Certificate:
    Data:
        Version: 3 (0x2)
        Serial Number: 193 (0xc1)
        Signature Algorithm: md5WithRSAEncryption
        Issuer: C=MY, ST=MAHA, L=PUNE, O=PSPL, OU=OBLIX-QA, CN=ps2436/emailAddress=sagar@pspl.com
        Validity
            Not Before: Nov 17 06:56:10 2015 GMT
            Not After : Nov 16 06:56:10 2017 GMT
        Subject: C=US, ST=CA, L=Redwood, O=Oracle, OU=IDM, CN=slc08fte.us.oracle.com/emailAddress=server@oracle.com
        Subject Public Key Info:
            Public Key Algorithm: rsaEncryption
            RSA Public Key: (1024 bit)
                Modulus (1024 bit):
                    00:ce:dd:81:cf:4a:cd:05:cb:e8:0d:8b:9a:07:d0:
                    4f:7b:ed:84:b4:e8:7b:16:02:98:c4:7d:1c:e2:b9:
                    89:ec:43:f7:de:ad:7e:9d:8e:fb:a1:84:7b:83:0d:
                    58:09:9c:ad:c5:8a:05:f7:0b:8f:09:81:1c:f3:39:
                    93:0b:db:8b:70:bf:a0:a8:c6:6b:6a:2f:92:2b:36:
                    51:55:47:91:8f:63:45:a5:cc:2d:35:b7:c8:5f:2f:
                    ee:8b:69:7c:d2:13:a0:89:25:80:53:0c:04:26:b8:
                    56:d2:b7:f1:3e:eb:07:78:b8:57:b6:dc:aa:98:d3:
                    f0:d3:66:e8:64:79:db:b6:11
                Exponent: 65537 (0x10001)
        X509v3 extensions:
            X509v3 Authority Key Identifier: 
                keyid:DB:F8:6A:15:0A:82:53:1F:C2:EB:CC:D0:6E:83:72:57:E4:45:F2:74

            X509v3 Extended Key Usage: 
                TLS Web Server Authentication, TLS Web Client Authentication, Microsoft Server Gated Crypto, Netscape Server Gated Crypto
            X509v3 Basic Constraints: critical
                CA:FALSE
    Signature Algorithm: md5WithRSAEncryption
        1d:85:59:ef:80:97:a7:48:7f:d9:c7:01:9e:43:ad:4f:77:bf:
        bf:f4:b2:e3:0e:c8:6c:c8:32:93:5c:12:01:b3:4f:00:69:d6:
        89:03:f6:5a:e0:1e:43:99:d8:8f:44:db:19:8b:f5:0f:73:e5:
        86:4b:d4:37:a0:2a:d6:34:16:69:48:19:35:8b:dc:ee:bf:86:
        f2:af:1f:49:ef:31:6c:03:54:5c:9f:97:fa:dd:48:e2:8f:d1:
        b0:7a:04:ba:bf:fc:df:3b:57:11:13:73:5b:d0:a8:c1:52:d9:
        80:a3:77:e3:0e:6b:2d:27:2f:72:8e:16:89:d1:52:a7:97:f7:
        b6:2f
-----BEGIN CERTIFICATE-----
MIIC6jCCAlOgAwIBAgICAMEwDQYJKoZIhvcNAQEEBQAwfTELMAkGA1UEBhMCTVkx
DTALBgNVBAgTBE1BSEExDTALBgNVBAcTBFBVTkUxDTALBgNVBAoTBFBTUEwxETAP
BgNVBAsTCE9CTElYLVFBMQ8wDQYDVQQDEwZwczI0MzYxHTAbBgkqhkiG9w0BCQEW
DnNhZ2FyQHBzcGwuY29tMB4XDTE1MTExNzA2NTYxMFoXDTE3MTExNjA2NTYxMFow
gY4xCzAJBgNVBAYTAlVTMQswCQYDVQQIEwJDQTEQMA4GA1UEBxMHUmVkd29vZDEP
MA0GA1UEChMGT3JhY2xlMQwwCgYDVQQLEwNJRE0xHzAdBgNVBAMTFnNsYzA4ZnRl
LnVzLm9yYWNsZS5jb20xIDAeBgkqhkiG9w0BCQEWEXNlcnZlckBvcmFjbGUuY29t
MIGfMA0GCSqGSIb3DQEBAQUAA4GNADCBiQKBgQDO3YHPSs0Fy+gNi5oH0E977YS0
6HsWApjEfRziuYnsQ/ferX6djvuhhHuDDVgJnK3FigX3C48JgRzzOZML24twv6Co
xmtqL5IrNlFVR5GPY0WlzC01t8hfL+6LaXzSE6CJJYBTDAQmuFbSt/E+6wd4uFe2
3KqY0/DTZuhkedu2EQIDAQABo2cwZTAfBgNVHSMEGDAWgBTb+GoVCoJTH8LrzNBu
g3JX5EXydDA0BgNVHSUELTArBggrBgEFBQcDAQYIKwYBBQUHAwIGCisGAQQBgjcK
AwMGCWCGSAGG+EIEATAMBgNVHRMBAf8EAjAAMA0GCSqGSIb3DQEBBAUAA4GBAB2F
We+Al6dIf9nHAZ5DrU93v7/0suMOyGzIMpNcEgGzTwBp1okD9lrgHkOZ2I9E2xmL
9Q9z5YZL1DegKtY0FmlIGTWL3O6/hvKvH0nvMWwDVFyfl/rdSOKP0bB6BLq//N87
VxETc1vQqMFS2YCjd+MOay0nL3KOFonRUqeX97Yv
-----END CERTIFICATE-----
