Certificate:
    Data:
        Version: 3 (0x2)
        Serial Number: 194 (0xc2)
        Signature Algorithm: md5WithRSAEncryption
        Issuer: C=MY, ST=MAHA, L=PUNE, O=PSPL, OU=OBLIX-QA, CN=ps2436/emailAddress=sagar@pspl.com
        Validity
            Not Before: Nov 19 04:59:47 2015 GMT
            Not After : Nov 18 04:59:47 2017 GMT
        Subject: C=US, ST=CA, L=Redwood, O=Oracle, OU=IDM, CN=mayank/emailAddress=mayank@oracle.com
        Subject Public Key Info:
            Public Key Algorithm: rsaEncryption
            RSA Public Key: (1024 bit)
                Modulus (1024 bit):
                    00:a9:b7:7b:87:6f:81:8a:10:0b:0d:8c:ad:d8:ba:
                    4a:dd:aa:16:3c:52:54:5a:a9:bc:11:d8:06:e8:93:
                    a1:38:51:5e:78:15:68:cd:aa:06:6b:27:c9:77:e3:
                    fe:8f:40:d4:cf:56:06:be:a5:2b:25:f0:d4:10:e0:
                    86:9f:76:c3:59:be:67:64:8d:e2:39:22:34:b1:b7:
                    50:bd:90:55:8e:31:0d:d7:8b:e0:6d:1f:73:57:c8:
                    45:8f:6b:6e:9a:ec:2c:fc:f5:ee:81:06:e8:7e:61:
                    c7:4d:24:2a:2b:c8:e8:17:96:e2:fb:9e:b7:96:59:
                    b2:12:20:08:72:c4:ce:1c:f3
                Exponent: 65537 (0x10001)
        X509v3 extensions:
            X509v3 Subject Alternative Name: 
                email:mayank@oracle.com
            X509v3 Basic Constraints: critical
                CA:FALSE
            X509v3 Authority Key Identifier: 
                keyid:DB:F8:6A:15:0A:82:53:1F:C2:EB:CC:D0:6E:83:72:57:E4:45:F2:74

            X509v3 Extended Key Usage: 
                TLS Web Client Authentication, E-mail Protection
    Signature Algorithm: md5WithRSAEncryption
        a3:5c:dc:b6:59:62:87:f8:0d:12:b2:49:e8:6e:09:89:6e:21:
        95:2a:48:2b:a5:2b:9a:7f:8f:7f:4c:e0:90:8d:c1:0a:e3:9e:
        51:e9:37:6d:d1:56:e0:33:65:45:20:52:fc:d0:55:6e:b6:58:
        57:5f:72:88:e8:47:25:e9:d8:fc:11:81:7e:85:ae:3c:19:c2:
        d8:ee:45:1c:9e:36:62:23:80:5d:03:22:6d:d3:9a:a3:29:2b:
        2c:90:e6:18:68:1b:42:5d:b7:fd:0d:2e:b5:51:03:74:f7:49:
        e4:99:7b:b1:68:98:36:5e:56:9b:88:07:ec:9a:d6:de:c5:b5:
        39:57
-----BEGIN CERTIFICATE-----
MIIC4DCCAkmgAwIBAgICAMIwDQYJKoZIhvcNAQEEBQAwfTELMAkGA1UEBhMCTVkx
DTALBgNVBAgTBE1BSEExDTALBgNVBAcTBFBVTkUxDTALBgNVBAoTBFBTUEwxETAP
BgNVBAsTCE9CTElYLVFBMQ8wDQYDVQQDEwZwczI0MzYxHTAbBgkqhkiG9w0BCQEW
DnNhZ2FyQHBzcGwuY29tMB4XDTE1MTExOTA0NTk0N1oXDTE3MTExODA0NTk0N1ow
fjELMAkGA1UEBhMCVVMxCzAJBgNVBAgTAkNBMRAwDgYDVQQHEwdSZWR3b29kMQ8w
DQYDVQQKEwZPcmFjbGUxDDAKBgNVBAsTA0lETTEPMA0GA1UEAxMGbWF5YW5rMSAw
HgYJKoZIhvcNAQkBFhFtYXlhbmtAb3JhY2xlLmNvbTCBnzANBgkqhkiG9w0BAQEF
AAOBjQAwgYkCgYEAqbd7h2+BihALDYyt2LpK3aoWPFJUWqm8EdgG6JOhOFFeeBVo
zaoGayfJd+P+j0DUz1YGvqUrJfDUEOCGn3bDWb5nZI3iOSI0sbdQvZBVjjEN14vg
bR9zV8hFj2tumuws/PXugQbofmHHTSQqK8joF5bi+563llmyEiAIcsTOHPMCAwEA
AaNuMGwwHAYDVR0RBBUwE4ERbWF5YW5rQG9yYWNsZS5jb20wDAYDVR0TAQH/BAIw
ADAfBgNVHSMEGDAWgBTb+GoVCoJTH8LrzNBug3JX5EXydDAdBgNVHSUEFjAUBggr
BgEFBQcDAgYIKwYBBQUHAwQwDQYJKoZIhvcNAQEEBQADgYEAo1zctllih/gNErJJ
6G4JiW4hlSpIK6Urmn+Pf0zgkI3BCuOeUek3bdFW4DNlRSBS/NBVbrZYV19yiOhH
JenY/BGBfoWuPBnC2O5FHJ42YiOAXQMibdOaoykrLJDmGGgbQl23/Q0utVEDdPdJ
5Jl7sWiYNl5Wm4gH7JrW3sW1OVc=
-----END CERTIFICATE-----
