Certificate:
    Data:
        Version: 3 (0x2)
        Serial Number: 195 (0xc3)
        Signature Algorithm: md5WithRSAEncryption
        Issuer: C=MY, ST=MAHA, L=PUNE, O=PSPL, OU=OBLIX-QA, CN=ps2436/emailAddress=sagar@pspl.com
        Validity
            Not Before: Nov 19 06:49:00 2015 GMT
            Not After : Nov 18 06:49:00 2017 GMT
        Subject: C=US, ST=CA, L=bangalore, O=Oracle, DC=oracle, DC=com, OU=idm, CN=temp/emailAddress=temp@oracle.com
        Subject Public Key Info:
            Public Key Algorithm: rsaEncryption
            RSA Public Key: (1024 bit)
                Modulus (1024 bit):
                    00:f6:1a:ed:34:71:d5:d0:5d:42:ab:9b:c8:f7:08:
                    60:f1:be:81:fe:35:01:3f:07:dd:cb:7f:65:d0:4d:
                    f8:98:5e:59:5e:fe:a0:fb:5f:02:ac:d8:42:af:96:
                    53:e3:30:dd:df:36:9b:d1:7d:38:2c:50:d2:b6:79:
                    0e:5c:9f:5f:31:bf:67:62:30:d8:a3:4e:00:91:2a:
                    bf:73:d3:54:b6:5c:5d:28:86:64:c2:06:ee:54:63:
                    fb:be:0a:5d:ca:9f:72:b9:5e:e6:50:3a:0a:de:2b:
                    ac:ba:cc:31:98:37:5c:74:98:49:95:1e:9f:9e:1b:
                    14:62:da:bc:33:6f:ac:1a:d1
                Exponent: 65537 (0x10001)
        X509v3 extensions:
            X509v3 Authority Key Identifier: 
                keyid:DB:F8:6A:15:0A:82:53:1F:C2:EB:CC:D0:6E:83:72:57:E4:45:F2:74

            X509v3 Extended Key Usage: 
                TLS Web Server Authentication, TLS Web Client Authentication, Microsoft Server Gated Crypto, Netscape Server Gated Crypto
            X509v3 Basic Constraints: critical
                CA:FALSE
    Signature Algorithm: md5WithRSAEncryption
        b6:32:0c:16:3f:9d:03:41:a9:95:83:32:c8:ef:c9:05:d4:79:
        22:7e:7b:92:25:8f:72:b4:66:4c:65:a2:53:3a:d3:25:eb:1e:
        24:2e:ea:62:0e:88:fb:42:04:ed:4a:e0:97:eb:bc:2f:cd:61:
        ce:6a:eb:01:78:5c:5e:e5:cd:96:01:4b:95:01:5d:fa:21:c4:
        35:82:54:91:70:5c:64:a2:58:75:94:b0:f4:74:36:86:c8:b9:
        bd:fb:58:d5:50:dc:20:41:f7:2a:92:2b:1b:3c:34:80:b8:81:
        93:c6:f5:5b:57:aa:e5:af:29:d4:50:13:c7:f0:b1:1f:5e:5f:
        42:3f
-----BEGIN CERTIFICATE-----
MIIDBTCCAm6gAwIBAgICAMMwDQYJKoZIhvcNAQEEBQAwfTELMAkGA1UEBhMCTVkx
DTALBgNVBAgTBE1BSEExDTALBgNVBAcTBFBVTkUxDTALBgNVBAoTBFBTUEwxETAP
BgNVBAsTCE9CTElYLVFBMQ8wDQYDVQQDEwZwczI0MzYxHTAbBgkqhkiG9w0BCQEW
DnNhZ2FyQHBzcGwuY29tMB4XDTE1MTExOTA2NDkwMFoXDTE3MTExODA2NDkwMFow
gakxCzAJBgNVBAYTAlVTMQswCQYDVQQIEwJDQTESMBAGA1UEBxMJYmFuZ2Fsb3Jl
MQ8wDQYDVQQKEwZPcmFjbGUxFjAUBgoJkiaJk/IsZAEZFgZvcmFjbGUxEzARBgoJ
kiaJk/IsZAEZFgNjb20xDDAKBgNVBAsTA2lkbTENMAsGA1UEAxMEdGVtcDEeMBwG
CSqGSIb3DQEJARYPdGVtcEBvcmFjbGUuY29tMIGfMA0GCSqGSIb3DQEBAQUAA4GN
ADCBiQKBgQD2Gu00cdXQXUKrm8j3CGDxvoH+NQE/B93Lf2XQTfiYXlle/qD7XwKs
2EKvllPjMN3fNpvRfTgsUNK2eQ5cn18xv2diMNijTgCRKr9z01S2XF0ohmTCBu5U
Y/u+Cl3Kn3K5XuZQOgreK6y6zDGYN1x0mEmVHp+eGxRi2rwzb6wa0QIDAQABo2cw
ZTAfBgNVHSMEGDAWgBTb+GoVCoJTH8LrzNBug3JX5EXydDA0BgNVHSUELTArBggr
BgEFBQcDAQYIKwYBBQUHAwIGCisGAQQBgjcKAwMGCWCGSAGG+EIEATAMBgNVHRMB
Af8EAjAAMA0GCSqGSIb3DQEBBAUAA4GBALYyDBY/nQNBqZWDMsjvyQXUeSJ+e5Il
j3K0ZkxlolM60yXrHiQu6mIOiPtCBO1K4JfrvC/NYc5q6wF4XF7lzZYBS5UBXfoh
xDWCVJFwXGSiWHWUsPR0NobIub37WNVQ3CBB9yqSKxs8NIC4gZPG9VtXquWvKdRQ
E8fwsR9eX0I/
-----END CERTIFICATE-----
