Certificate:
    Data:
        Version: 3 (0x2)
        Serial Number: 196 (0xc4)
    Signature Algorithm: md5WithRSAEncryption
        Issuer: C=MY, ST=MAHA, L=PUNE, O=PSPL, OU=OBLIX-QA, CN=ps2436/emailAddress=sagar@pspl.com
        Validity
            Not Before: Mar 20 09:00:58 2017 GMT
            Not After : Mar 20 09:00:58 2019 GMT
        Subject: C=IN, ST=MH, L=Pune, O=Oracle, OU=IDM, CN=ocsp/emailAddress=ocsp@oracle.com
        Subject Public Key Info:
            Public Key Algorithm: rsaEncryption
                Public-Key: (1024 bit)
                Modulus:
                    00:f1:70:50:ec:56:a6:46:28:ea:01:aa:93:79:85:
                    79:56:c2:11:bd:b0:2f:62:c9:8a:ff:6a:25:be:c8:
                    af:96:3c:40:6a:05:db:e2:96:5e:32:7f:76:8c:00:
                    11:42:6e:ab:51:47:de:99:88:f5:e7:e1:8e:68:29:
                    8f:e1:02:12:06:a0:31:64:fa:04:a6:9f:c5:e6:b2:
                    7b:73:ff:1c:1f:40:84:9d:37:21:5d:58:87:77:f7:
                    fe:97:e0:40:d5:5c:1c:74:f0:ba:3c:a2:05:f6:d9:
                    04:f5:7e:be:33:7b:20:82:eb:fb:a1:74:24:76:11:
                    56:ca:59:45:b4:4b:6e:79:53
                Exponent: 65537 (0x10001)
        X509v3 extensions:
            X509v3 Subject Alternative Name: 
                email:ocsp@oracle.com
            X509v3 Basic Constraints: critical
                CA:FALSE
            X509v3 Authority Key Identifier: 
                keyid:DB:F8:6A:15:0A:82:53:1F:C2:EB:CC:D0:6E:83:72:57:E4:45:F2:74

            Authority Information Access: 
                OCSP - URI:http://slc12pyt.us.oracle.com:6060

            X509v3 Extended Key Usage: 
                TLS Web Client Authentication, E-mail Protection, OCSP Signing
    Signature Algorithm: md5WithRSAEncryption
         5e:30:20:af:74:45:96:a1:43:9d:89:64:4f:34:43:10:3a:6a:
         5b:5d:32:20:96:01:ce:50:6f:5e:18:9b:b6:78:78:88:c6:68:
         88:41:c4:28:b9:91:6f:ac:52:c9:88:bc:2a:23:c4:15:73:d8:
         a1:60:45:c0:70:06:aa:f5:a5:1e:47:c8:38:d0:a8:98:3b:a0:
         34:19:e0:0b:a6:23:29:6d:bc:34:b5:8c:af:da:c4:ec:71:4b:
         8d:42:cf:e8:47:be:b6:dd:ef:72:7d:6a:58:a0:9c:ee:be:03:
         04:c0:e0:11:0d:6e:40:57:b7:62:69:7f:10:94:4d:d6:9d:43:
         04:a7
-----BEGIN CERTIFICATE-----
MIIDIzCCAoygAwIBAgICAMQwDQYJKoZIhvcNAQEEBQAwfTELMAkGA1UEBhMCTVkx
DTALBgNVBAgTBE1BSEExDTALBgNVBAcTBFBVTkUxDTALBgNVBAoTBFBTUEwxETAP
BgNVBAsTCE9CTElYLVFBMQ8wDQYDVQQDEwZwczI0MzYxHTAbBgkqhkiG9w0BCQEW
DnNhZ2FyQHBzcGwuY29tMB4XDTE3MDMyMDA5MDA1OFoXDTE5MDMyMDA5MDA1OFow
dzELMAkGA1UEBhMCSU4xCzAJBgNVBAgTAk1IMQ0wCwYDVQQHEwRQdW5lMQ8wDQYD
VQQKEwZPcmFjbGUxDDAKBgNVBAsTA0lETTENMAsGA1UEAxMEb2NzcDEeMBwGCSqG
SIb3DQEJARYPb2NzcEBvcmFjbGUuY29tMIGfMA0GCSqGSIb3DQEBAQUAA4GNADCB
iQKBgQDxcFDsVqZGKOoBqpN5hXlWwhG9sC9iyYr/aiW+yK+WPEBqBdvill4yf3aM
ABFCbqtRR96ZiPXn4Y5oKY/hAhIGoDFk+gSmn8Xmsntz/xwfQISdNyFdWId39/6X
4EDVXBx08Lo8ogX22QT1fr4zeyCC6/uhdCR2EVbKWUW0S255UwIDAQABo4G3MIG0
MBoGA1UdEQQTMBGBD29jc3BAb3JhY2xlLmNvbTAMBgNVHRMBAf8EAjAAMB8GA1Ud
IwQYMBaAFNv4ahUKglMfwuvM0G6DclfkRfJ0MD4GCCsGAQUFBwEBBDIwMDAuBggr
BgEFBQcwAYYiaHR0cDovL3NsYzEycHl0LnVzLm9yYWNsZS5jb206NjA2MDAnBgNV
HSUEIDAeBggrBgEFBQcDAgYIKwYBBQUHAwQGCCsGAQUFBwMJMA0GCSqGSIb3DQEB
BAUAA4GBAF4wIK90RZahQ52JZE80QxA6altdMiCWAc5Qb14Ym7Z4eIjGaIhBxCi5
kW+sUsmIvCojxBVz2KFgRcBwBqr1pR5HyDjQqJg7oDQZ4AumIyltvDS1jK/axOxx
S41Cz+hHvrbd73J9alignO6+AwTA4BENbkBXt2JpfxCUTdadQwSn
-----END CERTIFICATE-----
