Certificate:
    Data:
        Version: 3 (0x2)
        Serial Number: 197 (0xc5)
    Signature Algorithm: md5WithRSAEncryption
        Issuer: C=MY, ST=MAHA, L=PUNE, O=PSPL, OU=OBLIX-QA, CN=ps2436/emailAddress=sagar@pspl.com
        Validity
            Not Before: Apr 20 10:44:14 2020 GMT
            Not After : Apr 20 10:44:14 2022 GMT
        Subject: C=IN, ST=Karnataka, L=Bengalore, O=Oracle, OU=IDM, CN=eku/emailAddress=eku@oracle.com
        Subject Public Key Info:
            Public Key Algorithm: rsaEncryption
                Public-Key: (1024 bit)
                Modulus:
                    00:b8:f4:d8:e3:35:2a:6b:9e:5d:af:81:2c:ae:6d:
                    af:ff:4f:c9:3f:5f:cf:ab:2a:95:3a:1f:4a:9f:29:
                    50:63:f0:50:25:5b:fc:32:45:7f:b8:e9:bf:08:45:
                    2e:c4:98:83:65:d3:91:fe:8a:e9:d2:88:cf:a8:da:
                    a0:7b:ba:a9:ef:39:ef:15:46:aa:86:e2:93:4c:86:
                    b0:13:1c:e5:be:0e:c4:61:bf:53:ed:2e:6c:65:a8:
                    a7:e3:87:c2:45:83:7e:18:45:ee:b6:7c:00:ad:d6:
                    2f:7a:ba:7b:5c:0e:cb:32:1c:ca:4f:68:24:f9:ee:
                    a4:4c:77:f1:86:4a:00:29:bd
                Exponent: 65537 (0x10001)
        X509v3 extensions:
            X509v3 Subject Alternative Name: 
                email:eku@oracle.com
            X509v3 Basic Constraints: critical
                CA:FALSE
            X509v3 Authority Key Identifier: 
                keyid:DB:F8:6A:15:0A:82:53:1F:C2:EB:CC:D0:6E:83:72:57:E4:45:F2:74

            Authority Information Access: 
                OCSP - URI:http://slc12pyt.us.oracle.com:6060

            X509v3 Extended Key Usage: 
                TLS Web Client Authentication, E-mail Protection, OCSP Signing
    Signature Algorithm: md5WithRSAEncryption
         87:8c:4f:47:f9:33:19:d4:9c:d1:70:fd:95:2a:0f:f7:a2:35:
         ef:b4:4f:fc:2a:49:48:49:56:b6:82:c3:18:68:14:2e:d6:1a:
         ef:bd:56:aa:13:8c:ac:f8:6f:a0:37:3a:e1:28:f0:49:61:31:
         04:66:b9:39:1f:9c:dd:ba:a2:b7:b7:c2:14:be:12:a7:88:43:
         81:96:f9:b7:61:df:0d:64:06:5e:29:b4:b7:33:b2:f8:e2:44:
         3e:07:50:05:67:d9:1a:a8:b6:f7:6a:b3:e8:bd:87:53:47:d8:
         e2:77:17:ea:6f:b3:a7:e2:88:f0:ab:c5:56:1e:67:33:28:f5:
         83:5c
-----BEGIN CERTIFICATE-----
MIIDLTCCApagAwIBAgICAMUwDQYJKoZIhvcNAQEEBQAwfTELMAkGA1UEBhMCTVkx
DTALBgNVBAgTBE1BSEExDTALBgNVBAcTBFBVTkUxDTALBgNVBAoTBFBTUEwxETAP
BgNVBAsTCE9CTElYLVFBMQ8wDQYDVQQDEwZwczI0MzYxHTAbBgkqhkiG9w0BCQEW
DnNhZ2FyQHBzcGwuY29tMB4XDTIwMDQyMDEwNDQxNFoXDTIyMDQyMDEwNDQxNFow
gYExCzAJBgNVBAYTAklOMRIwEAYDVQQIEwlLYXJuYXRha2ExEjAQBgNVBAcTCUJl
bmdhbG9yZTEPMA0GA1UEChMGT3JhY2xlMQwwCgYDVQQLEwNJRE0xDDAKBgNVBAMT
A2VrdTEdMBsGCSqGSIb3DQEJARYOZWt1QG9yYWNsZS5jb20wgZ8wDQYJKoZIhvcN
AQEBBQADgY0AMIGJAoGBALj02OM1KmueXa+BLK5tr/9PyT9fz6sqlTofSp8pUGPw
UCVb/DJFf7jpvwhFLsSYg2XTkf6K6dKIz6jaoHu6qe857xVGqobik0yGsBMc5b4O
xGG/U+0ubGWop+OHwkWDfhhF7rZ8AK3WL3q6e1wOyzIcyk9oJPnupEx38YZKACm9
AgMBAAGjgbYwgbMwGQYDVR0RBBIwEIEOZWt1QG9yYWNsZS5jb20wDAYDVR0TAQH/
BAIwADAfBgNVHSMEGDAWgBTb+GoVCoJTH8LrzNBug3JX5EXydDA+BggrBgEFBQcB
AQQyMDAwLgYIKwYBBQUHMAGGImh0dHA6Ly9zbGMxMnB5dC51cy5vcmFjbGUuY29t
OjYwNjAwJwYDVR0lBCAwHgYIKwYBBQUHAwIGCCsGAQUFBwMEBggrBgEFBQcDCTAN
BgkqhkiG9w0BAQQFAAOBgQCHjE9H+TMZ1JzRcP2VKg/3ojXvtE/8KklISVa2gsMY
aBQu1hrvvVaqE4ys+G+gNzrhKPBJYTEEZrk5H5zduqK3t8IUvhKniEOBlvm3Yd8N
ZAZeKbS3M7L44kQ+B1AFZ9kaqLb3arPovYdTR9jidxfqb7On4ojwq8VWHmczKPWD
XA==
-----END CERTIFICATE-----
