Certificate:
    Data:
        Version: 3 (0x2)
        Serial Number: 198 (0xc6)
    Signature Algorithm: md5WithRSAEncryption
        Issuer: C=IN, ST=KA, L=BLR, O=Oracle, OU=IDM, CN=mac_root/emailAddress=root@oracle.com
        Validity
            Not Before: Apr 20 11:29:34 2020 GMT
            Not After : Apr 20 11:29:34 2022 GMT
        Subject: C=IN, ST=KA, L=BLR, O=Oracle, OU=IDM, CN=eku/emailAddress=eku@oracle.com
        Subject Public Key Info:
            Public Key Algorithm: rsaEncryption
                Public-Key: (1024 bit)
                Modulus:
                    00:e2:92:88:27:bf:fd:5e:7f:1d:3b:2b:e6:85:98:
                    03:b9:1c:dd:52:dc:0a:ab:e7:16:76:d1:b1:20:6b:
                    24:bb:0a:8a:76:00:8d:a2:74:04:ae:7c:2a:10:c3:
                    0a:17:d3:c3:5c:0b:33:8f:28:41:07:6e:f7:e3:5a:
                    ec:e3:ed:6c:f8:6a:44:1a:e7:4f:92:31:72:5c:b7:
                    eb:34:0f:f8:4b:37:c8:c4:13:66:eb:0d:e8:ad:cb:
                    e0:67:d2:73:6c:0e:b3:0b:1b:2d:ab:ff:e2:d5:28:
                    a4:38:e1:32:2d:ca:78:75:ad:a2:93:f2:21:26:a5:
                    25:5d:81:62:2f:fc:11:a5:81
                Exponent: 65537 (0x10001)
        X509v3 extensions:
            X509v3 Subject Alternative Name: 
                email:eku@oracle.com
            X509v3 Basic Constraints: critical
                CA:FALSE
            X509v3 Authority Key Identifier: 
                keyid:DB:F8:6A:15:0A:82:53:1F:C2:EB:CC:D0:6E:83:72:57:E4:45:F2:74

            Authority Information Access: 
                OCSP - URI:http://slc12pyt.us.oracle.com:6060

            X509v3 Extended Key Usage: 
                TLS Web Client Authentication, E-mail Protection, OCSP Signing
    Signature Algorithm: md5WithRSAEncryption
         00:5d:66:77:3f:d3:91:2a:3e:20:cd:80:56:75:0c:00:65:19:
         27:bc:5f:a5:d5:34:dc:52:f6:36:e4:e5:b0:8b:1c:6a:28:64:
         58:88:e0:a5:a9:23:62:93:db:6f:96:e5:22:97:69:13:c2:62:
         af:c3:40:00:ac:05:44:a3:7a:25:34:c9:32:c2:7a:8a:c7:c9:
         12:49:94:4c:0b:70:df:b5:1d:86:32:9d:07:19:88:5f:06:11:
         f0:9e:0b:61:59:d3:96:7c:48:a3:84:52:7a:02:8f:40:35:3c:
         17:07:da:55:b4:fc:cc:59:9d:19:e0:7e:59:20:70:d5:ca:89:
         39:40
-----BEGIN CERTIFICATE-----
MIIDHDCCAoWgAwIBAgICAMYwDQYJKoZIhvcNAQEEBQAwejELMAkGA1UEBhMCSU4x
CzAJBgNVBAgTAktBMQwwCgYDVQQHEwNCTFIxDzANBgNVBAoTBk9yYWNsZTEMMAoG
A1UECxMDSURNMREwDwYDVQQDFAhtYWNfcm9vdDEeMBwGCSqGSIb3DQEJARYPcm9v
dEBvcmFjbGUuY29tMB4XDTIwMDQyMDExMjkzNFoXDTIyMDQyMDExMjkzNFowdDEL
MAkGA1UEBhMCSU4xCzAJBgNVBAgTAktBMQwwCgYDVQQHEwNCTFIxDzANBgNVBAoT
Bk9yYWNsZTEMMAoGA1UECxMDSURNMQwwCgYDVQQDEwNla3UxHTAbBgkqhkiG9w0B
CQEWDmVrdUBvcmFjbGUuY29tMIGfMA0GCSqGSIb3DQEBAQUAA4GNADCBiQKBgQDi
kognv/1efx07K+aFmAO5HN1S3Aqr5xZ20bEgayS7Cop2AI2idASufCoQwwoX08Nc
CzOPKEEHbvfjWuzj7Wz4akQa50+SMXJct+s0D/hLN8jEE2brDeity+Bn0nNsDrML
Gy2r/+LVKKQ44TItynh1raKT8iEmpSVdgWIv/BGlgQIDAQABo4G2MIGzMBkGA1Ud
EQQSMBCBDmVrdUBvcmFjbGUuY29tMAwGA1UdEwEB/wQCMAAwHwYDVR0jBBgwFoAU
2/hqFQqCUx/C68zQboNyV+RF8nQwPgYIKwYBBQUHAQEEMjAwMC4GCCsGAQUFBzAB
hiJodHRwOi8vc2xjMTJweXQudXMub3JhY2xlLmNvbTo2MDYwMCcGA1UdJQQgMB4G
CCsGAQUFBwMCBggrBgEFBQcDBAYIKwYBBQUHAwkwDQYJKoZIhvcNAQEEBQADgYEA
AF1mdz/TkSo+IM2AVnUMAGUZJ7xfpdU03FL2NuTlsIscaihkWIjgpakjYpPbb5bl
IpdpE8Jir8NAAKwFRKN6JTTJMsJ6isfJEkmUTAtw37UdhjKdBxmIXwYR8J4LYVnT
lnxIo4RSegKPQDU8FwfaVbT8zFmdGeB+WSBw1cqJOUA=
-----END CERTIFICATE-----
