Certificate:
    Data:
        Version: 3 (0x2)
        Serial Number: 199 (0xc7)
    Signature Algorithm: sha1WithRSAEncryption
        Issuer: C=IN, ST=KA, L=BLR, O=Oracle, OU=IDM, CN=mac_root/emailAddress=root@oracle.com
        Validity
            Not Before: Apr 20 11:39:21 2020 GMT
            Not After : Apr 20 11:39:21 2022 GMT
        Subject: C=IN, ST=KA, L=BLR, O=IDM, OU=Oracle, CN=eku/emailAddress=eku@oracle.com
        Subject Public Key Info:
            Public Key Algorithm: rsaEncryption
                Public-Key: (1024 bit)
                Modulus:
                    00:cd:7a:92:93:b8:ec:f9:9f:4c:2c:69:2e:ea:e6:
                    ba:58:90:aa:d2:5b:b2:f0:9c:2d:56:99:3a:74:47:
                    e9:20:c9:d0:eb:1e:4c:58:50:ad:67:9e:62:dc:36:
                    27:57:45:42:0e:4c:0e:ea:3b:40:fc:00:3d:f9:05:
                    d9:b0:d0:dc:a6:37:38:94:f2:e3:7f:b1:89:06:6d:
                    69:7f:f2:7c:12:95:22:36:5c:c2:8f:25:56:74:e8:
                    08:40:2e:72:86:85:3a:d4:d8:e6:4b:4c:0d:5e:db:
                    e3:e3:c8:bf:09:94:6c:13:de:63:92:3f:3e:a4:40:
                    3c:30:3d:c7:fe:55:61:bc:6d
                Exponent: 65537 (0x10001)
        X509v3 extensions:
            X509v3 Subject Alternative Name: 
                email:eku@oracle.com
            X509v3 Basic Constraints: critical
                CA:FALSE
            X509v3 Authority Key Identifier: 
                keyid:DB:F8:6A:15:0A:82:53:1F:C2:EB:CC:D0:6E:83:72:57:E4:45:F2:74

            Authority Information Access: 
                OCSP - URI:http://slc12pyt.us.oracle.com:6060

            X509v3 Extended Key Usage: 
                TLS Web Client Authentication, E-mail Protection, OCSP Signing
    Signature Algorithm: sha1WithRSAEncryption
         01:d2:6c:19:35:0a:a8:d1:41:27:48:9b:79:d5:88:f5:a6:6c:
         e3:a0:cd:ec:a2:4a:c7:87:bd:48:01:b5:35:65:66:36:7c:9e:
         30:3a:bd:34:79:33:bc:ae:5b:05:d3:d0:ad:7a:db:b6:b6:c1:
         c3:e7:0d:50:37:a6:58:c3:33:be:6e:7a:dc:93:8d:d2:6e:94:
         94:37:62:06:4d:23:f5:e5:4a:b0:66:19:5c:4e:cc:cf:4b:e7:
         98:1e:db:92:8b:cb:a5:66:29:8e:01:3f:cd:ee:64:61:fb:17:
         5f:2a:d9:16:b5:bf:7a:51:da:26:e1:fa:82:be:8f:85:8d:f1:
         60:a7
-----BEGIN CERTIFICATE-----
MIIDHDCCAoWgAwIBAgICAMcwDQYJKoZIhvcNAQEFBQAwejELMAkGA1UEBhMCSU4x
CzAJBgNVBAgTAktBMQwwCgYDVQQHEwNCTFIxDzANBgNVBAoTBk9yYWNsZTEMMAoG
A1UECxMDSURNMREwDwYDVQQDFAhtYWNfcm9vdDEeMBwGCSqGSIb3DQEJARYPcm9v
dEBvcmFjbGUuY29tMB4XDTIwMDQyMDExMzkyMVoXDTIyMDQyMDExMzkyMVowdDEL
MAkGA1UEBhMCSU4xCzAJBgNVBAgTAktBMQwwCgYDVQQHEwNCTFIxDDAKBgNVBAoT
A0lETTEPMA0GA1UECxMGT3JhY2xlMQwwCgYDVQQDEwNla3UxHTAbBgkqhkiG9w0B
CQEWDmVrdUBvcmFjbGUuY29tMIGfMA0GCSqGSIb3DQEBAQUAA4GNADCBiQKBgQDN
epKTuOz5n0wsaS7q5rpYkKrSW7LwnC1WmTp0R+kgydDrHkxYUK1nnmLcNidXRUIO
TA7qO0D8AD35Bdmw0NymNziU8uN/sYkGbWl/8nwSlSI2XMKPJVZ06AhALnKGhTrU
2OZLTA1e2+PjyL8JlGwT3mOSPz6kQDwwPcf+VWG8bQIDAQABo4G2MIGzMBkGA1Ud
EQQSMBCBDmVrdUBvcmFjbGUuY29tMAwGA1UdEwEB/wQCMAAwHwYDVR0jBBgwFoAU
2/hqFQqCUx/C68zQboNyV+RF8nQwPgYIKwYBBQUHAQEEMjAwMC4GCCsGAQUFBzAB
hiJodHRwOi8vc2xjMTJweXQudXMub3JhY2xlLmNvbTo2MDYwMCcGA1UdJQQgMB4G
CCsGAQUFBwMCBggrBgEFBQcDBAYIKwYBBQUHAwkwDQYJKoZIhvcNAQEFBQADgYEA
AdJsGTUKqNFBJ0ibedWI9aZs46DN7KJKx4e9SAG1NWVmNnyeMDq9NHkzvK5bBdPQ
rXrbtrbBw+cNUDemWMMzvm563JON0m6UlDdiBk0j9eVKsGYZXE7Mz0vnmB7bkovL
pWYpjgE/ze5kYfsXXyrZFrW/elHaJuH6gr6PhY3xYKc=
-----END CERTIFICATE-----
