Certificate:
    Data:
        Version: 3 (0x2)
        Serial Number: 200 (0xc8)
    Signature Algorithm: sha1WithRSAEncryption
        Issuer: C=IN, ST=KA, L=BLR, O=Oracle, OU=IDM, CN=mac_root/emailAddress=root@oracle.com
        Validity
            Not Before: Apr 23 08:53:58 2020 GMT
            Not After : Apr 23 08:53:58 2022 GMT
        Subject: C=IN, ST=KA, L=BLR, O=Oracle, DC=IDM, DC=sec, OU=access, CN=den02aoh.us.oracle.com/emailAddress=den02aoh@oracle.com
        Subject Public Key Info:
            Public Key Algorithm: rsaEncryption
                Public-Key: (1024 bit)
                Modulus:
                    00:a9:85:b5:80:74:85:53:2d:5c:22:cd:be:5d:6e:
                    72:bb:db:cc:26:5f:8b:b7:25:4c:a7:b2:2e:da:b4:
                    b3:71:7f:94:7d:d8:5c:ea:0e:a3:af:46:e7:7b:3f:
                    7c:99:3a:b5:fa:c7:38:54:db:13:f3:a6:d1:87:b1:
                    27:a7:82:d7:b2:40:81:d5:4e:07:3e:cc:6d:8d:03:
                    29:ca:ec:b4:db:e1:41:d7:d0:2b:78:77:f7:7a:e1:
                    cb:bd:12:59:a7:a4:0a:ea:0f:52:08:55:56:0d:70:
                    c0:36:d6:47:c2:2c:ad:74:10:00:5d:02:fd:9d:a1:
                    7d:cd:fd:66:27:68:e1:e5:1f
                Exponent: 65537 (0x10001)
        X509v3 extensions:
            X509v3 Authority Key Identifier: 
                keyid:DB:F8:6A:15:0A:82:53:1F:C2:EB:CC:D0:6E:83:72:57:E4:45:F2:74

            X509v3 Extended Key Usage: 
                TLS Web Server Authentication, TLS Web Client Authentication, Microsoft Server Gated Crypto, Netscape Server Gated Crypto
            X509v3 Basic Constraints: critical
                CA:FALSE
    Signature Algorithm: sha1WithRSAEncryption
         89:6e:f0:e3:b4:ca:60:40:15:34:27:c8:b9:cf:1a:3d:af:a7:
         db:27:be:1e:e5:14:e7:59:75:0c:95:0b:a9:e3:0e:68:d6:38:
         ee:2c:24:c1:6d:75:97:95:bc:ce:d8:7d:48:b8:94:2d:fe:64:
         aa:43:0e:f1:57:96:38:45:4b:74:db:8e:2f:61:b1:0f:c8:a0:
         bc:7c:db:a2:95:fa:fb:5c:84:ef:47:17:33:5d:a1:30:68:87:
         5f:3d:a2:ee:3a:80:e2:3a:9c:b8:b3:38:d4:36:fb:1a:c6:3f:
         0f:cd:b9:ef:54:04:04:41:4e:3b:dc:60:8b:d9:bf:a2:3a:63:
         8e:ab
-----BEGIN CERTIFICATE-----
MIIDEjCCAnugAwIBAgICAMgwDQYJKoZIhvcNAQEFBQAwejELMAkGA1UEBhMCSU4x
CzAJBgNVBAgTAktBMQwwCgYDVQQHEwNCTFIxDzANBgNVBAoTBk9yYWNsZTEMMAoG
A1UECxMDSURNMREwDwYDVQQDFAhtYWNfcm9vdDEeMBwGCSqGSIb3DQEJARYPcm9v
dEBvcmFjbGUuY29tMB4XDTIwMDQyMzA4NTM1OFoXDTIyMDQyMzA4NTM1OFowgbkx
CzAJBgNVBAYTAklOMQswCQYDVQQIEwJLQTEMMAoGA1UEBxMDQkxSMQ8wDQYDVQQK
EwZPcmFjbGUxEzARBgoJkiaJk/IsZAEZFgNJRE0xEzARBgoJkiaJk/IsZAEZFgNz
ZWMxDzANBgNVBAsTBmFjY2VzczEfMB0GA1UEAxMWZGVuMDJhb2gudXMub3JhY2xl
LmNvbTEiMCAGCSqGSIb3DQEJARYTZGVuMDJhb2hAb3JhY2xlLmNvbTCBnzANBgkq
hkiG9w0BAQEFAAOBjQAwgYkCgYEAqYW1gHSFUy1cIs2+XW5yu9vMJl+LtyVMp7Iu
2rSzcX+Ufdhc6g6jr0bnez98mTq1+sc4VNsT86bRh7Enp4LXskCB1U4HPsxtjQMp
yuy02+FB19AreHf3euHLvRJZp6QK6g9SCFVWDXDANtZHwiytdBAAXQL9naF9zf1m
J2jh5R8CAwEAAaNnMGUwHwYDVR0jBBgwFoAU2/hqFQqCUx/C68zQboNyV+RF8nQw
NAYDVR0lBC0wKwYIKwYBBQUHAwEGCCsGAQUFBwMCBgorBgEEAYI3CgMDBglghkgB
hvhCBAEwDAYDVR0TAQH/BAIwADANBgkqhkiG9w0BAQUFAAOBgQCJbvDjtMpgQBU0
J8i5zxo9r6fbJ74e5RTnWXUMlQup4w5o1jjuLCTBbXWXlbzO2H1IuJQt/mSqQw7x
V5Y4RUt0244vYbEPyKC8fNuilfr7XITvRxczXaEwaIdfPaLuOoDiOpy4szjUNvsa
xj8PzbnvVAQEQU473GCL2b+iOmOOqw==
-----END CERTIFICATE-----
