Certificate:
    Data:
        Version: 3 (0x2)
        Serial Number: 201 (0xc9)
    Signature Algorithm: sha1WithRSAEncryption
        Issuer: C=IN, ST=KA, L=BLR, O=Oracle, OU=IDM, CN=mac_root/emailAddress=root@oracle.com
        Validity
            Not Before: Apr 24 04:32:49 2020 GMT
            Not After : Apr 24 04:32:49 2022 GMT
        Subject: C=IN, ST=KA, L=BLR, O=Oracle, OU=IDM, CN=ekudod/emailAddress=ekudod@oracle.com
        Subject Public Key Info:
            Public Key Algorithm: rsaEncryption
                Public-Key: (1024 bit)
                Modulus:
                    00:c9:c4:d3:e7:af:8c:1c:8d:63:c9:25:c4:22:b5:
                    41:c1:3d:a8:d0:0b:88:31:87:12:85:f6:bf:9a:9b:
                    73:27:53:2c:66:49:59:43:0f:82:5c:04:68:21:39:
                    56:42:fe:e5:c0:16:9f:6e:79:61:08:2c:64:10:a5:
                    10:35:33:49:aa:dc:e1:d5:b1:e3:32:a6:30:9b:08:
                    ec:2b:55:db:92:fc:3c:24:ee:c1:d5:61:99:a7:7a:
                    68:59:46:c0:76:4d:10:1d:aa:3d:8b:5b:89:7c:64:
                    a6:8b:00:30:d1:93:f4:f3:b7:4f:0a:d9:af:c3:b8:
                    80:07:1c:e0:6a:d4:5a:44:55
                Exponent: 65537 (0x10001)
        X509v3 extensions:
            X509v3 Subject Alternative Name: 
                email:ekudod@oracle.com
            X509v3 Basic Constraints: critical
                CA:FALSE
            X509v3 Authority Key Identifier: 
                keyid:DB:F8:6A:15:0A:82:53:1F:C2:EB:CC:D0:6E:83:72:57:E4:45:F2:74

            Authority Information Access: 
                OCSP - URI:http://slc12pyt.us.oracle.com:6060

            X509v3 Extended Key Usage: 
                TLS Web Client Authentication, E-mail Protection, OCSP Signing, Microsoft Smartcardlogin
    Signature Algorithm: sha1WithRSAEncryption
         05:d4:d2:8b:78:a1:d0:9e:6c:d4:cc:44:ba:34:5c:59:e1:be:
         ce:7f:0f:4e:57:26:08:3f:9e:3f:07:6e:c0:b6:77:a0:22:2d:
         f5:16:e5:47:56:dd:72:68:5a:93:e6:6b:24:f3:f0:78:12:66:
         3b:c6:14:37:1d:2a:29:db:6b:35:7d:98:19:dc:ae:09:bd:d5:
         8a:6d:6b:a7:af:be:f7:8b:9d:19:33:a7:cb:f6:20:75:70:24:
         60:e0:1a:d9:29:74:5b:44:dd:31:97:1f:85:8d:d0:ec:64:b9:
         67:c0:f3:b9:8c:71:8e:61:9a:0f:81:a0:d9:d7:9a:4e:5a:5b:
         50:5b
-----BEGIN CERTIFICATE-----
MIIDMTCCApqgAwIBAgICAMkwDQYJKoZIhvcNAQEFBQAwejELMAkGA1UEBhMCSU4x
CzAJBgNVBAgTAktBMQwwCgYDVQQHEwNCTFIxDzANBgNVBAoTBk9yYWNsZTEMMAoG
A1UECxMDSURNMREwDwYDVQQDFAhtYWNfcm9vdDEeMBwGCSqGSIb3DQEJARYPcm9v
dEBvcmFjbGUuY29tMB4XDTIwMDQyNDA0MzI0OVoXDTIyMDQyNDA0MzI0OVowejEL
MAkGA1UEBhMCSU4xCzAJBgNVBAgTAktBMQwwCgYDVQQHEwNCTFIxDzANBgNVBAoT
Bk9yYWNsZTEMMAoGA1UECxMDSURNMQ8wDQYDVQQDEwZla3Vkb2QxIDAeBgkqhkiG
9w0BCQEWEWVrdWRvZEBvcmFjbGUuY29tMIGfMA0GCSqGSIb3DQEBAQUAA4GNADCB
iQKBgQDJxNPnr4wcjWPJJcQitUHBPajQC4gxhxKF9r+am3MnUyxmSVlDD4JcBGgh
OVZC/uXAFp9ueWEILGQQpRA1M0mq3OHVseMypjCbCOwrVduS/Dwk7sHVYZmnemhZ
RsB2TRAdqj2LW4l8ZKaLADDRk/Tzt08K2a/DuIAHHOBq1FpEVQIDAQABo4HFMIHC
MBwGA1UdEQQVMBOBEWVrdWRvZEBvcmFjbGUuY29tMAwGA1UdEwEB/wQCMAAwHwYD
VR0jBBgwFoAU2/hqFQqCUx/C68zQboNyV+RF8nQwPgYIKwYBBQUHAQEEMjAwMC4G
CCsGAQUFBzABhiJodHRwOi8vc2xjMTJweXQudXMub3JhY2xlLmNvbTo2MDYwMDMG
A1UdJQQsMCoGCCsGAQUFBwMCBggrBgEFBQcDBAYIKwYBBQUHAwkGCisGAQQBgjcU
AgIwDQYJKoZIhvcNAQEFBQADgYEABdTSi3ih0J5s1MxEujRcWeG+zn8PTlcmCD+e
PwduwLZ3oCIt9RblR1bdcmhak+ZrJPPweBJmO8YUNx0qKdtrNX2YGdyuCb3Vim1r
p6++94udGTOny/YgdXAkYOAa2Sl0W0TdMZcfhY3Q7GS5Z8DzuYxxjmGaD4Gg2dea
TlpbUFs=
-----END CERTIFICATE-----
