Certificate:
    Data:
        Version: 3 (0x2)
        Serial Number: 202 (0xca)
    Signature Algorithm: sha1WithRSAEncryption
        Issuer: C=IN, ST=KA, L=BLR, O=Oracle, OU=IDM, CN=mac_root/emailAddress=root@oracle.com
        Validity
            Not Before: Apr 24 04:56:10 2020 GMT
            Not After : Apr 24 04:56:10 2022 GMT
        Subject: C=IN, ST=KA, L=BLR, O=Oracle, OU=IDM, CN=ekuless/emailAddress=ekuless@oracle.com
        Subject Public Key Info:
            Public Key Algorithm: rsaEncryption
                Public-Key: (1024 bit)
                Modulus:
                    00:b5:76:7f:ed:e9:77:27:6e:36:0d:a2:5f:6c:b1:
                    40:cd:37:64:31:0b:73:a1:a0:d9:37:1d:53:6e:93:
                    c7:3e:b8:6c:aa:4c:a0:c2:ea:0d:4e:81:37:e1:ed:
                    5b:a2:8c:c7:ca:d9:e8:a7:b7:11:0a:da:a7:7b:57:
                    d7:a1:e4:34:ab:03:1a:8d:93:e0:42:1c:1b:47:3e:
                    a9:96:26:36:f0:31:42:81:cc:27:65:14:fa:82:ef:
                    20:7c:e0:22:2c:9a:2b:84:27:65:bb:3c:0e:a1:c7:
                    6c:f7:dd:ed:84:14:c6:e8:8e:9c:ff:d8:8d:e0:57:
                    55:0b:bc:e7:93:24:b0:89:69
                Exponent: 65537 (0x10001)
        X509v3 extensions:
            X509v3 Subject Alternative Name: 
                email:ekuless@oracle.com
            X509v3 Basic Constraints: critical
                CA:FALSE
            X509v3 Authority Key Identifier: 
                keyid:DB:F8:6A:15:0A:82:53:1F:C2:EB:CC:D0:6E:83:72:57:E4:45:F2:74

            Authority Information Access: 
                OCSP - URI:http://slc12pyt.us.oracle.com:6060

            X509v3 Extended Key Usage: 
                TLS Web Client Authentication
    Signature Algorithm: sha1WithRSAEncryption
         49:03:c3:e8:f2:88:89:54:4f:f3:af:15:75:b7:8c:c4:24:65:
         3b:51:e0:35:a2:fb:c2:90:2c:24:de:da:86:02:2e:01:83:7c:
         28:d0:cc:75:39:0c:fa:e5:2f:3a:4d:26:ad:a9:36:69:78:0b:
         12:28:c9:72:98:ab:55:c6:6e:c7:1a:3d:5f:51:0e:46:ca:34:
         f3:b4:42:8c:ed:9b:9a:60:3a:d5:60:0f:9f:b4:b4:58:82:e5:
         7d:3c:9f:6e:93:13:75:43:80:0d:48:12:c5:a2:98:6a:ac:be:
         57:b6:31:da:aa:b8:74:30:96:f5:f0:d8:72:bb:42:bf:56:1d:
         c0:86
-----BEGIN CERTIFICATE-----
MIIDFDCCAn2gAwIBAgICAMowDQYJKoZIhvcNAQEFBQAwejELMAkGA1UEBhMCSU4x
CzAJBgNVBAgTAktBMQwwCgYDVQQHEwNCTFIxDzANBgNVBAoTBk9yYWNsZTEMMAoG
A1UECxMDSURNMREwDwYDVQQDFAhtYWNfcm9vdDEeMBwGCSqGSIb3DQEJARYPcm9v
dEBvcmFjbGUuY29tMB4XDTIwMDQyNDA0NTYxMFoXDTIyMDQyNDA0NTYxMFowfDEL
MAkGA1UEBhMCSU4xCzAJBgNVBAgTAktBMQwwCgYDVQQHEwNCTFIxDzANBgNVBAoT
Bk9yYWNsZTEMMAoGA1UECxMDSURNMRAwDgYDVQQDEwdla3VsZXNzMSEwHwYJKoZI
hvcNAQkBFhJla3VsZXNzQG9yYWNsZS5jb20wgZ8wDQYJKoZIhvcNAQEBBQADgY0A
MIGJAoGBALV2f+3pdyduNg2iX2yxQM03ZDELc6Gg2TcdU26Txz64bKpMoMLqDU6B
N+HtW6KMx8rZ6Ke3EQrap3tX16HkNKsDGo2T4EIcG0c+qZYmNvAxQoHMJ2UU+oLv
IHzgIiyaK4QnZbs8DqHHbPfd7YQUxuiOnP/YjeBXVQu855MksIlpAgMBAAGjgaYw
gaMwHQYDVR0RBBYwFIESZWt1bGVzc0BvcmFjbGUuY29tMAwGA1UdEwEB/wQCMAAw
HwYDVR0jBBgwFoAU2/hqFQqCUx/C68zQboNyV+RF8nQwPgYIKwYBBQUHAQEEMjAw
MC4GCCsGAQUFBzABhiJodHRwOi8vc2xjMTJweXQudXMub3JhY2xlLmNvbTo2MDYw
MBMGA1UdJQQMMAoGCCsGAQUFBwMCMA0GCSqGSIb3DQEBBQUAA4GBAEkDw+jyiIlU
T/OvFXW3jMQkZTtR4DWi+8KQLCTe2oYCLgGDfCjQzHU5DPrlLzpNJq2pNml4CxIo
yXKYq1XGbscaPV9RDkbKNPO0Qoztm5pgOtVgD5+0tFiC5X08n26TE3VDgA1IEsWi
mGqsvle2MdqquHQwlvXw2HK7Qr9WHcCG
-----END CERTIFICATE-----
