Certificate:
    Data:
        Version: 3 (0x2)
        Serial Number: 203 (0xcb)
    Signature Algorithm: sha1WithRSAEncryption
        Issuer: C=IN, ST=KA, L=BLR, O=Oracle, OU=IDM, CN=mac_root/emailAddress=root@oracle.com
        Validity
            Not Before: May 18 09:45:35 2020 GMT
            Not After : May 18 09:45:35 2022 GMT
        Subject: C=IN, ST=KA, L=BLR, O=Oracle, OU=IDM, CN=ekuvariation/emailAddress=ekuvariation@oracle.com
        Subject Public Key Info:
            Public Key Algorithm: rsaEncryption
                Public-Key: (1024 bit)
                Modulus:
                    00:9d:89:4e:39:c4:01:2d:18:75:06:95:1f:b2:b4:
                    21:78:e5:f6:7c:f8:88:a5:b3:a3:6a:61:81:f4:f4:
                    ac:a8:fc:59:94:9a:e1:c8:29:36:ae:75:00:cb:ca:
                    52:ee:39:ea:d8:72:80:78:23:bc:a2:63:c8:28:ce:
                    aa:0b:ab:d0:3c:c3:5e:dd:1f:ec:45:32:19:8a:fc:
                    ac:a5:f2:a0:fb:cd:74:90:04:2d:5e:ab:a9:1e:e0:
                    cb:5c:45:be:df:5a:fc:c8:ed:2e:54:60:ad:dd:ef:
                    09:14:91:e6:91:41:45:35:1b:f3:43:8b:a6:e8:52:
                    63:17:d8:59:d6:f1:ea:cb:c3
                Exponent: 65537 (0x10001)
        X509v3 extensions:
            X509v3 Subject Alternative Name: 
                email:ekuvariation@oracle.com
            X509v3 Basic Constraints: critical
                CA:FALSE
            X509v3 Authority Key Identifier: 
                keyid:DB:F8:6A:15:0A:82:53:1F:C2:EB:CC:D0:6E:83:72:57:E4:45:F2:74

            Authority Information Access: 
                OCSP - URI:http://slc12pyt.us.oracle.com:6060

            X509v3 Extended Key Usage: 
                E-mail Protection, OCSP Signing, Microsoft Smartcardlogin
    Signature Algorithm: sha1WithRSAEncryption
         2c:54:94:f7:fe:97:97:b9:bd:31:18:69:99:76:0f:21:90:c4:
         54:fe:8e:37:64:23:68:15:1b:9a:d8:77:da:df:6f:9c:2c:aa:
         a5:4b:ae:ef:94:4b:8f:15:73:56:98:6d:c5:5e:22:d0:96:02:
         12:51:5f:c0:55:1c:d9:22:f0:7e:e9:b0:8d:31:3e:9e:d5:90:
         e6:b7:0d:82:0d:0f:3c:b4:01:b0:f6:89:33:7e:80:e2:05:de:
         ed:da:ee:e4:2b:92:63:a3:6c:6c:6d:87:8e:85:18:82:7a:21:
         c9:09:3d:7e:b5:e8:18:d8:f6:30:c7:03:40:32:f5:c0:f8:25:
         fa:59
-----BEGIN CERTIFICATE-----
MIIDOjCCAqOgAwIBAgICAMswDQYJKoZIhvcNAQEFBQAwejELMAkGA1UEBhMCSU4x
CzAJBgNVBAgTAktBMQwwCgYDVQQHEwNCTFIxDzANBgNVBAoTBk9yYWNsZTEMMAoG
A1UECxMDSURNMREwDwYDVQQDFAhtYWNfcm9vdDEeMBwGCSqGSIb3DQEJARYPcm9v
dEBvcmFjbGUuY29tMB4XDTIwMDUxODA5NDUzNVoXDTIyMDUxODA5NDUzNVowgYYx
CzAJBgNVBAYTAklOMQswCQYDVQQIEwJLQTEMMAoGA1UEBxMDQkxSMQ8wDQYDVQQK
EwZPcmFjbGUxDDAKBgNVBAsTA0lETTEVMBMGA1UEAxMMZWt1dmFyaWF0aW9uMSYw
JAYJKoZIhvcNAQkBFhdla3V2YXJpYXRpb25Ab3JhY2xlLmNvbTCBnzANBgkqhkiG
9w0BAQEFAAOBjQAwgYkCgYEAnYlOOcQBLRh1BpUfsrQheOX2fPiIpbOjamGB9PSs
qPxZlJrhyCk2rnUAy8pS7jnq2HKAeCO8omPIKM6qC6vQPMNe3R/sRTIZivyspfKg
+810kAQtXqupHuDLXEW+31r8yO0uVGCt3e8JFJHmkUFFNRvzQ4um6FJjF9hZ1vHq
y8MCAwEAAaOBwTCBvjAiBgNVHREEGzAZgRdla3V2YXJpYXRpb25Ab3JhY2xlLmNv
bTAMBgNVHRMBAf8EAjAAMB8GA1UdIwQYMBaAFNv4ahUKglMfwuvM0G6DclfkRfJ0
MD4GCCsGAQUFBwEBBDIwMDAuBggrBgEFBQcwAYYiaHR0cDovL3NsYzEycHl0LnVz
Lm9yYWNsZS5jb206NjA2MDApBgNVHSUEIjAgBggrBgEFBQcDBAYIKwYBBQUHAwkG
CisGAQQBgjcUAgIwDQYJKoZIhvcNAQEFBQADgYEALFSU9/6Xl7m9MRhpmXYPIZDE
VP6ON2QjaBUbmth32t9vnCyqpUuu75RLjxVzVphtxV4i0JYCElFfwFUc2SLwfumw
jTE+ntWQ5rcNgg0PPLQBsPaJM36A4gXe7dru5CuSY6NsbG2HjoUYgnohyQk9frXo
GNj2MMcDQDL1wPgl+lk=
-----END CERTIFICATE-----
