Certificate:
    Data:
        Version: 3 (0x2)
        Serial Number: 204 (0xcc)
    Signature Algorithm: sha1WithRSAEncryption
        Issuer: C=IN, ST=KA, L=BLR, O=Oracle, OU=IDM, CN=mac_root/emailAddress=root@oracle.com
        Validity
            Not Before: Jun  3 09:24:50 2020 GMT
            Not After : Jun  3 09:24:50 2022 GMT
        Subject: C=in, ST=ka, L=blr, O=oracle, OU=idm, CN=welcome1/emailAddress=welcome1@oracle.com
        Subject Public Key Info:
            Public Key Algorithm: rsaEncryption
                Public-Key: (1024 bit)
                Modulus:
                    00:bc:59:66:06:82:76:72:a8:c4:d0:6a:3d:f9:06:
                    10:51:fa:e5:07:49:83:95:69:91:33:40:b8:c0:e5:
                    8d:84:c0:e1:4f:04:a6:ed:a7:73:82:70:4c:2e:05:
                    04:8e:4e:23:3e:7c:0f:d1:80:3d:05:fe:7e:81:e6:
                    75:bb:de:c7:61:59:87:f1:ad:01:53:b4:cf:c0:2f:
                    b0:e9:ad:ab:ea:71:5c:60:2a:1e:78:54:fe:38:84:
                    b1:84:a7:ed:16:69:d8:7f:6b:e1:14:e0:9e:5d:cc:
                    93:09:1f:ea:56:bd:71:a2:da:0e:9c:ba:09:97:90:
                    68:21:33:64:f2:2e:c1:67:9b
                Exponent: 65537 (0x10001)
        X509v3 extensions:
            X509v3 Subject Alternative Name: 
                email:welcome1@oracle.com
            X509v3 Basic Constraints: critical
                CA:FALSE
            X509v3 Authority Key Identifier: 
                keyid:DB:F8:6A:15:0A:82:53:1F:C2:EB:CC:D0:6E:83:72:57:E4:45:F2:74

            Authority Information Access: 
                OCSP - URI:http://slc12pyt.us.oracle.com:6060

            X509v3 Extended Key Usage: 
                Microsoft Smartcardlogin
    Signature Algorithm: sha1WithRSAEncryption
         61:87:97:90:a6:43:7f:3c:0a:c0:84:e6:21:ed:27:17:ea:70:
         a3:5b:8c:90:2a:08:09:dc:34:f7:69:3c:8a:8f:75:16:d9:48:
         72:c0:ad:f3:ad:98:6a:fc:70:01:f2:a8:68:f9:63:6e:ac:39:
         1c:49:4d:a6:59:48:45:f1:65:fe:89:af:bd:72:52:6e:68:73:
         90:97:6d:64:65:d9:93:1b:d2:f8:76:66:a1:48:aa:c6:43:f3:
         85:9f:3c:25:c8:38:53:52:74:44:a9:8b:b6:30:4f:83:7a:f4:
         6e:21:27:c0:1c:50:77:27:25:dd:7c:ed:1e:70:da:f2:4b:9a:
         7a:64
-----BEGIN CERTIFICATE-----
MIIDGTCCAoKgAwIBAgICAMwwDQYJKoZIhvcNAQEFBQAwejELMAkGA1UEBhMCSU4x
CzAJBgNVBAgTAktBMQwwCgYDVQQHEwNCTFIxDzANBgNVBAoTBk9yYWNsZTEMMAoG
A1UECxMDSURNMREwDwYDVQQDFAhtYWNfcm9vdDEeMBwGCSqGSIb3DQEJARYPcm9v
dEBvcmFjbGUuY29tMB4XDTIwMDYwMzA5MjQ1MFoXDTIyMDYwMzA5MjQ1MFowfjEL
MAkGA1UEBhMCaW4xCzAJBgNVBAgTAmthMQwwCgYDVQQHEwNibHIxDzANBgNVBAoT
Bm9yYWNsZTEMMAoGA1UECxMDaWRtMREwDwYDVQQDEwh3ZWxjb21lMTEiMCAGCSqG
SIb3DQEJARYTd2VsY29tZTFAb3JhY2xlLmNvbTCBnzANBgkqhkiG9w0BAQEFAAOB
jQAwgYkCgYEAvFlmBoJ2cqjE0Go9+QYQUfrlB0mDlWmRM0C4wOWNhMDhTwSm7adz
gnBMLgUEjk4jPnwP0YA9Bf5+geZ1u97HYVmH8a0BU7TPwC+w6a2r6nFcYCoeeFT+
OISxhKftFmnYf2vhFOCeXcyTCR/qVr1xotoOnLoJl5BoITNk8i7BZ5sCAwEAAaOB
qTCBpjAeBgNVHREEFzAVgRN3ZWxjb21lMUBvcmFjbGUuY29tMAwGA1UdEwEB/wQC
MAAwHwYDVR0jBBgwFoAU2/hqFQqCUx/C68zQboNyV+RF8nQwPgYIKwYBBQUHAQEE
MjAwMC4GCCsGAQUFBzABhiJodHRwOi8vc2xjMTJweXQudXMub3JhY2xlLmNvbTo2
MDYwMBUGA1UdJQQOMAwGCisGAQQBgjcUAgIwDQYJKoZIhvcNAQEFBQADgYEAYYeX
kKZDfzwKwITmIe0nF+pwo1uMkCoICdw092k8io91FtlIcsCt862YavxwAfKoaPlj
bqw5HElNpllIRfFl/omvvXJSbmhzkJdtZGXZkxvS+HZmoUiqxkPzhZ88Jcg4U1J0
RKmLtjBPg3r0biEnwBxQdycl3XztHnDa8kuaemQ=
-----END CERTIFICATE-----
