Certificate:
    Data:
        Version: 3 (0x2)
        Serial Number: 205 (0xcd)
    Signature Algorithm: sha1WithRSAEncryption
        Issuer: C=IN, ST=KA, L=BLR, O=Oracle, OU=IDM, CN=mac_root/emailAddress=root@oracle.com
        Validity
            Not Before: Jun  3 09:26:02 2020 GMT
            Not After : Jun  3 09:26:02 2022 GMT
        Subject: C=in, ST=ka, L=blr, O=oracle, OU=idm, CN=weblogic1/emailAddress=weblogic1@oracle.com
        Subject Public Key Info:
            Public Key Algorithm: rsaEncryption
                Public-Key: (1024 bit)
                Modulus:
                    00:bb:c7:a6:bc:1b:29:81:82:88:77:d7:ee:1c:53:
                    aa:b7:0a:52:68:38:eb:fe:4d:1c:36:d0:ca:76:a7:
                    1b:35:63:30:f7:1d:98:20:e5:45:f1:bf:ef:7e:cd:
                    2d:03:6f:71:4c:4e:61:0a:73:db:0f:1e:9b:c3:70:
                    5e:8c:2e:44:51:87:33:95:76:e2:6a:9f:65:94:ea:
                    bd:21:fa:bc:ad:d0:47:d0:49:0e:3b:44:18:38:1d:
                    ad:d6:da:f8:62:1c:56:39:34:74:b2:4c:c8:ac:64:
                    9d:06:20:60:c0:a3:f4:8a:f8:a1:40:0b:9e:ed:91:
                    86:f2:7d:e3:7c:f1:d0:10:11
                Exponent: 65537 (0x10001)
        X509v3 extensions:
            X509v3 Subject Alternative Name: 
                email:weblogic1@oracle.com
            X509v3 Basic Constraints: critical
                CA:FALSE
            X509v3 Authority Key Identifier: 
                keyid:DB:F8:6A:15:0A:82:53:1F:C2:EB:CC:D0:6E:83:72:57:E4:45:F2:74

            Authority Information Access: 
                OCSP - URI:http://slc12pyt.us.oracle.com:6060

            X509v3 Extended Key Usage: 
                Microsoft Smartcardlogin
    Signature Algorithm: sha1WithRSAEncryption
         75:19:22:77:4f:0b:3b:f0:40:4d:49:60:bd:62:c2:e2:78:1c:
         f2:cd:de:1c:75:dc:3f:f7:d5:00:eb:77:cd:31:f5:c4:81:9f:
         6b:d3:87:16:e2:b6:37:75:de:27:14:08:a7:60:dc:7e:2c:10:
         3f:55:9e:de:fb:1a:80:a6:c9:72:18:00:c2:58:fc:5d:f7:b9:
         97:b0:ab:1d:1e:73:bc:3f:17:0d:2c:88:cf:b9:51:9a:d4:58:
         85:0b:bc:a8:c3:fc:fb:2b:84:9c:db:c8:a0:63:df:77:10:8b:
         a2:61:f0:6e:54:f6:23:5b:08:2a:b2:ed:9e:04:0a:f9:3b:b6:
         c7:88
-----BEGIN CERTIFICATE-----
MIIDHTCCAoagAwIBAgICAM0wDQYJKoZIhvcNAQEFBQAwejELMAkGA1UEBhMCSU4x
CzAJBgNVBAgTAktBMQwwCgYDVQQHEwNCTFIxDzANBgNVBAoTBk9yYWNsZTEMMAoG
A1UECxMDSURNMREwDwYDVQQDFAhtYWNfcm9vdDEeMBwGCSqGSIb3DQEJARYPcm9v
dEBvcmFjbGUuY29tMB4XDTIwMDYwMzA5MjYwMloXDTIyMDYwMzA5MjYwMlowgYAx
CzAJBgNVBAYTAmluMQswCQYDVQQIEwJrYTEMMAoGA1UEBxMDYmxyMQ8wDQYDVQQK
EwZvcmFjbGUxDDAKBgNVBAsTA2lkbTESMBAGA1UEAxMJd2VibG9naWMxMSMwIQYJ
KoZIhvcNAQkBFhR3ZWJsb2dpYzFAb3JhY2xlLmNvbTCBnzANBgkqhkiG9w0BAQEF
AAOBjQAwgYkCgYEAu8emvBspgYKId9fuHFOqtwpSaDjr/k0cNtDKdqcbNWMw9x2Y
IOVF8b/vfs0tA29xTE5hCnPbDx6bw3BejC5EUYczlXbiap9llOq9Ifq8rdBH0EkO
O0QYOB2t1tr4YhxWOTR0skzIrGSdBiBgwKP0ivihQAue7ZGG8n3jfPHQEBECAwEA
AaOBqjCBpzAfBgNVHREEGDAWgRR3ZWJsb2dpYzFAb3JhY2xlLmNvbTAMBgNVHRMB
Af8EAjAAMB8GA1UdIwQYMBaAFNv4ahUKglMfwuvM0G6DclfkRfJ0MD4GCCsGAQUF
BwEBBDIwMDAuBggrBgEFBQcwAYYiaHR0cDovL3NsYzEycHl0LnVzLm9yYWNsZS5j
b206NjA2MDAVBgNVHSUEDjAMBgorBgEEAYI3FAICMA0GCSqGSIb3DQEBBQUAA4GB
AHUZIndPCzvwQE1JYL1iwuJ4HPLN3hx13D/31QDrd80x9cSBn2vThxbitjd13icU
CKdg3H4sED9Vnt77GoCmyXIYAMJY/F33uZewqx0ec7w/Fw0siM+5UZrUWIULvKjD
/PsrhJzbyKBj33cQi6Jh8G5U9iNbCCqy7Z4ECvk7tseI
-----END CERTIFICATE-----
