Certificate:
    Data:
        Version: 3 (0x2)
        Serial Number: 206 (0xce)
    Signature Algorithm: sha1WithRSAEncryption
        Issuer: C=IN, ST=KA, L=BLR, O=Oracle, OU=IDM, CN=mac_root/emailAddress=root@oracle.com
        Validity
            Not Before: Jun  3 09:30:33 2020 GMT
            Not After : Jun  3 09:30:33 2022 GMT
        Subject: C=in, ST=ka, L=blr, O=oracle, OU=idm, CN=weblogic0/emailAddress=weblogic0@oracle.com
        Subject Public Key Info:
            Public Key Algorithm: rsaEncryption
                Public-Key: (1024 bit)
                Modulus:
                    00:b0:77:9a:be:33:f8:ae:a9:60:50:f3:13:ed:0a:
                    c9:d0:62:f4:31:98:b8:bd:cf:fa:a7:2f:ef:3e:db:
                    1c:b0:76:3a:db:92:e1:83:b1:a2:6a:2e:1e:5b:6b:
                    cc:ab:1a:34:6f:f5:01:91:09:c5:d0:28:f8:2d:e1:
                    12:c6:20:6a:5c:52:04:ec:97:ea:7f:95:4b:00:b1:
                    92:7e:f7:82:09:a4:68:7a:a3:02:78:94:e1:9d:72:
                    c5:a5:af:aa:21:12:16:5f:a5:33:44:19:d6:54:a6:
                    a2:5d:e3:eb:9d:31:cb:8e:a6:d3:22:2e:6f:80:69:
                    f8:74:69:48:75:fe:2e:72:05
                Exponent: 65537 (0x10001)
        X509v3 extensions:
            X509v3 Subject Alternative Name: 
                email:weblogic0@oracle.com
            X509v3 Basic Constraints: critical
                CA:FALSE
            X509v3 Authority Key Identifier: 
                keyid:DB:F8:6A:15:0A:82:53:1F:C2:EB:CC:D0:6E:83:72:57:E4:45:F2:74

            Authority Information Access: 
                OCSP - URI:http://slc12pyt.us.oracle.com:6060

            X509v3 Extended Key Usage: 
                TLS Web Client Authentication, Microsoft Smartcardlogin
    Signature Algorithm: sha1WithRSAEncryption
         6e:a1:bd:31:c6:11:23:74:51:5b:a9:46:f1:63:7e:9d:df:ff:
         c2:f6:c2:b5:7f:51:53:5a:51:09:12:7f:5d:36:3e:21:21:62:
         9b:ce:06:9e:b1:e9:b0:a7:92:27:fc:70:1b:cc:a5:fb:c3:84:
         ce:74:2e:5e:70:77:8b:83:3c:ce:a7:67:6f:f0:04:e6:6b:34:
         26:80:e9:fd:de:26:11:a0:1a:34:f0:0e:3a:2c:0e:a2:3e:5e:
         e7:13:47:01:53:f1:d4:cd:9d:f0:d4:24:7a:86:75:de:c6:34:
         cd:a1:f7:9c:6d:af:ca:40:28:f9:32:28:d4:78:ab:f1:41:35:
         5c:ba
-----BEGIN CERTIFICATE-----
MIIDJzCCApCgAwIBAgICAM4wDQYJKoZIhvcNAQEFBQAwejELMAkGA1UEBhMCSU4x
CzAJBgNVBAgTAktBMQwwCgYDVQQHEwNCTFIxDzANBgNVBAoTBk9yYWNsZTEMMAoG
A1UECxMDSURNMREwDwYDVQQDFAhtYWNfcm9vdDEeMBwGCSqGSIb3DQEJARYPcm9v
dEBvcmFjbGUuY29tMB4XDTIwMDYwMzA5MzAzM1oXDTIyMDYwMzA5MzAzM1owgYAx
CzAJBgNVBAYTAmluMQswCQYDVQQIEwJrYTEMMAoGA1UEBxMDYmxyMQ8wDQYDVQQK
EwZvcmFjbGUxDDAKBgNVBAsTA2lkbTESMBAGA1UEAxMJd2VibG9naWMwMSMwIQYJ
KoZIhvcNAQkBFhR3ZWJsb2dpYzBAb3JhY2xlLmNvbTCBnzANBgkqhkiG9w0BAQEF
AAOBjQAwgYkCgYEAsHeavjP4rqlgUPMT7QrJ0GL0MZi4vc/6py/vPtscsHY625Lh
g7Giai4eW2vMqxo0b/UBkQnF0Cj4LeESxiBqXFIE7Jfqf5VLALGSfveCCaRoeqMC
eJThnXLFpa+qIRIWX6UzRBnWVKaiXePrnTHLjqbTIi5vgGn4dGlIdf4ucgUCAwEA
AaOBtDCBsTAfBgNVHREEGDAWgRR3ZWJsb2dpYzBAb3JhY2xlLmNvbTAMBgNVHRMB
Af8EAjAAMB8GA1UdIwQYMBaAFNv4ahUKglMfwuvM0G6DclfkRfJ0MD4GCCsGAQUF
BwEBBDIwMDAuBggrBgEFBQcwAYYiaHR0cDovL3NsYzEycHl0LnVzLm9yYWNsZS5j
b206NjA2MDAfBgNVHSUEGDAWBggrBgEFBQcDAgYKKwYBBAGCNxQCAjANBgkqhkiG
9w0BAQUFAAOBgQBuob0xxhEjdFFbqUbxY36d3//C9sK1f1FTWlEJEn9dNj4hIWKb
zgaesemwp5In/HAbzKX7w4TOdC5ecHeLgzzOp2dv8ATmazQmgOn93iYRoBo08A46
LA6iPl7nE0cBU/HUzZ3w1CR6hnXexjTNofecba/KQCj5MijUeKvxQTVcug==
-----END CERTIFICATE-----
