Certificate:
    Data:
        Version: 3 (0x2)
        Serial Number: 207 (0xcf)
    Signature Algorithm: sha1WithRSAEncryption
        Issuer: C=IN, ST=KA, L=BLR, O=Oracle, OU=IDM, CN=mac_root/emailAddress=root@oracle.com
        Validity
            Not Before: Jun 12 11:36:46 2020 GMT
            Not After : Jun 12 11:36:46 2022 GMT
        Subject: C=IN, ST=KA, L=BLR, O=Oracle, DC=IDM, DC=Access, OU=idm, CN=slc10zpx.us.oracle.com/emailAddress=slc10zpx@oracle.com
        Subject Public Key Info:
            Public Key Algorithm: rsaEncryption
                Public-Key: (1024 bit)
                Modulus:
                    00:bc:ff:0b:5a:0a:89:8f:30:ed:87:6e:fc:4b:34:
                    f6:20:de:11:4e:a6:69:89:29:c5:f5:22:1f:b7:2f:
                    f7:d0:44:c5:0e:4d:ee:dd:2d:c9:29:91:d3:6f:9b:
                    ff:18:55:c4:52:b9:8b:40:c1:93:e3:24:0e:a3:ae:
                    e8:1b:b5:5c:25:ba:ed:46:36:8c:8f:68:6c:f8:73:
                    f5:77:5d:e0:66:76:e9:03:b0:84:ee:83:e0:65:36:
                    54:29:c1:d4:ee:c2:10:0a:9e:10:37:65:6d:20:02:
                    e5:57:22:3f:4b:a6:2f:f0:3e:ef:ad:b1:eb:b8:e0:
                    89:72:10:2a:80:cd:1d:8d:13
                Exponent: 65537 (0x10001)
        X509v3 extensions:
            X509v3 Authority Key Identifier: 
                keyid:DB:F8:6A:15:0A:82:53:1F:C2:EB:CC:D0:6E:83:72:57:E4:45:F2:74

            X509v3 Extended Key Usage: 
                TLS Web Server Authentication, TLS Web Client Authentication, Microsoft Server Gated Crypto, Netscape Server Gated Crypto
            X509v3 Basic Constraints: critical
                CA:FALSE
    Signature Algorithm: sha1WithRSAEncryption
         6d:7d:00:2c:2b:eb:ba:23:de:ed:7c:34:e9:66:00:6a:60:5f:
         57:22:7b:b3:8b:32:97:2b:ee:91:4c:74:ea:3e:ba:39:de:7f:
         82:9b:80:28:ed:d1:d5:82:77:9e:03:65:5b:ad:e1:20:48:c1:
         e0:6c:2d:de:f0:ba:f7:b9:82:2b:c5:c4:70:b3:9e:3b:c7:ee:
         95:7e:37:e1:02:d4:e1:44:ec:1c:9d:24:f3:5c:25:d7:6d:8f:
         88:84:72:1f:da:48:4a:51:31:7e:52:82:f3:dd:96:32:f7:7b:
         9f:bb:12:1e:34:8b:db:2a:4c:0e:dc:2f:6e:ec:85:a1:8e:30:
         27:bb
-----BEGIN CERTIFICATE-----
MIIDEjCCAnugAwIBAgICAM8wDQYJKoZIhvcNAQEFBQAwejELMAkGA1UEBhMCSU4x
CzAJBgNVBAgTAktBMQwwCgYDVQQHEwNCTFIxDzANBgNVBAoTBk9yYWNsZTEMMAoG
A1UECxMDSURNMREwDwYDVQQDFAhtYWNfcm9vdDEeMBwGCSqGSIb3DQEJARYPcm9v
dEBvcmFjbGUuY29tMB4XDTIwMDYxMjExMzY0NloXDTIyMDYxMjExMzY0Nlowgbkx
CzAJBgNVBAYTAklOMQswCQYDVQQIEwJLQTEMMAoGA1UEBxMDQkxSMQ8wDQYDVQQK
EwZPcmFjbGUxEzARBgoJkiaJk/IsZAEZFgNJRE0xFjAUBgoJkiaJk/IsZAEZFgZB
Y2Nlc3MxDDAKBgNVBAsTA2lkbTEfMB0GA1UEAxMWc2xjMTB6cHgudXMub3JhY2xl
LmNvbTEiMCAGCSqGSIb3DQEJARYTc2xjMTB6cHhAb3JhY2xlLmNvbTCBnzANBgkq
hkiG9w0BAQEFAAOBjQAwgYkCgYEAvP8LWgqJjzDth278SzT2IN4RTqZpiSnF9SIf
ty/30ETFDk3u3S3JKZHTb5v/GFXEUrmLQMGT4yQOo67oG7VcJbrtRjaMj2hs+HP1
d13gZnbpA7CE7oPgZTZUKcHU7sIQCp4QN2VtIALlVyI/S6Yv8D7vrbHruOCJchAq
gM0djRMCAwEAAaNnMGUwHwYDVR0jBBgwFoAU2/hqFQqCUx/C68zQboNyV+RF8nQw
NAYDVR0lBC0wKwYIKwYBBQUHAwEGCCsGAQUFBwMCBgorBgEEAYI3CgMDBglghkgB
hvhCBAEwDAYDVR0TAQH/BAIwADANBgkqhkiG9w0BAQUFAAOBgQBtfQAsK+u6I97t
fDTpZgBqYF9XInuzizKXK+6RTHTqPro53n+Cm4Ao7dHVgneeA2VbreEgSMHgbC3e
8Lr3uYIrxcRws547x+6VfjfhAtThROwcnSTzXCXXbY+IhHIf2khKUTF+UoLz3ZYy
93ufuxIeNIvbKkwO3C9u7IWhjjAnuw==
-----END CERTIFICATE-----
