Certificate:
    Data:
        Version: 3 (0x2)
        Serial Number: 208 (0xd0)
    Signature Algorithm: sha1WithRSAEncryption
        Issuer: C=IN, ST=KA, L=BLR, O=Oracle, OU=IDM, CN=mac_root/emailAddress=root@oracle.com
        Validity
            Not Before: May 18 06:07:58 2021 GMT
            Not After : May 18 06:07:58 2023 GMT
        Subject: C=IN, ST=KA, L=BLR, O=Oracle, OU=IDM, CN=mohan/emailAddress=mohan@oracle.com
        Subject Public Key Info:
            Public Key Algorithm: rsaEncryption
                Public-Key: (1024 bit)
                Modulus:
                    00:e8:e3:d8:2b:9e:57:35:49:4a:b6:44:3d:fd:87:
                    ae:49:3a:13:79:38:ca:14:a9:49:f4:b9:cb:90:8b:
                    ea:12:53:71:34:ec:db:79:36:0b:d2:27:78:92:2e:
                    17:f6:7a:cc:25:dc:74:d7:a7:b9:91:90:9d:b4:47:
                    22:d4:dc:e1:93:04:6e:56:65:d4:03:23:54:71:cf:
                    f5:db:df:63:2c:f3:a3:a0:56:77:68:d8:7f:bc:11:
                    ea:3b:61:cc:b5:60:4e:79:ad:aa:25:a4:1f:87:7f:
                    92:51:ba:52:06:f9:0d:f1:03:a4:96:4c:89:6b:93:
                    9e:89:6d:66:11:a7:56:5d:89
                Exponent: 65537 (0x10001)
        X509v3 extensions:
            X509v3 Subject Alternative Name: 
                email:mohan@oracle.com
            X509v3 Basic Constraints: critical
                CA:FALSE
            X509v3 Authority Key Identifier: 
                keyid:DB:F8:6A:15:0A:82:53:1F:C2:EB:CC:D0:6E:83:72:57:E4:45:F2:74

            Authority Information Access: 
                OCSP - URI:http://slc12pyt.us.oracle.com:6060

            X509v3 Extended Key Usage: 
                TLS Web Client Authentication, Microsoft Smartcardlogin
    Signature Algorithm: sha1WithRSAEncryption
         9a:72:9c:7f:e2:b2:67:6d:de:af:4e:30:4c:15:76:a6:d5:87:
         98:32:5a:b1:e9:4f:48:05:88:49:a7:93:ed:7b:0b:32:64:38:
         33:e1:5c:44:9b:1f:7d:14:b2:c7:5b:86:ed:f2:ef:2c:4d:cb:
         d9:7c:bb:29:3f:2e:2f:44:b7:93:73:74:d8:52:15:a2:90:9d:
         01:d1:83:55:01:30:4c:ff:84:49:59:e2:6f:64:01:c6:e9:01:
         de:7e:ff:aa:ae:03:b0:64:4c:94:16:e3:da:ea:b8:95:e3:09:
         88:8f:a1:8c:ce:6b:c4:1f:c7:cc:2e:c8:71:9e:6c:52:fe:48:
         6a:55
-----BEGIN CERTIFICATE-----
MIIDGjCCAoOgAwIBAgICANAwDQYJKoZIhvcNAQEFBQAwejELMAkGA1UEBhMCSU4x
CzAJBgNVBAgTAktBMQwwCgYDVQQHEwNCTFIxDzANBgNVBAoTBk9yYWNsZTEMMAoG
A1UECxMDSURNMREwDwYDVQQDFAhtYWNfcm9vdDEeMBwGCSqGSIb3DQEJARYPcm9v
dEBvcmFjbGUuY29tMB4XDTIxMDUxODA2MDc1OFoXDTIzMDUxODA2MDc1OFoweDEL
MAkGA1UEBhMCSU4xCzAJBgNVBAgTAktBMQwwCgYDVQQHEwNCTFIxDzANBgNVBAoT
Bk9yYWNsZTEMMAoGA1UECxMDSURNMQ4wDAYDVQQDEwVtb2hhbjEfMB0GCSqGSIb3
DQEJARYQbW9oYW5Ab3JhY2xlLmNvbTCBnzANBgkqhkiG9w0BAQEFAAOBjQAwgYkC
gYEA6OPYK55XNUlKtkQ9/YeuSToTeTjKFKlJ9LnLkIvqElNxNOzbeTYL0id4ki4X
9nrMJdx016e5kZCdtEci1NzhkwRuVmXUAyNUcc/1299jLPOjoFZ3aNh/vBHqO2HM
tWBOea2qJaQfh3+SUbpSBvkN8QOklkyJa5OeiW1mEadWXYkCAwEAAaOBsDCBrTAb
BgNVHREEFDASgRBtb2hhbkBvcmFjbGUuY29tMAwGA1UdEwEB/wQCMAAwHwYDVR0j
BBgwFoAU2/hqFQqCUx/C68zQboNyV+RF8nQwPgYIKwYBBQUHAQEEMjAwMC4GCCsG
AQUFBzABhiJodHRwOi8vc2xjMTJweXQudXMub3JhY2xlLmNvbTo2MDYwMB8GA1Ud
JQQYMBYGCCsGAQUFBwMCBgorBgEEAYI3FAICMA0GCSqGSIb3DQEBBQUAA4GBAJpy
nH/ismdt3q9OMEwVdqbVh5gyWrHpT0gFiEmnk+17CzJkODPhXESbH30Ussdbhu3y
7yxNy9l8uyk/Li9Et5NzdNhSFaKQnQHRg1UBMEz/hElZ4m9kAcbpAd5+/6quA7Bk
TJQW49rquJXjCYiPoYzOa8Qfx8wuyHGebFL+SGpV
-----END CERTIFICATE-----
