Certificate:
    Data:
        Version: 3 (0x2)
        Serial Number: 209 (0xd1)
    Signature Algorithm: sha1WithRSAEncryption
        Issuer: C=IN, ST=KA, L=BLR, O=Oracle, OU=IDM, CN=mac_root/emailAddress=root@oracle.com
        Validity
            Not Before: May 19 05:21:05 2021 GMT
            Not After : May 19 05:21:05 2023 GMT
        Subject: C=IN, ST=KA, L=BLR, O=ORCL, OU=IDM, CN=mohan/emailAddress=mohan@oracle.com
        Subject Public Key Info:
            Public Key Algorithm: rsaEncryption
                Public-Key: (2048 bit)
                Modulus:
                    00:c6:3a:89:e8:3f:e6:b0:a2:fb:bb:8a:08:d5:f6:
                    3c:f9:b7:44:23:f9:ec:10:c3:18:78:5b:e9:d6:73:
                    3f:ca:58:9c:75:32:98:7c:34:18:41:6b:2b:7e:fd:
                    94:b9:e8:39:69:d7:56:d9:57:12:32:20:a0:49:82:
                    21:14:95:84:0b:ee:ed:6b:16:aa:02:5d:22:6e:4a:
                    c1:a9:fe:ae:91:a2:c3:4f:7d:6c:27:8f:e3:c5:c2:
                    af:bc:2c:84:bf:d7:cd:52:d3:35:12:b1:c2:a7:dc:
                    03:ee:91:c1:3d:bc:9b:73:1b:48:a9:80:92:57:a0:
                    a4:3b:8a:2b:31:42:76:3f:70:fb:42:02:db:9a:43:
                    fb:20:cb:99:8b:85:61:cc:06:eb:56:04:a7:28:1b:
                    e2:43:ce:0e:08:8d:ae:87:09:50:e5:c4:9a:d2:1d:
                    af:b8:46:8a:d6:32:15:98:71:40:fb:24:11:d3:f9:
                    3a:b4:ba:5b:96:1c:b0:d7:ad:35:7c:83:1c:d6:3c:
                    d5:d2:d0:dc:38:be:2e:94:b7:14:41:07:34:7d:91:
                    2b:30:b6:a3:75:51:26:90:5b:6f:0a:b6:e2:0a:ee:
                    35:48:86:3b:f6:d9:55:a0:b2:ca:2f:20:c6:7a:78:
                    f1:74:e7:80:14:fa:9e:43:3c:bc:d1:b8:66:39:6f:
                    ac:37
                Exponent: 65537 (0x10001)
        X509v3 extensions:
            X509v3 Subject Alternative Name: 
                email:mohan@oracle.com
            X509v3 Basic Constraints: critical
                CA:FALSE
            X509v3 Authority Key Identifier: 
                keyid:DB:F8:6A:15:0A:82:53:1F:C2:EB:CC:D0:6E:83:72:57:E4:45:F2:74

            Authority Information Access: 
                OCSP - URI:http://slc12pyt.us.oracle.com:6060

            X509v3 Extended Key Usage: 
                TLS Web Client Authentication, Microsoft Smartcardlogin
    Signature Algorithm: sha1WithRSAEncryption
         02:f2:9f:30:ac:e3:99:24:cc:ff:78:50:fe:ee:87:8d:59:f9:
         fd:7d:b9:ac:26:8d:14:61:fb:7b:e8:7e:81:d4:b9:5c:98:a2:
         27:5c:3c:ad:2f:f4:dc:57:6a:d3:40:e2:a2:a7:7c:33:6c:98:
         cb:01:ea:b6:f2:30:c6:90:5c:36:53:43:ab:e9:c3:82:11:38:
         d8:29:96:bd:62:46:d0:f0:81:32:b9:b3:75:ab:53:ba:50:ad:
         e9:f3:2f:e2:c3:ca:92:78:1a:86:e3:e0:04:f2:b0:a2:f7:a2:
         94:a0:6a:f5:30:65:5e:16:ca:99:b9:05:70:d6:56:bb:5f:81:
         f4:9c
-----BEGIN CERTIFICATE-----
MIIDnDCCAwWgAwIBAgICANEwDQYJKoZIhvcNAQEFBQAwejELMAkGA1UEBhMCSU4x
CzAJBgNVBAgTAktBMQwwCgYDVQQHEwNCTFIxDzANBgNVBAoTBk9yYWNsZTEMMAoG
A1UECxMDSURNMREwDwYDVQQDFAhtYWNfcm9vdDEeMBwGCSqGSIb3DQEJARYPcm9v
dEBvcmFjbGUuY29tMB4XDTIxMDUxOTA1MjEwNVoXDTIzMDUxOTA1MjEwNVowdjEL
MAkGA1UEBhMCSU4xCzAJBgNVBAgTAktBMQwwCgYDVQQHEwNCTFIxDTALBgNVBAoT
BE9SQ0wxDDAKBgNVBAsTA0lETTEOMAwGA1UEAxMFbW9oYW4xHzAdBgkqhkiG9w0B
CQEWEG1vaGFuQG9yYWNsZS5jb20wggEiMA0GCSqGSIb3DQEBAQUAA4IBDwAwggEK
AoIBAQDGOonoP+awovu7igjV9jz5t0Qj+ewQwxh4W+nWcz/KWJx1Mph8NBhBayt+
/ZS56Dlp11bZVxIyIKBJgiEUlYQL7u1rFqoCXSJuSsGp/q6RosNPfWwnj+PFwq+8
LIS/181S0zUSscKn3APukcE9vJtzG0ipgJJXoKQ7iisxQnY/cPtCAtuaQ/sgy5mL
hWHMButWBKcoG+JDzg4Ija6HCVDlxJrSHa+4RorWMhWYcUD7JBHT+Tq0uluWHLDX
rTV8gxzWPNXS0Nw4vi6UtxRBBzR9kSswtqN1USaQW28KtuIK7jVIhjv22VWgssov
IMZ6ePF054AU+p5DPLzRuGY5b6w3AgMBAAGjgbAwga0wGwYDVR0RBBQwEoEQbW9o
YW5Ab3JhY2xlLmNvbTAMBgNVHRMBAf8EAjAAMB8GA1UdIwQYMBaAFNv4ahUKglMf
wuvM0G6DclfkRfJ0MD4GCCsGAQUFBwEBBDIwMDAuBggrBgEFBQcwAYYiaHR0cDov
L3NsYzEycHl0LnVzLm9yYWNsZS5jb206NjA2MDAfBgNVHSUEGDAWBggrBgEFBQcD
AgYKKwYBBAGCNxQCAjANBgkqhkiG9w0BAQUFAAOBgQAC8p8wrOOZJMz/eFD+7oeN
Wfn9fbmsJo0UYft76H6B1LlcmKInXDytL/TcV2rTQOKip3wzbJjLAeq28jDGkFw2
U0Or6cOCETjYKZa9YkbQ8IEyubN1q1O6UK3p8y/iw8qSeBqG4+AE8rCi96KUoGr1
MGVeFsqZuQVw1la7X4H0nA==
-----END CERTIFICATE-----
