Certificate:
    Data:
        Version: 3 (0x2)
        Serial Number: 210 (0xd2)
    Signature Algorithm: sha1WithRSAEncryption
        Issuer: C=IN, ST=KA, L=BLR, O=ORCL, OU=IDM, CN=rootca/emailAddress=kgurupra@oracle.com
        Validity
            Not Before: Jun 10 08:38:25 2021 GMT
            Not After : Jun 10 08:38:25 2023 GMT
        Subject: C=IN, ST=KA, L=BLR, O=ORCL, DC=IDM, DC=IAM, OU=OAM, CN=slc12ldo/emailAddress=kgurupra@oracle.com
        Subject Public Key Info:
            Public Key Algorithm: rsaEncryption
                Public-Key: (1024 bit)
                Modulus:
                    00:e9:52:bf:f6:7b:53:01:5e:c2:ed:0a:f1:af:0f:
                    0d:97:fa:1f:9d:e4:91:c8:07:ce:dd:9e:64:6c:8b:
                    e7:1c:90:d6:1d:78:5d:79:54:c5:ef:24:94:43:dd:
                    5d:c0:21:47:db:27:ad:7a:d5:c1:11:9e:a1:61:82:
                    37:46:1d:62:7f:cb:65:d8:fc:44:44:8a:7f:57:1d:
                    fc:56:63:f7:4b:74:1a:9e:0f:bf:f8:15:ce:94:4b:
                    eb:37:1a:70:16:4e:57:53:8e:e0:b1:b8:de:65:98:
                    a1:e0:1a:d4:6b:fd:0f:ed:d9:e3:27:f0:2b:e9:86:
                    cc:9c:01:47:6d:0f:fa:1b:1b
                Exponent: 65537 (0x10001)
        X509v3 extensions:
            X509v3 Authority Key Identifier: 
                keyid:DB:F8:6A:15:0A:82:53:1F:C2:EB:CC:D0:6E:83:72:57:E4:45:F2:74

            X509v3 Extended Key Usage: 
                TLS Web Server Authentication, TLS Web Client Authentication, Microsoft Server Gated Crypto, Netscape Server Gated Crypto
            X509v3 Basic Constraints: critical
                CA:FALSE
    Signature Algorithm: sha1WithRSAEncryption
         64:00:31:72:e1:b3:2f:62:96:1a:de:0e:05:0c:dc:04:31:d1:
         0a:00:4a:e9:07:50:6b:f6:ec:05:17:8d:52:6d:07:6c:65:8f:
         45:e7:7f:a3:b0:51:f1:3b:36:bb:4c:58:e4:e4:f4:40:4c:9d:
         40:8b:c9:9d:98:3d:bf:c0:ab:fb:cb:4b:01:e8:b9:4b:df:f8:
         b9:24:3f:5e:d2:ac:93:9a:8a:4d:6f:8e:03:4c:72:cf:f5:9b:
         b1:78:ab:a2:51:40:1e:08:88:8b:f0:27:6c:d7:d5:e6:7e:d1:
         68:a7:08:7a:26:be:5c:55:69:93:fe:71:5f:69:da:f0:4b:13:
         a4:62
-----BEGIN CERTIFICATE-----
MIIC/zCCAmigAwIBAgICANIwDQYJKoZIhvcNAQEFBQAwejELMAkGA1UEBhMCSU4x
CzAJBgNVBAgTAktBMQwwCgYDVQQHEwNCTFIxDTALBgNVBAoTBE9SQ0wxDDAKBgNV
BAsTA0lETTEPMA0GA1UEAxMGcm9vdGNhMSIwIAYJKoZIhvcNAQkBFhNrZ3VydXBy
YUBvcmFjbGUuY29tMB4XDTIxMDYxMDA4MzgyNVoXDTIzMDYxMDA4MzgyNVowgaYx
CzAJBgNVBAYTAklOMQswCQYDVQQIEwJLQTEMMAoGA1UEBxMDQkxSMQ0wCwYDVQQK
EwRPUkNMMRMwEQYKCZImiZPyLGQBGRYDSURNMRMwEQYKCZImiZPyLGQBGRYDSUFN
MQwwCgYDVQQLEwNPQU0xETAPBgNVBAMTCHNsYzEybGRvMSIwIAYJKoZIhvcNAQkB
FhNrZ3VydXByYUBvcmFjbGUuY29tMIGfMA0GCSqGSIb3DQEBAQUAA4GNADCBiQKB
gQDpUr/2e1MBXsLtCvGvDw2X+h+d5JHIB87dnmRsi+cckNYdeF15VMXvJJRD3V3A
IUfbJ6161cERnqFhgjdGHWJ/y2XY/EREin9XHfxWY/dLdBqeD7/4Fc6US+s3GnAW
TldTjuCxuN5lmKHgGtRr/Q/t2eMn8CvphsycAUdtD/obGwIDAQABo2cwZTAfBgNV
HSMEGDAWgBTb+GoVCoJTH8LrzNBug3JX5EXydDA0BgNVHSUELTArBggrBgEFBQcD
AQYIKwYBBQUHAwIGCisGAQQBgjcKAwMGCWCGSAGG+EIEATAMBgNVHRMBAf8EAjAA
MA0GCSqGSIb3DQEBBQUAA4GBAGQAMXLhsy9ilhreDgUM3AQx0QoASukHUGv27AUX
jVJtB2xlj0Xnf6OwUfE7NrtMWOTk9EBMnUCLyZ2YPb/Aq/vLSwHouUvf+LkkP17S
rJOaik1vjgNMcs/1m7F4q6JRQB4IiIvwJ2zX1eZ+0WinCHomvlxVaZP+cV9p2vBL
E6Ri
-----END CERTIFICATE-----
