Certificate:
    Data:
        Version: 3 (0x2)
        Serial Number: 212 (0xd4)
    Signature Algorithm: sha1WithRSAEncryption
        Issuer: C=IN, ST=KA, L=BLR, O=ORCL, OU=IDM, CN=rootca/emailAddress=kgurupra@oracle.com
        Validity
            Not Before: Jul 21 03:55:18 2021 GMT
            Not After : Jul 21 03:55:18 2023 GMT
        Subject: C=IN, ST=KA, L=BLR, O=IAM, OU=OAM, CN=rt-expiredclient/emailAddress=kgurupra@oracle.com
        Subject Public Key Info:
            Public Key Algorithm: rsaEncryption
                Public-Key: (2048 bit)
                Modulus:
                    00:c5:04:79:13:7a:3b:79:fd:e7:61:e1:65:e3:cb:
                    5a:df:97:ca:fd:3d:07:8d:64:d3:42:27:48:f3:8f:
                    df:df:ae:dc:ec:73:88:39:5a:e2:f6:dd:cc:6e:2d:
                    df:79:96:de:36:84:76:03:50:a5:f1:ee:d8:49:60:
                    89:74:b6:7c:16:55:9c:36:2f:b9:ac:f5:4c:07:0d:
                    f5:91:2f:71:4c:61:d4:f3:a0:12:05:0c:10:a7:0f:
                    db:90:78:96:b0:b7:06:d2:65:b7:d5:2e:08:45:91:
                    be:97:13:78:ff:02:4d:89:e8:e4:25:09:08:5b:aa:
                    d7:26:b0:07:89:18:5a:b6:04:ff:36:ed:03:17:8d:
                    0a:f9:84:05:92:68:4b:6a:88:60:f1:b6:2b:57:52:
                    29:f0:f7:73:5b:67:32:fb:87:38:eb:ae:c0:43:19:
                    e8:8d:7d:2b:2b:30:de:90:4b:b1:9e:69:6e:99:46:
                    37:0b:55:29:8f:a8:f9:19:63:a3:ed:29:f7:a5:56:
                    da:27:68:9e:a8:e6:34:67:3a:56:24:87:b1:60:9b:
                    e6:db:d8:67:08:d9:48:41:15:27:0e:34:94:a0:46:
                    4b:eb:23:ff:3a:d6:d6:ba:c1:3a:e4:d6:64:93:e5:
                    5a:2b:22:a1:84:e4:fe:83:ae:b9:4a:0a:1e:e3:6b:
                    d9:43
                Exponent: 65537 (0x10001)
        X509v3 extensions:
            X509v3 Subject Alternative Name: 
                email:kgurupra@oracle.com
            X509v3 Basic Constraints: critical
                CA:FALSE
            X509v3 Authority Key Identifier: 
                keyid:DB:F8:6A:15:0A:82:53:1F:C2:EB:CC:D0:6E:83:72:57:E4:45:F2:74

            Authority Information Access: 
                OCSP - URI:http://slc12pyt.us.oracle.com:6060

            X509v3 Extended Key Usage: 
                TLS Web Client Authentication, Microsoft Smartcardlogin
    Signature Algorithm: sha1WithRSAEncryption
         7e:be:29:c2:c5:8e:ed:4f:6b:4c:10:6b:ad:06:30:25:48:6f:
         b3:53:09:c2:1a:ff:68:99:30:c1:41:59:6e:e7:97:04:7b:ed:
         47:55:6c:61:5b:f4:5d:2b:55:a2:9c:de:96:16:f0:3c:3a:26:
         51:c1:2a:f4:52:d8:6d:11:8f:f1:dc:ef:aa:4b:98:bc:eb:73:
         c2:b2:6e:cb:0a:2e:c2:fb:68:09:4b:1c:1c:46:d5:4f:3b:c8:
         bf:aa:0e:2d:d9:08:11:48:30:b1:88:01:42:26:79:a6:9e:09:
         9e:76:0c:41:84:ba:cf:9f:8d:ec:cc:f8:b0:5d:ee:08:8b:2d:
         00:b1
-----BEGIN CERTIFICATE-----
MIIDrTCCAxagAwIBAgICANQwDQYJKoZIhvcNAQEFBQAwejELMAkGA1UEBhMCSU4x
CzAJBgNVBAgTAktBMQwwCgYDVQQHEwNCTFIxDTALBgNVBAoTBE9SQ0wxDDAKBgNV
BAsTA0lETTEPMA0GA1UEAxMGcm9vdGNhMSIwIAYJKoZIhvcNAQkBFhNrZ3VydXBy
YUBvcmFjbGUuY29tMB4XDTIxMDcyMTAzNTUxOFoXDTIzMDcyMTAzNTUxOFowgYMx
CzAJBgNVBAYTAklOMQswCQYDVQQIEwJLQTEMMAoGA1UEBxMDQkxSMQwwCgYDVQQK
EwNJQU0xDDAKBgNVBAsTA09BTTEZMBcGA1UEAxMQcnQtZXhwaXJlZGNsaWVudDEi
MCAGCSqGSIb3DQEJARYTa2d1cnVwcmFAb3JhY2xlLmNvbTCCASIwDQYJKoZIhvcN
AQEBBQADggEPADCCAQoCggEBAMUEeRN6O3n952HhZePLWt+Xyv09B41k00InSPOP
39+u3OxziDla4vbdzG4t33mW3jaEdgNQpfHu2ElgiXS2fBZVnDYvuaz1TAcN9ZEv
cUxh1POgEgUMEKcP25B4lrC3BtJlt9UuCEWRvpcTeP8CTYno5CUJCFuq1yawB4kY
WrYE/zbtAxeNCvmEBZJoS2qIYPG2K1dSKfD3c1tnMvuHOOuuwEMZ6I19Kysw3pBL
sZ5pbplGNwtVKY+o+Rljo+0p96VW2idonqjmNGc6ViSHsWCb5tvYZwjZSEEVJw40
lKBGS+sj/zrW1rrBOuTWZJPlWisioYTk/oOuuUoKHuNr2UMCAwEAAaOBszCBsDAe
BgNVHREEFzAVgRNrZ3VydXByYUBvcmFjbGUuY29tMAwGA1UdEwEB/wQCMAAwHwYD
VR0jBBgwFoAU2/hqFQqCUx/C68zQboNyV+RF8nQwPgYIKwYBBQUHAQEEMjAwMC4G
CCsGAQUFBzABhiJodHRwOi8vc2xjMTJweXQudXMub3JhY2xlLmNvbTo2MDYwMB8G
A1UdJQQYMBYGCCsGAQUFBwMCBgorBgEEAYI3FAICMA0GCSqGSIb3DQEBBQUAA4GB
AH6+KcLFju1Pa0wQa60GMCVIb7NTCcIa/2iZMMFBWW7nlwR77UdVbGFb9F0rVaKc
3pYW8Dw6JlHBKvRS2G0Rj/Hc76pLmLzrc8KybssKLsL7aAlLHBxG1U87yL+qDi3Z
CBFIMLGIAUImeaaeCZ52DEGEus+fjezM+LBd7giLLQCx
-----END CERTIFICATE-----
