Certificate:
    Data:
        Version: 3 (0x2)
        Serial Number: 213 (0xd5)
    Signature Algorithm: sha1WithRSAEncryption
        Issuer: C=IN, ST=KA, L=BLR, O=ORCL, OU=IDM, CN=rootca/emailAddress=kgurupra@oracle.com
        Validity
            Not Before: Jul 21 04:02:43 2021 GMT
            Not After : Jul 22 04:02:43 2021 GMT
        Subject: C=IN, ST=KA, L=BLR, O=IAM, OU=OAM, CN=rt-exp1/emailAddress=kgurupra@oracle.com
        Subject Public Key Info:
            Public Key Algorithm: rsaEncryption
                Public-Key: (2048 bit)
                Modulus:
                    00:bc:2d:14:b2:39:b4:99:6b:3b:ec:81:ce:dc:e9:
                    93:d3:37:5f:d4:fc:b0:a0:f0:f8:83:e6:c1:7e:c5:
                    86:ed:9e:dc:fe:da:1f:58:41:86:27:9d:0f:ee:e5:
                    dd:b5:48:f7:83:e1:0b:75:13:a3:f6:f9:21:94:16:
                    9b:da:d7:aa:c6:c2:b1:ab:58:35:9c:5a:60:56:4f:
                    a0:12:c3:58:5e:ad:cf:5f:1b:98:96:28:26:aa:ef:
                    74:5c:27:67:3e:3d:a6:9c:32:13:24:a3:40:82:61:
                    42:82:36:69:cc:6b:5d:15:c1:9e:9e:0c:fd:7c:a1:
                    69:c8:e9:54:f1:18:d3:2d:07:26:d1:59:2b:82:c4:
                    60:9e:62:16:c4:e6:32:46:e6:0a:5c:fe:b9:72:f1:
                    83:a1:d0:80:2a:c7:0b:96:74:45:c4:b0:6e:31:de:
                    56:da:67:1c:ce:49:d5:73:e5:de:d6:d0:e9:3c:9e:
                    b1:f8:f5:5a:1d:e4:25:5e:ee:72:69:5b:29:9b:fd:
                    c1:0b:da:2c:6e:81:22:8b:48:32:2e:24:5a:58:54:
                    f6:b8:65:fc:69:d6:27:a2:39:f3:a5:a8:32:3e:34:
                    af:aa:d9:6f:2e:e7:ce:96:83:26:0e:be:4d:2e:c3:
                    bd:9e:56:4d:37:39:5a:bd:be:ea:87:0b:29:dc:5d:
                    a4:fd
                Exponent: 65537 (0x10001)
        X509v3 extensions:
            X509v3 Subject Alternative Name: 
                email:kgurupra@oracle.com
            X509v3 Basic Constraints: critical
                CA:FALSE
            X509v3 Authority Key Identifier: 
                keyid:DB:F8:6A:15:0A:82:53:1F:C2:EB:CC:D0:6E:83:72:57:E4:45:F2:74

            Authority Information Access: 
                OCSP - URI:http://slc12pyt.us.oracle.com:6060

            X509v3 Extended Key Usage: 
                TLS Web Client Authentication, Microsoft Smartcardlogin
    Signature Algorithm: sha1WithRSAEncryption
         a8:c1:f8:67:64:09:af:4d:ce:f0:75:6a:4b:57:0e:cb:3c:ca:
         de:21:d7:14:c2:e9:33:c3:89:f9:9a:15:19:41:ec:26:a3:d0:
         2b:d6:a5:d3:9b:10:df:b5:82:e7:89:9e:e4:89:26:7f:12:7d:
         db:8e:73:18:0f:c6:d2:02:90:45:b4:f2:18:fb:b9:3b:1e:2e:
         6f:1b:af:aa:cc:fa:5b:b4:34:4d:6c:64:16:23:73:56:f6:02:
         9b:bd:c3:37:5d:f5:6e:04:9d:72:ca:a9:28:ce:d7:95:ff:93:
         be:cd:88:53:cb:38:62:bd:40:fd:4f:8a:9d:7f:68:ba:ec:c6:
         a2:8c
-----BEGIN CERTIFICATE-----
MIIDozCCAwygAwIBAgICANUwDQYJKoZIhvcNAQEFBQAwejELMAkGA1UEBhMCSU4x
CzAJBgNVBAgTAktBMQwwCgYDVQQHEwNCTFIxDTALBgNVBAoTBE9SQ0wxDDAKBgNV
BAsTA0lETTEPMA0GA1UEAxMGcm9vdGNhMSIwIAYJKoZIhvcNAQkBFhNrZ3VydXBy
YUBvcmFjbGUuY29tMB4XDTIxMDcyMTA0MDI0M1oXDTIxMDcyMjA0MDI0M1owejEL
MAkGA1UEBhMCSU4xCzAJBgNVBAgTAktBMQwwCgYDVQQHEwNCTFIxDDAKBgNVBAoT
A0lBTTEMMAoGA1UECxMDT0FNMRAwDgYDVQQDEwdydC1leHAxMSIwIAYJKoZIhvcN
AQkBFhNrZ3VydXByYUBvcmFjbGUuY29tMIIBIjANBgkqhkiG9w0BAQEFAAOCAQ8A
MIIBCgKCAQEAvC0Usjm0mWs77IHO3OmT0zdf1PywoPD4g+bBfsWG7Z7c/tofWEGG
J50P7uXdtUj3g+ELdROj9vkhlBab2teqxsKxq1g1nFpgVk+gEsNYXq3PXxuYligm
qu90XCdnPj2mnDITJKNAgmFCgjZpzGtdFcGengz9fKFpyOlU8RjTLQcm0VkrgsRg
nmIWxOYyRuYKXP65cvGDodCAKscLlnRFxLBuMd5W2mcczknVc+Xe1tDpPJ6x+PVa
HeQlXu5yaVspm/3BC9osboEii0gyLiRaWFT2uGX8adYnojnzpagyPjSvqtlvLufO
loMmDr5NLsO9nlZNNzlavb7qhwsp3F2k/QIDAQABo4GzMIGwMB4GA1UdEQQXMBWB
E2tndXJ1cHJhQG9yYWNsZS5jb20wDAYDVR0TAQH/BAIwADAfBgNVHSMEGDAWgBTb
+GoVCoJTH8LrzNBug3JX5EXydDA+BggrBgEFBQcBAQQyMDAwLgYIKwYBBQUHMAGG
Imh0dHA6Ly9zbGMxMnB5dC51cy5vcmFjbGUuY29tOjYwNjAwHwYDVR0lBBgwFgYI
KwYBBQUHAwIGCisGAQQBgjcUAgIwDQYJKoZIhvcNAQEFBQADgYEAqMH4Z2QJr03O
8HVqS1cOyzzK3iHXFMLpM8OJ+ZoVGUHsJqPQK9al05sQ37WC54me5IkmfxJ9245z
GA/G0gKQRbTyGPu5Ox4ubxuvqsz6W7Q0TWxkFiNzVvYCm73DN131bgSdcsqpKM7X
lf+Tvs2IU8s4Yr1A/U+KnX9ouuzGoow=
-----END CERTIFICATE-----
