Certificate:
    Data:
        Version: 3 (0x2)
        Serial Number: 214 (0xd6)
    Signature Algorithm: sha1WithRSAEncryption
        Issuer: C=IN, ST=KA, L=BLR, O=ORCL, OU=IDM, CN=rootca/emailAddress=kgurupra@oracle.com
        Validity
            Not Before: Jul 21 15:39:09 2021 GMT
            Not After : Jul 21 15:39:09 2023 GMT
        Subject: C=IN, ST=KA, L=BLR, O=IAM, OU=OAM, CN=rt-c7/emailAddress=rt-c7@oracle.com
        Subject Public Key Info:
            Public Key Algorithm: rsaEncryption
                Public-Key: (2048 bit)
                Modulus:
                    00:9d:e9:97:b5:a4:18:be:7b:c7:47:11:5b:a0:59:
                    da:82:80:1f:31:7e:96:05:cb:f5:13:fd:86:cb:5a:
                    e0:df:2d:f3:14:8b:8f:af:15:a7:e5:45:fb:13:85:
                    e6:c8:06:89:05:4a:61:41:fc:b2:2d:eb:5f:53:63:
                    3c:27:14:a8:ab:69:a5:38:38:a5:a2:df:c0:23:c1:
                    10:ac:b2:88:fb:ae:71:de:2a:26:27:d1:66:4d:ba:
                    73:6c:69:16:b7:eb:76:75:b2:2a:86:51:3f:12:ea:
                    bc:93:81:fd:3b:12:e9:fe:44:8e:11:ab:da:53:8a:
                    98:f6:a4:79:2f:02:7d:8e:2b:1d:cd:9e:af:09:53:
                    d3:bc:ce:89:56:39:30:70:d4:c4:fd:e6:12:e8:47:
                    50:8f:8f:93:96:df:90:ee:e0:15:c2:90:9c:fd:06:
                    03:32:43:05:9f:82:51:45:b4:ac:30:dc:4d:3d:b0:
                    7f:24:45:62:f0:8f:e7:0d:56:4b:86:b0:af:ec:04:
                    ae:9c:4c:b2:dd:05:e6:57:24:bd:2c:64:ec:bf:ac:
                    5b:91:e2:5d:65:bc:ee:67:c7:a1:22:13:fe:8a:a1:
                    b6:fc:fb:40:4f:63:23:43:e5:55:97:d8:49:66:92:
                    59:b3:13:74:41:9e:80:ac:5b:74:91:69:3f:1b:9a:
                    2e:27
                Exponent: 65537 (0x10001)
        X509v3 extensions:
            X509v3 Subject Alternative Name: 
                email:rt-c7@oracle.com
            X509v3 Basic Constraints: critical
                CA:FALSE
            X509v3 Authority Key Identifier: 
                keyid:DB:F8:6A:15:0A:82:53:1F:C2:EB:CC:D0:6E:83:72:57:E4:45:F2:74

            Authority Information Access: 
                OCSP - URI:http://slc12pyt.us.oracle.com:6060

            X509v3 Extended Key Usage: 
                TLS Web Client Authentication, Microsoft Smartcardlogin
    Signature Algorithm: sha1WithRSAEncryption
         5d:88:31:f0:a0:86:f4:e6:5a:ef:81:59:d4:4d:f7:68:e8:1f:
         f1:cc:93:3e:9a:a3:57:17:23:29:56:d5:67:7f:8f:1b:2f:a6:
         c9:f1:25:04:b4:b4:c2:38:93:37:41:5e:92:e0:2c:c0:0d:43:
         15:6b:81:43:97:02:44:15:2c:cb:15:9b:7e:57:a2:e7:b0:da:
         3f:f7:3b:df:f8:7b:23:8c:01:18:60:17:92:d8:09:c5:5f:4f:
         06:2a:5f:6a:a6:8e:ed:3a:8d:66:61:32:32:e6:87:30:35:cf:
         37:fd:69:9a:ef:1e:43:8c:6a:a2:dc:d8:00:cf:f2:dc:05:1a:
         1a:e3
-----BEGIN CERTIFICATE-----
MIIDmzCCAwSgAwIBAgICANYwDQYJKoZIhvcNAQEFBQAwejELMAkGA1UEBhMCSU4x
CzAJBgNVBAgTAktBMQwwCgYDVQQHEwNCTFIxDTALBgNVBAoTBE9SQ0wxDDAKBgNV
BAsTA0lETTEPMA0GA1UEAxMGcm9vdGNhMSIwIAYJKoZIhvcNAQkBFhNrZ3VydXBy
YUBvcmFjbGUuY29tMB4XDTIxMDcyMTE1MzkwOVoXDTIzMDcyMTE1MzkwOVowdTEL
MAkGA1UEBhMCSU4xCzAJBgNVBAgTAktBMQwwCgYDVQQHEwNCTFIxDDAKBgNVBAoT
A0lBTTEMMAoGA1UECxMDT0FNMQ4wDAYDVQQDEwVydC1jNzEfMB0GCSqGSIb3DQEJ
ARYQcnQtYzdAb3JhY2xlLmNvbTCCASIwDQYJKoZIhvcNAQEBBQADggEPADCCAQoC
ggEBAJ3pl7WkGL57x0cRW6BZ2oKAHzF+lgXL9RP9hsta4N8t8xSLj68Vp+VF+xOF
5sgGiQVKYUH8si3rX1NjPCcUqKtppTg4paLfwCPBEKyyiPuucd4qJifRZk26c2xp
FrfrdnWyKoZRPxLqvJOB/TsS6f5EjhGr2lOKmPakeS8CfY4rHc2erwlT07zOiVY5
MHDUxP3mEuhHUI+Pk5bfkO7gFcKQnP0GAzJDBZ+CUUW0rDDcTT2wfyRFYvCP5w1W
S4awr+wErpxMst0F5lckvSxk7L+sW5HiXWW87mfHoSIT/oqhtvz7QE9jI0PlVZfY
SWaSWbMTdEGegKxbdJFpPxuaLicCAwEAAaOBsDCBrTAbBgNVHREEFDASgRBydC1j
N0BvcmFjbGUuY29tMAwGA1UdEwEB/wQCMAAwHwYDVR0jBBgwFoAU2/hqFQqCUx/C
68zQboNyV+RF8nQwPgYIKwYBBQUHAQEEMjAwMC4GCCsGAQUFBzABhiJodHRwOi8v
c2xjMTJweXQudXMub3JhY2xlLmNvbTo2MDYwMB8GA1UdJQQYMBYGCCsGAQUFBwMC
BgorBgEEAYI3FAICMA0GCSqGSIb3DQEBBQUAA4GBAF2IMfCghvTmWu+BWdRN92jo
H/HMkz6ao1cXIylW1Wd/jxsvpsnxJQS0tMI4kzdBXpLgLMANQxVrgUOXAkQVLMsV
m35Xouew2j/3O9/4eyOMARhgF5LYCcVfTwYqX2qmju06jWZhMjLmhzA1zzf9aZrv
HkOMaqLc2ADP8twFGhrj
-----END CERTIFICATE-----
