Certificate:
    Data:
        Version: 3 (0x2)
        Serial Number: 219 (0xdb)
    Signature Algorithm: sha1WithRSAEncryption
        Issuer: C=IN, ST=KA, L=BLR, O=ORCL, OU=IDM, CN=rootca/emailAddress=kgurupra@oracle.com
        Validity
            Not Before: Jul 25 12:39:02 2021 GMT
            Not After : Jul 25 12:39:02 2023 GMT
        Subject: C=IN, ST=KA, L=BLR, O=IAM, OU=OAM, CN=rt-authmethod4/emailAddress=rt-authmethod4@oracle.com
        Subject Public Key Info:
            Public Key Algorithm: rsaEncryption
                Public-Key: (2048 bit)
                Modulus:
                    00:bd:87:55:ca:63:e0:8c:13:2c:35:db:f9:85:45:
                    d6:69:43:b4:6d:96:35:11:00:ff:d8:16:ec:b7:14:
                    10:ed:ad:8e:01:ea:6e:a1:02:6d:cb:62:cf:66:81:
                    f3:a7:fb:76:c3:1b:26:94:a8:00:f6:0f:52:2f:18:
                    b6:2e:32:d4:09:3e:2c:9b:14:01:7e:1e:33:6e:83:
                    cb:7f:f4:d9:46:f3:4f:61:a7:52:b8:af:b6:9a:15:
                    19:d4:d9:d1:36:41:b8:54:16:f2:84:2b:9f:75:bc:
                    04:37:5e:e7:1c:8c:c2:f7:0e:d2:57:5f:42:28:65:
                    77:29:5e:1b:13:17:17:aa:71:48:c0:b7:20:ca:75:
                    f0:65:ca:dd:d2:7c:53:2f:b0:74:b7:b9:53:b9:c9:
                    0c:46:64:8a:19:3f:55:41:4d:6c:0a:f7:9f:e7:10:
                    ba:0a:b4:b7:bd:7b:3a:c7:8d:e1:15:8f:79:9c:f1:
                    88:0a:74:03:6e:a9:eb:d5:c4:b4:9b:4e:31:ce:ed:
                    df:61:a5:70:02:33:94:2b:61:8d:53:67:e2:df:3b:
                    49:a8:2c:52:30:78:08:ab:bc:e2:36:40:a7:34:24:
                    af:0d:74:09:ab:3d:0b:c0:85:17:ca:42:d2:e0:59:
                    18:4d:fb:dc:34:d1:bc:61:1e:95:ac:8e:eb:9b:7a:
                    48:21
                Exponent: 65537 (0x10001)
        X509v3 extensions:
            X509v3 Subject Alternative Name: 
                email:rt-authmethod4@oracle.com
            X509v3 Basic Constraints: critical
                CA:FALSE
            X509v3 Authority Key Identifier: 
                keyid:DB:F8:6A:15:0A:82:53:1F:C2:EB:CC:D0:6E:83:72:57:E4:45:F2:74

            Authority Information Access: 
                OCSP - URI:http://slc12pyt.us.oracle.com:6060

            X509v3 Extended Key Usage: 
                TLS Web Client Authentication, Microsoft Smartcardlogin
    Signature Algorithm: sha1WithRSAEncryption
         0c:37:e2:39:b9:e2:9f:27:02:14:e0:ea:d3:17:f3:0a:5e:51:
         6d:e5:72:35:0d:38:aa:51:10:00:a1:6d:74:a3:3c:93:3e:ea:
         8d:0c:67:77:1e:2c:ad:85:67:a7:32:19:47:48:03:87:b9:49:
         91:26:66:0e:25:03:2d:96:2e:62:f6:bc:6c:97:c5:2b:66:1f:
         43:1d:e2:f9:8c:a6:bc:da:d8:df:ce:b9:84:0d:1e:8c:46:11:
         fa:f6:d6:42:9b:e7:f2:7d:9c:f3:f5:7a:3a:7d:ec:32:d5:ee:
         df:42:8c:07:84:09:e5:2b:60:d5:ff:f5:38:ee:cf:e1:27:ab:
         ec:7f
-----BEGIN CERTIFICATE-----
MIIDtzCCAyCgAwIBAgICANswDQYJKoZIhvcNAQEFBQAwejELMAkGA1UEBhMCSU4x
CzAJBgNVBAgTAktBMQwwCgYDVQQHEwNCTFIxDTALBgNVBAoTBE9SQ0wxDDAKBgNV
BAsTA0lETTEPMA0GA1UEAxMGcm9vdGNhMSIwIAYJKoZIhvcNAQkBFhNrZ3VydXBy
YUBvcmFjbGUuY29tMB4XDTIxMDcyNTEyMzkwMloXDTIzMDcyNTEyMzkwMlowgYcx
CzAJBgNVBAYTAklOMQswCQYDVQQIEwJLQTEMMAoGA1UEBxMDQkxSMQwwCgYDVQQK
EwNJQU0xDDAKBgNVBAsTA09BTTEXMBUGA1UEAxMOcnQtYXV0aG1ldGhvZDQxKDAm
BgkqhkiG9w0BCQEWGXJ0LWF1dGhtZXRob2Q0QG9yYWNsZS5jb20wggEiMA0GCSqG
SIb3DQEBAQUAA4IBDwAwggEKAoIBAQC9h1XKY+CMEyw12/mFRdZpQ7RtljURAP/Y
Fuy3FBDtrY4B6m6hAm3LYs9mgfOn+3bDGyaUqAD2D1IvGLYuMtQJPiybFAF+HjNu
g8t/9NlG809hp1K4r7aaFRnU2dE2QbhUFvKEK591vAQ3XuccjML3DtJXX0IoZXcp
XhsTFxeqcUjAtyDKdfBlyt3SfFMvsHS3uVO5yQxGZIoZP1VBTWwK95/nELoKtLe9
ezrHjeEVj3mc8YgKdANuqevVxLSbTjHO7d9hpXACM5QrYY1TZ+LfO0moLFIweAir
vOI2QKc0JK8NdAmrPQvAhRfKQtLgWRhN+9w00bxhHpWsjuubekghAgMBAAGjgbkw
gbYwJAYDVR0RBB0wG4EZcnQtYXV0aG1ldGhvZDRAb3JhY2xlLmNvbTAMBgNVHRMB
Af8EAjAAMB8GA1UdIwQYMBaAFNv4ahUKglMfwuvM0G6DclfkRfJ0MD4GCCsGAQUF
BwEBBDIwMDAuBggrBgEFBQcwAYYiaHR0cDovL3NsYzEycHl0LnVzLm9yYWNsZS5j
b206NjA2MDAfBgNVHSUEGDAWBggrBgEFBQcDAgYKKwYBBAGCNxQCAjANBgkqhkiG
9w0BAQUFAAOBgQAMN+I5ueKfJwIU4OrTF/MKXlFt5XI1DTiqURAAoW10ozyTPuqN
DGd3HiythWenMhlHSAOHuUmRJmYOJQMtli5i9rxsl8UrZh9DHeL5jKa82tjfzrmE
DR6MRhH69tZCm+fyfZzz9Xo6fewy1e7fQowHhAnlK2DV//U47s/hJ6vsfw==
-----END CERTIFICATE-----
