Certificate:
    Data:
        Version: 3 (0x2)
        Serial Number: 223 (0xdf)
    Signature Algorithm: sha1WithRSAEncryption
        Issuer: C=IN, ST=KA, L=BLR, O=ORCL, OU=IDM, CN=rootca/emailAddress=kgurupra@oracle.com
        Validity
            Not Before: Jul 26 14:32:06 2021 GMT
            Not After : Jul 26 14:32:06 2023 GMT
        Subject: C=IN, ST=KA, L=BLR, O=IAM, OU=OAM, CN=rt-prikeyjwt/emailAddress=rt-prikeyjwt@oracle.com
        Subject Public Key Info:
            Public Key Algorithm: rsaEncryption
                Public-Key: (2048 bit)
                Modulus:
                    00:c4:9f:0a:a0:bf:c9:eb:e6:2f:62:28:34:bc:4c:
                    0e:b5:04:b4:a8:a9:07:9d:00:82:54:56:37:c8:11:
                    6c:d5:19:b0:ad:19:e7:d9:25:d2:e9:83:c6:a0:1d:
                    74:ce:61:41:e5:f9:ba:11:ae:0b:b9:da:a6:e0:3a:
                    ab:51:46:28:72:79:90:0a:f1:41:37:3b:99:5f:96:
                    47:bb:a4:d5:f1:48:dd:9d:69:9f:f6:40:05:ac:4f:
                    b5:17:73:56:9b:68:0c:94:ca:29:79:97:95:3a:b5:
                    2e:43:81:c8:d2:41:c9:d8:68:78:b4:03:5e:51:02:
                    8b:91:36:94:05:71:c2:2b:4d:30:f8:89:ad:45:a6:
                    f1:22:78:f4:e8:15:97:e1:88:1c:55:24:a4:9c:b2:
                    39:ed:52:40:f9:c6:65:c9:28:9b:d6:f8:bc:a4:97:
                    e8:ff:8e:b9:8b:18:7d:c6:07:e8:e0:95:4a:b4:84:
                    9c:fd:cc:cf:91:26:4e:e1:a7:03:44:08:4e:f7:bd:
                    2e:b6:ab:99:3c:3f:af:23:b2:12:74:a2:e2:ef:92:
                    64:a1:89:c1:c2:d9:dd:bb:f4:97:2d:36:b0:73:c8:
                    ea:05:c4:dc:37:7f:bd:88:96:84:8e:6a:71:b7:8c:
                    20:b2:24:59:58:d4:f0:8f:af:12:80:45:f7:96:40:
                    5f:eb
                Exponent: 65537 (0x10001)
        X509v3 extensions:
            X509v3 Subject Alternative Name: 
                email:rt-prikeyjwt@oracle.com
            X509v3 Basic Constraints: critical
                CA:FALSE
            X509v3 Authority Key Identifier: 
                keyid:DB:F8:6A:15:0A:82:53:1F:C2:EB:CC:D0:6E:83:72:57:E4:45:F2:74

            Authority Information Access: 
                OCSP - URI:http://slc12pyt.us.oracle.com:6060

            X509v3 Extended Key Usage: 
                TLS Web Client Authentication, Microsoft Smartcardlogin
    Signature Algorithm: sha1WithRSAEncryption
         4a:96:ee:6c:45:99:f5:0b:f8:0f:07:02:ed:9a:13:3a:31:22:
         e0:a3:11:d8:c4:c8:11:a4:ec:d3:8d:33:f5:11:26:c3:69:96:
         66:55:e6:41:1f:f6:85:d7:d0:16:c1:5f:97:2d:88:8f:48:f2:
         82:78:42:24:05:98:28:d8:14:b7:9b:11:2e:12:9d:13:c2:fe:
         a8:9b:cc:15:76:66:a2:2a:3f:41:1b:6a:fb:ba:6e:9c:2f:f1:
         cd:06:cf:c3:c4:b3:a9:b1:d4:a5:18:a2:b3:ec:bc:db:f0:a1:
         89:15:92:bb:6b:77:61:a7:b9:68:dd:69:fd:17:db:85:d6:41:
         2d:20
-----BEGIN CERTIFICATE-----
MIIDsTCCAxqgAwIBAgICAN8wDQYJKoZIhvcNAQEFBQAwejELMAkGA1UEBhMCSU4x
CzAJBgNVBAgTAktBMQwwCgYDVQQHEwNCTFIxDTALBgNVBAoTBE9SQ0wxDDAKBgNV
BAsTA0lETTEPMA0GA1UEAxMGcm9vdGNhMSIwIAYJKoZIhvcNAQkBFhNrZ3VydXBy
YUBvcmFjbGUuY29tMB4XDTIxMDcyNjE0MzIwNloXDTIzMDcyNjE0MzIwNlowgYMx
CzAJBgNVBAYTAklOMQswCQYDVQQIEwJLQTEMMAoGA1UEBxMDQkxSMQwwCgYDVQQK
EwNJQU0xDDAKBgNVBAsTA09BTTEVMBMGA1UEAxMMcnQtcHJpa2V5and0MSYwJAYJ
KoZIhvcNAQkBFhdydC1wcmlrZXlqd3RAb3JhY2xlLmNvbTCCASIwDQYJKoZIhvcN
AQEBBQADggEPADCCAQoCggEBAMSfCqC/yevmL2IoNLxMDrUEtKipB50AglRWN8gR
bNUZsK0Z59kl0umDxqAddM5hQeX5uhGuC7napuA6q1FGKHJ5kArxQTc7mV+WR7uk
1fFI3Z1pn/ZABaxPtRdzVptoDJTKKXmXlTq1LkOByNJBydhoeLQDXlECi5E2lAVx
witNMPiJrUWm8SJ49OgVl+GIHFUkpJyyOe1SQPnGZckom9b4vKSX6P+OuYsYfcYH
6OCVSrSEnP3Mz5EmTuGnA0QITve9LrarmTw/ryOyEnSi4u+SZKGJwcLZ3bv0ly02
sHPI6gXE3Dd/vYiWhI5qcbeMILIkWVjU8I+vEoBF95ZAX+sCAwEAAaOBtzCBtDAi
BgNVHREEGzAZgRdydC1wcmlrZXlqd3RAb3JhY2xlLmNvbTAMBgNVHRMBAf8EAjAA
MB8GA1UdIwQYMBaAFNv4ahUKglMfwuvM0G6DclfkRfJ0MD4GCCsGAQUFBwEBBDIw
MDAuBggrBgEFBQcwAYYiaHR0cDovL3NsYzEycHl0LnVzLm9yYWNsZS5jb206NjA2
MDAfBgNVHSUEGDAWBggrBgEFBQcDAgYKKwYBBAGCNxQCAjANBgkqhkiG9w0BAQUF
AAOBgQBKlu5sRZn1C/gPBwLtmhM6MSLgoxHYxMgRpOzTjTP1ESbDaZZmVeZBH/aF
19AWwV+XLYiPSPKCeEIkBZgo2BS3mxEuEp0Twv6om8wVdmaiKj9BG2r7um6cL/HN
Bs/DxLOpsdSlGKKz7Lzb8KGJFZK7a3dhp7lo3Wn9F9uF1kEtIA==
-----END CERTIFICATE-----
