Certificate:
    Data:
        Version: 3 (0x2)
        Serial Number: 224 (0xe0)
    Signature Algorithm: sha1WithRSAEncryption
        Issuer: C=IN, ST=KA, L=BLR, O=ORCL, OU=IDM, CN=rootca/emailAddress=kgurupra@oracle.com
        Validity
            Not Before: Jul 27 05:32:27 2021 GMT
            Not After : Jul 27 05:32:27 2023 GMT
        Subject: C=IN, ST=KA, L=BLR, O=IAM, OU=OAM, CN=rt-san0/emailAddress=rt-san0@oracle.com
        Subject Public Key Info:
            Public Key Algorithm: rsaEncryption
                Public-Key: (2048 bit)
                Modulus:
                    00:bc:ce:91:fc:ae:df:b8:55:2c:3b:44:1b:ab:de:
                    08:40:6a:24:57:85:ef:2b:e8:de:ae:86:c1:ca:8c:
                    c1:1e:29:d4:d1:c7:4d:16:fc:18:96:4d:ea:14:a6:
                    7c:3d:44:1a:04:2a:5e:f7:ec:d0:ec:50:ab:7f:eb:
                    44:4a:55:96:23:24:da:86:88:c9:9c:11:e2:25:78:
                    9c:78:20:a0:fc:d9:07:dd:f1:87:a9:24:f6:c4:5d:
                    0b:21:1c:55:ee:ea:37:52:7d:b7:bb:1f:1f:a5:cf:
                    e4:2b:0d:fb:0c:06:84:e2:4c:ed:f5:0e:45:0e:c7:
                    2f:ed:0c:ea:df:ba:7c:d8:50:9c:e0:86:bd:1d:bb:
                    a2:09:31:e9:95:c1:18:8b:ad:c1:e8:7f:88:1f:c1:
                    b9:99:3a:d8:f9:d6:67:a9:4f:3c:e2:ec:1c:b2:d2:
                    d6:8a:82:d9:47:11:c7:91:3d:ef:d0:5c:c4:4b:c9:
                    4a:80:63:ac:37:11:90:8b:6c:45:a4:a2:6a:e2:f4:
                    f6:7e:07:37:00:98:f8:a7:b9:92:3d:f9:e6:fc:84:
                    2f:dd:42:b6:7b:8d:56:ca:64:56:ac:ac:66:6f:4c:
                    a3:b1:69:ac:c8:80:ec:8c:a0:a5:a6:c6:f4:32:63:
                    44:64:bc:38:b3:04:cc:3e:ed:de:cd:ed:de:90:03:
                    77:1b
                Exponent: 65537 (0x10001)
        X509v3 extensions:
            X509v3 Subject Alternative Name: 
                email:rt-san0@oracle.com
            X509v3 Basic Constraints: critical
                CA:FALSE
            X509v3 Authority Key Identifier: 
                keyid:DB:F8:6A:15:0A:82:53:1F:C2:EB:CC:D0:6E:83:72:57:E4:45:F2:74

            Authority Information Access: 
                OCSP - URI:http://slc12pyt.us.oracle.com:6060

            X509v3 Extended Key Usage: 
                TLS Web Client Authentication, Microsoft Smartcardlogin
    Signature Algorithm: sha1WithRSAEncryption
         98:48:8b:72:9c:8c:8e:a7:6e:a8:23:49:0b:41:c5:f5:e7:6c:
         33:80:20:c2:2f:32:d9:31:36:ba:e1:6a:51:cd:d1:f8:c9:7b:
         3b:00:cc:d2:33:7f:81:b3:95:9f:7e:e0:a9:58:e8:dd:32:b1:
         95:45:32:7a:9c:6b:75:10:32:89:b5:11:d3:19:b7:c6:4d:12:
         84:13:5a:92:11:1e:22:d1:2f:53:25:17:1d:f4:df:a8:85:8e:
         71:4c:d0:6c:83:58:bb:a7:28:11:e9:99:ed:ee:98:50:f6:cd:
         db:b2:12:dd:2a:3c:7e:e7:4c:ac:78:84:d3:dd:b8:54:aa:1e:
         3d:4b
-----BEGIN CERTIFICATE-----
MIIDoTCCAwqgAwIBAgICAOAwDQYJKoZIhvcNAQEFBQAwejELMAkGA1UEBhMCSU4x
CzAJBgNVBAgTAktBMQwwCgYDVQQHEwNCTFIxDTALBgNVBAoTBE9SQ0wxDDAKBgNV
BAsTA0lETTEPMA0GA1UEAxMGcm9vdGNhMSIwIAYJKoZIhvcNAQkBFhNrZ3VydXBy
YUBvcmFjbGUuY29tMB4XDTIxMDcyNzA1MzIyN1oXDTIzMDcyNzA1MzIyN1oweTEL
MAkGA1UEBhMCSU4xCzAJBgNVBAgTAktBMQwwCgYDVQQHEwNCTFIxDDAKBgNVBAoT
A0lBTTEMMAoGA1UECxMDT0FNMRAwDgYDVQQDEwdydC1zYW4wMSEwHwYJKoZIhvcN
AQkBFhJydC1zYW4wQG9yYWNsZS5jb20wggEiMA0GCSqGSIb3DQEBAQUAA4IBDwAw
ggEKAoIBAQC8zpH8rt+4VSw7RBur3ghAaiRXhe8r6N6uhsHKjMEeKdTRx00W/BiW
TeoUpnw9RBoEKl737NDsUKt/60RKVZYjJNqGiMmcEeIleJx4IKD82Qfd8YepJPbE
XQshHFXu6jdSfbe7Hx+lz+QrDfsMBoTiTO31DkUOxy/tDOrfunzYUJzghr0du6IJ
MemVwRiLrcHof4gfwbmZOtj51mepTzzi7Byy0taKgtlHEceRPe/QXMRLyUqAY6w3
EZCLbEWkomri9PZ+BzcAmPinuZI9+eb8hC/dQrZ7jVbKZFasrGZvTKOxaazIgOyM
oKWmxvQyY0RkvDizBMw+7d7N7d6QA3cbAgMBAAGjgbIwga8wHQYDVR0RBBYwFIES
cnQtc2FuMEBvcmFjbGUuY29tMAwGA1UdEwEB/wQCMAAwHwYDVR0jBBgwFoAU2/hq
FQqCUx/C68zQboNyV+RF8nQwPgYIKwYBBQUHAQEEMjAwMC4GCCsGAQUFBzABhiJo
dHRwOi8vc2xjMTJweXQudXMub3JhY2xlLmNvbTo2MDYwMB8GA1UdJQQYMBYGCCsG
AQUFBwMCBgorBgEEAYI3FAICMA0GCSqGSIb3DQEBBQUAA4GBAJhIi3KcjI6nbqgj
SQtBxfXnbDOAIMIvMtkxNrrhalHN0fjJezsAzNIzf4GzlZ9+4KlY6N0ysZVFMnqc
a3UQMom1EdMZt8ZNEoQTWpIRHiLRL1MlFx3036iFjnFM0GyDWLunKBHpme3umFD2
zduyEt0qPH7nTKx4hNPduFSqHj1L
-----END CERTIFICATE-----
