Certificate:
    Data:
        Version: 3 (0x2)
        Serial Number: 225 (0xe1)
    Signature Algorithm: sha1WithRSAEncryption
        Issuer: C=IN, ST=KA, L=BLR, O=ORCL, OU=IDM, CN=rootca/emailAddress=kgurupra@oracle.com
        Validity
            Not Before: Jul 27 05:35:21 2021 GMT
            Not After : Jul 27 05:35:21 2023 GMT
        Subject: C=IN, ST=KA, L=BLR, O=IAM, OU=OAM, CN=rt-san00/emailAddress=rt-san00@oracle.com
        Subject Public Key Info:
            Public Key Algorithm: rsaEncryption
                Public-Key: (2048 bit)
                Modulus:
                    00:d1:25:33:f5:8f:9e:a5:99:b4:db:bf:3b:2f:88:
                    53:f1:f1:f0:26:fc:bf:a6:1f:21:99:91:84:c9:c0:
                    c8:b8:26:96:bb:c0:14:03:b5:0f:fd:50:8b:fe:98:
                    15:73:03:31:43:89:de:7e:2f:12:61:fb:59:7b:c8:
                    5d:62:4a:cf:f9:bd:08:d9:1b:ef:4f:de:66:7b:44:
                    3f:3b:2b:80:c2:58:46:d7:00:1c:c4:09:1a:d8:52:
                    2a:25:9f:88:0b:04:61:72:0d:d3:44:ae:c9:f9:53:
                    55:0d:5e:aa:a3:03:7c:08:e5:c5:4f:2c:e4:9b:6d:
                    89:9d:27:fc:5b:aa:9e:1b:0c:ce:c9:05:20:31:4d:
                    47:0a:62:03:84:ea:50:de:43:0e:d4:46:fa:13:82:
                    49:97:9f:59:5d:84:9f:2c:84:96:3a:99:87:32:e1:
                    94:0e:7e:15:c3:70:49:a3:ed:f1:da:b7:b4:50:12:
                    4e:56:ae:9b:2f:17:d4:00:7c:4c:5b:d5:27:ba:7d:
                    41:9c:ad:65:f7:de:dc:f4:f7:52:e9:2c:6d:de:57:
                    50:28:f8:6f:56:94:0a:dd:d1:e0:d4:ae:19:7c:1b:
                    3a:8a:15:2d:33:3b:1a:e1:19:8f:4a:12:c9:97:d0:
                    d1:44:29:38:6e:9e:9a:fc:52:dd:85:d0:40:c6:ec:
                    41:4d
                Exponent: 65537 (0x10001)
        X509v3 extensions:
            X509v3 Subject Alternative Name: 
                email:rt-san00@oracle.com
            X509v3 Basic Constraints: critical
                CA:FALSE
            X509v3 Authority Key Identifier: 
                keyid:DB:F8:6A:15:0A:82:53:1F:C2:EB:CC:D0:6E:83:72:57:E4:45:F2:74

            Authority Information Access: 
                OCSP - URI:http://slc12pyt.us.oracle.com:6060

            X509v3 Extended Key Usage: 
                TLS Web Client Authentication, Microsoft Smartcardlogin
    Signature Algorithm: sha1WithRSAEncryption
         37:2b:8c:62:6d:55:ac:ba:d6:a0:42:56:7c:9c:a6:c8:9c:8e:
         d4:7c:2b:3c:53:e9:a8:75:41:0a:f1:43:77:bb:5a:1b:7d:a9:
         61:9c:ba:e8:5a:63:3f:04:33:b8:db:8a:40:62:56:02:58:81:
         e7:44:7f:37:ad:cc:8b:06:66:20:a2:80:a0:ae:ca:16:ed:69:
         17:38:c1:f6:31:3b:b3:d8:53:94:51:c1:19:8e:9f:0d:3c:10:
         a7:01:d8:31:b8:02:1e:0c:ed:7c:80:51:99:52:7e:f5:c4:35:
         14:71:e9:69:37:d2:7e:c2:c9:2c:54:c1:32:f0:a7:be:1f:39:
         db:2c
-----BEGIN CERTIFICATE-----
MIIDpDCCAw2gAwIBAgICAOEwDQYJKoZIhvcNAQEFBQAwejELMAkGA1UEBhMCSU4x
CzAJBgNVBAgTAktBMQwwCgYDVQQHEwNCTFIxDTALBgNVBAoTBE9SQ0wxDDAKBgNV
BAsTA0lETTEPMA0GA1UEAxMGcm9vdGNhMSIwIAYJKoZIhvcNAQkBFhNrZ3VydXBy
YUBvcmFjbGUuY29tMB4XDTIxMDcyNzA1MzUyMVoXDTIzMDcyNzA1MzUyMVowezEL
MAkGA1UEBhMCSU4xCzAJBgNVBAgTAktBMQwwCgYDVQQHEwNCTFIxDDAKBgNVBAoT
A0lBTTEMMAoGA1UECxMDT0FNMREwDwYDVQQDEwhydC1zYW4wMDEiMCAGCSqGSIb3
DQEJARYTcnQtc2FuMDBAb3JhY2xlLmNvbTCCASIwDQYJKoZIhvcNAQEBBQADggEP
ADCCAQoCggEBANElM/WPnqWZtNu/Oy+IU/Hx8Cb8v6YfIZmRhMnAyLgmlrvAFAO1
D/1Qi/6YFXMDMUOJ3n4vEmH7WXvIXWJKz/m9CNkb70/eZntEPzsrgMJYRtcAHMQJ
GthSKiWfiAsEYXIN00SuyflTVQ1eqqMDfAjlxU8s5JttiZ0n/FuqnhsMzskFIDFN
RwpiA4TqUN5DDtRG+hOCSZefWV2EnyyEljqZhzLhlA5+FcNwSaPt8dq3tFASTlau
my8X1AB8TFvVJ7p9QZytZffe3PT3Uuksbd5XUCj4b1aUCt3R4NSuGXwbOooVLTM7
GuEZj0oSyZfQ0UQpOG6emvxS3YXQQMbsQU0CAwEAAaOBszCBsDAeBgNVHREEFzAV
gRNydC1zYW4wMEBvcmFjbGUuY29tMAwGA1UdEwEB/wQCMAAwHwYDVR0jBBgwFoAU
2/hqFQqCUx/C68zQboNyV+RF8nQwPgYIKwYBBQUHAQEEMjAwMC4GCCsGAQUFBzAB
hiJodHRwOi8vc2xjMTJweXQudXMub3JhY2xlLmNvbTo2MDYwMB8GA1UdJQQYMBYG
CCsGAQUFBwMCBgorBgEEAYI3FAICMA0GCSqGSIb3DQEBBQUAA4GBADcrjGJtVay6
1qBCVnycpsicjtR8KzxT6ah1QQrxQ3e7Wht9qWGcuuhaYz8EM7jbikBiVgJYgedE
fzetzIsGZiCigKCuyhbtaRc4wfYxO7PYU5RRwRmOnw08EKcB2DG4Ah4M7XyAUZlS
fvXENRRx6Wk30n7CySxUwTLwp74fOdss
-----END CERTIFICATE-----
