Certificate:
    Data:
        Version: 3 (0x2)
        Serial Number: 226 (0xe2)
    Signature Algorithm: sha1WithRSAEncryption
        Issuer: C=IN, ST=KA, L=BLR, O=ORCL, OU=IDM, CN=rootca/emailAddress=kgurupra@oracle.com
        Validity
            Not Before: Jul 27 05:39:10 2021 GMT
            Not After : Jul 27 05:39:10 2023 GMT
        Subject: C=IN, ST=KA, L=BLR, O=IAM, OU=OAM, CN=rt-san000/emailAddress=rt-san000@oracle.com
        Subject Public Key Info:
            Public Key Algorithm: rsaEncryption
                Public-Key: (2048 bit)
                Modulus:
                    00:b6:84:09:5f:09:1c:3a:ad:11:95:f7:69:7d:a5:
                    c8:73:c5:a1:5f:83:04:b0:e6:a4:77:83:ff:ca:a8:
                    cd:74:05:75:a9:76:9f:a9:24:ae:42:93:14:ae:5f:
                    a8:7a:e9:4b:83:1d:35:64:af:62:a3:17:2e:ab:55:
                    20:bc:bf:a6:28:3c:e7:fc:a4:b8:ed:0a:3e:61:55:
                    05:39:b1:13:44:9a:c7:64:b7:62:8f:a8:7e:08:f7:
                    c5:8e:b0:1c:be:d2:24:4a:d8:a1:1b:31:9e:d3:08:
                    22:0b:5b:a0:f2:d7:25:eb:8f:35:1c:cc:e6:f6:78:
                    26:4b:bf:8a:cf:c3:db:f8:97:24:0e:58:e1:94:29:
                    da:6d:ff:79:69:dd:6f:b5:df:26:d7:2f:fd:5a:66:
                    cc:50:4d:aa:b4:ba:0a:9f:6b:4a:16:40:00:d6:b4:
                    7a:91:54:2d:7c:6e:e0:00:2b:a4:e8:d4:c8:ec:45:
                    6c:a7:82:30:1e:35:c6:24:8f:16:c6:84:16:50:7d:
                    ce:1c:17:de:09:61:29:c0:b0:66:88:0c:ad:0f:ab:
                    84:0f:d8:76:97:e0:5a:c2:59:6e:8e:01:07:e6:90:
                    f1:18:b9:49:04:de:92:35:a7:d9:e3:67:68:53:ab:
                    18:78:a0:1d:92:36:75:5f:de:45:ec:e8:81:26:30:
                    94:63
                Exponent: 65537 (0x10001)
        X509v3 extensions:
            X509v3 Subject Alternative Name: 
                IP Address:192.168.7.1
            X509v3 Basic Constraints: critical
                CA:FALSE
            X509v3 Authority Key Identifier: 
                keyid:DB:F8:6A:15:0A:82:53:1F:C2:EB:CC:D0:6E:83:72:57:E4:45:F2:74

            Authority Information Access: 
                OCSP - URI:http://slc12pyt.us.oracle.com:6060

            X509v3 Extended Key Usage: 
                TLS Web Client Authentication, Microsoft Smartcardlogin
    Signature Algorithm: sha1WithRSAEncryption
         0d:98:af:20:43:16:e3:91:02:1c:de:14:ce:e9:81:be:69:76:
         53:bc:2e:22:48:28:bb:fc:c8:13:1b:26:c3:82:3a:4e:e9:18:
         39:b8:1a:58:81:f4:41:8d:d6:2f:ba:4c:49:ef:17:f5:fc:74:
         cd:c1:3a:a7:9f:67:18:17:43:57:20:6e:61:26:e9:76:16:55:
         6e:63:14:bd:86:79:e7:26:8d:ca:0d:08:8e:37:89:32:d5:5f:
         69:64:7b:65:19:24:76:7f:46:0f:32:e6:21:26:3d:2a:cc:00:
         76:ca:1c:57:01:c3:89:5c:ee:62:fe:fe:e0:a1:06:e6:a8:3c:
         fd:4c
-----BEGIN CERTIFICATE-----
MIIDlzCCAwCgAwIBAgICAOIwDQYJKoZIhvcNAQEFBQAwejELMAkGA1UEBhMCSU4x
CzAJBgNVBAgTAktBMQwwCgYDVQQHEwNCTFIxDTALBgNVBAoTBE9SQ0wxDDAKBgNV
BAsTA0lETTEPMA0GA1UEAxMGcm9vdGNhMSIwIAYJKoZIhvcNAQkBFhNrZ3VydXBy
YUBvcmFjbGUuY29tMB4XDTIxMDcyNzA1MzkxMFoXDTIzMDcyNzA1MzkxMFowfTEL
MAkGA1UEBhMCSU4xCzAJBgNVBAgTAktBMQwwCgYDVQQHEwNCTFIxDDAKBgNVBAoT
A0lBTTEMMAoGA1UECxMDT0FNMRIwEAYDVQQDEwlydC1zYW4wMDAxIzAhBgkqhkiG
9w0BCQEWFHJ0LXNhbjAwMEBvcmFjbGUuY29tMIIBIjANBgkqhkiG9w0BAQEFAAOC
AQ8AMIIBCgKCAQEAtoQJXwkcOq0RlfdpfaXIc8WhX4MEsOakd4P/yqjNdAV1qXaf
qSSuQpMUrl+oeulLgx01ZK9ioxcuq1UgvL+mKDzn/KS47Qo+YVUFObETRJrHZLdi
j6h+CPfFjrAcvtIkStihGzGe0wgiC1ug8tcl6481HMzm9ngmS7+Kz8Pb+JckDljh
lCnabf95ad1vtd8m1y/9WmbMUE2qtLoKn2tKFkAA1rR6kVQtfG7gACuk6NTI7EVs
p4IwHjXGJI8WxoQWUH3OHBfeCWEpwLBmiAytD6uED9h2l+BawllujgEH5pDxGLlJ
BN6SNafZ42doU6sYeKAdkjZ1X95F7OiBJjCUYwIDAQABo4GkMIGhMA8GA1UdEQQI
MAaHBMCoBwEwDAYDVR0TAQH/BAIwADAfBgNVHSMEGDAWgBTb+GoVCoJTH8LrzNBu
g3JX5EXydDA+BggrBgEFBQcBAQQyMDAwLgYIKwYBBQUHMAGGImh0dHA6Ly9zbGMx
MnB5dC51cy5vcmFjbGUuY29tOjYwNjAwHwYDVR0lBBgwFgYIKwYBBQUHAwIGCisG
AQQBgjcUAgIwDQYJKoZIhvcNAQEFBQADgYEADZivIEMW45ECHN4UzumBvml2U7wu
Ikgou/zIExsmw4I6TukYObgaWIH0QY3WL7pMSe8X9fx0zcE6p59nGBdDVyBuYSbp
dhZVbmMUvYZ55yaNyg0IjjeJMtVfaWR7ZRkkdn9GDzLmISY9KswAdsocVwHDiVzu
Yv7+4KEG5qg8/Uw=
-----END CERTIFICATE-----
