Certificate:
    Data:
        Version: 3 (0x2)
        Serial Number: 227 (0xe3)
    Signature Algorithm: sha1WithRSAEncryption
        Issuer: C=IN, ST=KA, L=BLR, O=ORCL, OU=IDM, CN=rootca/emailAddress=kgurupra@oracle.com
        Validity
            Not Before: Jul 27 05:43:00 2021 GMT
            Not After : Jul 27 05:43:00 2023 GMT
        Subject: C=IN, ST=KA, L=BLR, O=IAM, OU=OAM, CN=rt-sanuri0/emailAddress=rt-sanuri0@oracle.com
        Subject Public Key Info:
            Public Key Algorithm: rsaEncryption
                Public-Key: (2048 bit)
                Modulus:
                    00:d4:0f:22:e3:2c:ad:21:94:b2:69:9f:e0:57:bd:
                    26:4b:47:b3:83:ab:a0:4f:73:43:e2:dd:b8:cb:e4:
                    a0:16:ee:1e:ba:55:ea:21:ab:7e:56:06:8a:a8:85:
                    c0:e0:26:d5:db:f9:15:37:0f:cb:ad:79:19:55:b8:
                    ef:10:d2:26:c1:67:12:25:4f:84:75:ac:3b:bf:18:
                    5c:ed:bd:45:fb:4f:9c:49:02:72:88:a5:ef:6e:cb:
                    3d:5d:d8:04:a6:0b:6a:fe:59:6f:06:05:ff:07:9f:
                    c5:9b:49:49:59:8a:40:e9:14:30:7d:cb:e2:c6:9e:
                    6c:f3:a6:f8:fb:e2:b5:fd:32:29:c7:71:97:6e:50:
                    d5:67:8d:8d:c7:ff:b1:5a:f4:97:5e:3f:1e:ed:3f:
                    3d:74:d3:65:a7:d4:7f:da:3d:87:9b:4b:10:68:c1:
                    35:a0:d3:fa:37:94:d7:44:b3:2b:d5:46:cd:af:ba:
                    de:cb:a8:27:21:8f:4a:10:2f:1e:ca:96:38:07:8f:
                    47:f3:72:c5:f6:cf:7c:14:f6:20:bb:0e:73:af:d8:
                    fd:4b:5e:0a:a9:d0:ae:4c:b6:2d:ff:3d:cc:7d:74:
                    7c:92:51:2a:5d:f6:dc:6a:55:70:ed:7b:e8:97:e1:
                    21:cf:96:83:c2:89:7c:1d:35:d1:01:12:75:45:ae:
                    03:0d
                Exponent: 65537 (0x10001)
        X509v3 extensions:
            X509v3 Subject Alternative Name: 
                URI:http://my.url.here/
            X509v3 Basic Constraints: critical
                CA:FALSE
            X509v3 Authority Key Identifier: 
                keyid:DB:F8:6A:15:0A:82:53:1F:C2:EB:CC:D0:6E:83:72:57:E4:45:F2:74

            Authority Information Access: 
                OCSP - URI:http://slc12pyt.us.oracle.com:6060

            X509v3 Extended Key Usage: 
                TLS Web Client Authentication, Microsoft Smartcardlogin
    Signature Algorithm: sha1WithRSAEncryption
         ab:49:df:55:9b:b0:a1:15:83:66:e7:c5:f9:1f:6a:92:4a:e3:
         ed:04:59:24:58:db:84:11:80:db:de:02:0f:8e:d8:66:a9:10:
         51:a5:0f:37:54:24:89:c4:01:54:14:b9:d4:a3:67:5a:74:ac:
         ce:39:5a:d5:ce:77:c9:d0:0d:32:5c:8a:ba:11:87:c9:8f:12:
         10:8e:3c:16:64:bf:22:69:a8:eb:ba:9c:68:88:ab:be:f4:f6:
         48:aa:ae:87:4d:94:f5:0f:6a:ac:8d:75:0e:65:c0:32:51:9c:
         78:ce:1b:9a:4d:09:bf:d5:d0:51:1c:b8:ad:0f:b4:08:3a:79:
         52:f6
-----BEGIN CERTIFICATE-----
MIIDqDCCAxGgAwIBAgICAOMwDQYJKoZIhvcNAQEFBQAwejELMAkGA1UEBhMCSU4x
CzAJBgNVBAgTAktBMQwwCgYDVQQHEwNCTFIxDTALBgNVBAoTBE9SQ0wxDDAKBgNV
BAsTA0lETTEPMA0GA1UEAxMGcm9vdGNhMSIwIAYJKoZIhvcNAQkBFhNrZ3VydXBy
YUBvcmFjbGUuY29tMB4XDTIxMDcyNzA1NDMwMFoXDTIzMDcyNzA1NDMwMFowfzEL
MAkGA1UEBhMCSU4xCzAJBgNVBAgTAktBMQwwCgYDVQQHEwNCTFIxDDAKBgNVBAoT
A0lBTTEMMAoGA1UECxMDT0FNMRMwEQYDVQQDEwpydC1zYW51cmkwMSQwIgYJKoZI
hvcNAQkBFhVydC1zYW51cmkwQG9yYWNsZS5jb20wggEiMA0GCSqGSIb3DQEBAQUA
A4IBDwAwggEKAoIBAQDUDyLjLK0hlLJpn+BXvSZLR7ODq6BPc0Pi3bjL5KAW7h66
Veohq35WBoqohcDgJtXb+RU3D8uteRlVuO8Q0ibBZxIlT4R1rDu/GFztvUX7T5xJ
AnKIpe9uyz1d2ASmC2r+WW8GBf8Hn8WbSUlZikDpFDB9y+LGnmzzpvj74rX9MinH
cZduUNVnjY3H/7Fa9JdePx7tPz1002Wn1H/aPYebSxBowTWg0/o3lNdEsyvVRs2v
ut7LqCchj0oQLx7KljgHj0fzcsX2z3wU9iC7DnOv2P1LXgqp0K5Mti3/Pcx9dHyS
USpd9txqVXDte+iX4SHPloPCiXwdNdEBEnVFrgMNAgMBAAGjgbMwgbAwHgYDVR0R
BBcwFYYTaHR0cDovL215LnVybC5oZXJlLzAMBgNVHRMBAf8EAjAAMB8GA1UdIwQY
MBaAFNv4ahUKglMfwuvM0G6DclfkRfJ0MD4GCCsGAQUFBwEBBDIwMDAuBggrBgEF
BQcwAYYiaHR0cDovL3NsYzEycHl0LnVzLm9yYWNsZS5jb206NjA2MDAfBgNVHSUE
GDAWBggrBgEFBQcDAgYKKwYBBAGCNxQCAjANBgkqhkiG9w0BAQUFAAOBgQCrSd9V
m7ChFYNm58X5H2qSSuPtBFkkWNuEEYDb3gIPjthmqRBRpQ83VCSJxAFUFLnUo2da
dKzOOVrVznfJ0A0yXIq6EYfJjxIQjjwWZL8iaajrupxoiKu+9PZIqq6HTZT1D2qs
jXUOZcAyUZx4zhuaTQm/1dBRHLitD7QIOnlS9g==
-----END CERTIFICATE-----
