Certificate:
    Data:
        Version: 3 (0x2)
        Serial Number: 228 (0xe4)
    Signature Algorithm: sha1WithRSAEncryption
        Issuer: C=IN, ST=KA, L=BLR, O=ORCL, OU=IDM, CN=rootca/emailAddress=kgurupra@oracle.com
        Validity
            Not Before: Jul 27 05:45:10 2021 GMT
            Not After : Jul 27 05:45:10 2023 GMT
        Subject: C=IN, ST=KA, L=BLR, O=IAM, OU=OAM, CN=rt-sandns0/emailAddress=rt-sandns0@oracle.com
        Subject Public Key Info:
            Public Key Algorithm: rsaEncryption
                Public-Key: (2048 bit)
                Modulus:
                    00:b9:ae:fe:10:b3:6f:c9:5b:a6:67:84:17:a6:d7:
                    e2:4d:e1:da:66:f8:56:6e:95:c0:f3:28:26:06:39:
                    c0:e1:9e:ec:a2:79:df:6e:2f:6c:39:e9:e1:7f:cd:
                    db:72:8e:df:80:24:7a:e8:5e:8a:b2:92:51:89:59:
                    f6:4e:a8:7f:fd:66:7c:d5:3f:ea:8c:cc:d9:8c:67:
                    72:b4:3a:60:b9:2e:39:64:83:3a:d3:71:f6:93:12:
                    8c:82:36:27:dc:22:e2:ef:09:1f:86:e4:b0:47:3f:
                    af:2f:dd:10:43:54:a2:13:79:87:37:34:b9:33:33:
                    4a:e6:56:c1:cb:0b:84:6f:75:7e:d7:8e:50:7b:e1:
                    d3:35:80:88:e7:ef:b6:9d:b0:06:b4:12:3f:0c:be:
                    bc:04:45:b6:43:10:c4:56:6c:05:23:cd:78:39:91:
                    29:76:72:ac:2e:db:3b:e4:bd:6b:3a:78:c4:77:84:
                    d9:80:2f:77:05:e4:70:ed:03:36:5f:e4:01:ea:a8:
                    f4:7c:3e:c7:fa:3a:b9:ae:a7:ef:16:ab:7c:b4:69:
                    1c:f7:5d:7f:e6:36:7d:ca:9b:aa:c5:d5:c1:8b:c0:
                    1a:57:35:7a:e6:26:da:62:be:bc:55:79:96:f0:07:
                    d1:31:93:fc:c9:92:77:d8:d3:21:b2:ed:18:d0:1e:
                    8b:5f
                Exponent: 65537 (0x10001)
        X509v3 extensions:
            X509v3 Subject Alternative Name: 
                DNS:mywebsite.com
            X509v3 Basic Constraints: critical
                CA:FALSE
            X509v3 Authority Key Identifier: 
                keyid:DB:F8:6A:15:0A:82:53:1F:C2:EB:CC:D0:6E:83:72:57:E4:45:F2:74

            Authority Information Access: 
                OCSP - URI:http://slc12pyt.us.oracle.com:6060

            X509v3 Extended Key Usage: 
                TLS Web Client Authentication, Microsoft Smartcardlogin
    Signature Algorithm: sha1WithRSAEncryption
         95:f2:ed:bb:c6:4f:03:01:94:3b:cf:4e:de:d4:18:e5:61:08:
         72:ef:a8:2c:1a:a8:ed:88:87:7b:4f:87:55:8d:a5:95:b5:55:
         92:1b:c8:4b:ef:e0:19:f0:c9:28:99:88:0b:d3:b7:01:19:d1:
         3d:a4:c7:90:f5:18:ae:a5:4d:34:fc:02:2f:4f:4a:13:57:4a:
         69:fc:1b:18:d7:97:30:df:a7:78:d3:48:74:a4:f4:d9:2e:68:
         1e:8e:e3:d9:69:77:1c:1a:fa:c3:96:79:6b:5c:a3:33:9b:1a:
         c6:2a:cb:14:74:c1:c1:e1:a1:e1:ed:ba:f7:ee:09:b8:41:1e:
         dd:7c
-----BEGIN CERTIFICATE-----
MIIDojCCAwugAwIBAgICAOQwDQYJKoZIhvcNAQEFBQAwejELMAkGA1UEBhMCSU4x
CzAJBgNVBAgTAktBMQwwCgYDVQQHEwNCTFIxDTALBgNVBAoTBE9SQ0wxDDAKBgNV
BAsTA0lETTEPMA0GA1UEAxMGcm9vdGNhMSIwIAYJKoZIhvcNAQkBFhNrZ3VydXBy
YUBvcmFjbGUuY29tMB4XDTIxMDcyNzA1NDUxMFoXDTIzMDcyNzA1NDUxMFowfzEL
MAkGA1UEBhMCSU4xCzAJBgNVBAgTAktBMQwwCgYDVQQHEwNCTFIxDDAKBgNVBAoT
A0lBTTEMMAoGA1UECxMDT0FNMRMwEQYDVQQDEwpydC1zYW5kbnMwMSQwIgYJKoZI
hvcNAQkBFhVydC1zYW5kbnMwQG9yYWNsZS5jb20wggEiMA0GCSqGSIb3DQEBAQUA
A4IBDwAwggEKAoIBAQC5rv4Qs2/JW6ZnhBem1+JN4dpm+FZulcDzKCYGOcDhnuyi
ed9uL2w56eF/zdtyjt+AJHroXoqyklGJWfZOqH/9ZnzVP+qMzNmMZ3K0OmC5Ljlk
gzrTcfaTEoyCNifcIuLvCR+G5LBHP68v3RBDVKITeYc3NLkzM0rmVsHLC4RvdX7X
jlB74dM1gIjn77adsAa0Ej8MvrwERbZDEMRWbAUjzXg5kSl2cqwu2zvkvWs6eMR3
hNmAL3cF5HDtAzZf5AHqqPR8Psf6Ormup+8Wq3y0aRz3XX/mNn3Km6rF1cGLwBpX
NXrmJtpivrxVeZbwB9Exk/zJknfY0yGy7RjQHotfAgMBAAGjga0wgaowGAYDVR0R
BBEwD4INbXl3ZWJzaXRlLmNvbTAMBgNVHRMBAf8EAjAAMB8GA1UdIwQYMBaAFNv4
ahUKglMfwuvM0G6DclfkRfJ0MD4GCCsGAQUFBwEBBDIwMDAuBggrBgEFBQcwAYYi
aHR0cDovL3NsYzEycHl0LnVzLm9yYWNsZS5jb206NjA2MDAfBgNVHSUEGDAWBggr
BgEFBQcDAgYKKwYBBAGCNxQCAjANBgkqhkiG9w0BAQUFAAOBgQCV8u27xk8DAZQ7
z07e1BjlYQhy76gsGqjtiId7T4dVjaWVtVWSG8hL7+AZ8MkomYgL07cBGdE9pMeQ
9RiupU00/AIvT0oTV0pp/BsY15cw36d400h0pPTZLmgejuPZaXccGvrDlnlrXKMz
mxrGKssUdMHB4aHh7br37gm4QR7dfA==
-----END CERTIFICATE-----
