Certificate:
    Data:
        Version: 3 (0x2)
        Serial Number: 229 (0xe5)
    Signature Algorithm: sha1WithRSAEncryption
        Issuer: C=IN, ST=KA, L=BLR, O=ORCL, OU=IDM, CN=rootca/emailAddress=kgurupra@oracle.com
        Validity
            Not Before: Aug  1 02:28:04 2021 GMT
            Not After : Aug  1 02:28:04 2023 GMT
        Subject: C=IN, ST=KA, L=BLR, O=IAM, OU=OAM, CN=mtls_cl_authmethods_01/emailAddress=mtls_cl_authmethods_01@oracle.com
        Subject Public Key Info:
            Public Key Algorithm: rsaEncryption
                Public-Key: (2048 bit)
                Modulus:
                    00:c5:66:86:4f:94:bb:37:ba:93:f6:d7:46:18:24:
                    bc:33:02:55:20:3e:eb:da:15:c9:d8:cf:6c:27:73:
                    03:09:d3:88:a5:d8:2c:4a:98:16:35:2b:c0:28:11:
                    97:8e:a4:3f:e3:6d:84:04:7b:4e:a5:4f:83:73:8b:
                    a8:c3:1e:2e:e3:43:1a:f8:62:80:87:d1:20:91:02:
                    b8:e1:29:e5:d7:71:8c:49:e6:c0:3a:af:8f:6c:f1:
                    38:d9:8d:9f:1f:e0:6c:d9:ea:7a:03:eb:6d:fe:5a:
                    36:ce:79:7c:02:72:60:e6:0a:93:f3:7e:ca:fa:e3:
                    83:f4:de:88:24:93:42:0b:9b:ba:f0:b3:e5:f9:43:
                    f5:9c:02:38:d8:67:36:9d:f4:a0:ca:2d:56:c7:3a:
                    d0:d6:71:9b:a1:1a:77:8f:ab:6c:37:4d:a2:af:6e:
                    ff:50:15:03:d8:47:b0:82:ee:63:63:c7:e1:d9:3b:
                    d3:a5:29:4d:e5:2d:a5:2e:0e:58:09:09:b0:37:c1:
                    55:e6:60:51:70:20:d8:93:e1:39:99:b6:4d:eb:5d:
                    a4:4c:62:39:ec:ee:9b:b2:d1:8a:d7:b2:1c:45:e0:
                    f9:17:96:36:d7:33:25:1c:92:23:13:b5:1e:ec:6a:
                    39:e4:47:11:fc:fb:82:86:ed:ac:5c:d0:65:29:53:
                    6a:0f
                Exponent: 65537 (0x10001)
        X509v3 extensions:
            X509v3 Subject Alternative Name: 
                DNS:mywebsite.com
            X509v3 Basic Constraints: critical
                CA:FALSE
            X509v3 Authority Key Identifier: 
                keyid:DB:F8:6A:15:0A:82:53:1F:C2:EB:CC:D0:6E:83:72:57:E4:45:F2:74

            Authority Information Access: 
                OCSP - URI:http://slc12pyt.us.oracle.com:6060

            X509v3 Extended Key Usage: 
                TLS Web Client Authentication, Microsoft Smartcardlogin
    Signature Algorithm: sha1WithRSAEncryption
         90:7c:8f:f3:d6:c8:1b:c5:b8:dd:92:1e:ec:58:fa:a6:f4:99:
         b6:b3:c3:a0:ab:a6:93:1c:44:9f:40:d6:5e:4e:ff:db:cd:f6:
         12:4c:45:5f:dc:11:5a:01:5f:68:ac:5c:3d:a5:8c:f0:ed:b7:
         3e:a7:f7:1d:d7:69:8a:82:d5:ca:0f:dd:8e:12:d2:09:41:8f:
         06:a8:15:3f:76:79:ad:0e:32:48:c2:99:39:2b:49:54:38:1e:
         41:f7:2a:8f:86:8f:9a:f1:6f:d8:3c:fa:43:9f:68:b3:33:25:
         ce:0d:8c:87:2d:1c:47:73:ca:77:86:a5:02:e2:d2:4f:c6:03:
         99:41
-----BEGIN CERTIFICATE-----
MIIDuzCCAySgAwIBAgICAOUwDQYJKoZIhvcNAQEFBQAwejELMAkGA1UEBhMCSU4x
CzAJBgNVBAgTAktBMQwwCgYDVQQHEwNCTFIxDTALBgNVBAoTBE9SQ0wxDDAKBgNV
BAsTA0lETTEPMA0GA1UEAxMGcm9vdGNhMSIwIAYJKoZIhvcNAQkBFhNrZ3VydXBy
YUBvcmFjbGUuY29tMB4XDTIxMDgwMTAyMjgwNFoXDTIzMDgwMTAyMjgwNFowgZcx
CzAJBgNVBAYTAklOMQswCQYDVQQIEwJLQTEMMAoGA1UEBxMDQkxSMQwwCgYDVQQK
EwNJQU0xDDAKBgNVBAsTA09BTTEfMB0GA1UEAxQWbXRsc19jbF9hdXRobWV0aG9k
c18wMTEwMC4GCSqGSIb3DQEJARYhbXRsc19jbF9hdXRobWV0aG9kc18wMUBvcmFj
bGUuY29tMIIBIjANBgkqhkiG9w0BAQEFAAOCAQ8AMIIBCgKCAQEAxWaGT5S7N7qT
9tdGGCS8MwJVID7r2hXJ2M9sJ3MDCdOIpdgsSpgWNSvAKBGXjqQ/422EBHtOpU+D
c4uowx4u40Ma+GKAh9EgkQK44Snl13GMSebAOq+PbPE42Y2fH+Bs2ep6A+tt/lo2
znl8AnJg5gqT837K+uOD9N6IJJNCC5u68LPl+UP1nAI42Gc2nfSgyi1WxzrQ1nGb
oRp3j6tsN02ir27/UBUD2Eewgu5jY8fh2TvTpSlN5S2lLg5YCQmwN8FV5mBRcCDY
k+E5mbZN612kTGI57O6bstGK17IcReD5F5Y21zMlHJIjE7Ue7Go55EcR/PuChu2s
XNBlKVNqDwIDAQABo4GtMIGqMBgGA1UdEQQRMA+CDW15d2Vic2l0ZS5jb20wDAYD
VR0TAQH/BAIwADAfBgNVHSMEGDAWgBTb+GoVCoJTH8LrzNBug3JX5EXydDA+Bggr
BgEFBQcBAQQyMDAwLgYIKwYBBQUHMAGGImh0dHA6Ly9zbGMxMnB5dC51cy5vcmFj
bGUuY29tOjYwNjAwHwYDVR0lBBgwFgYIKwYBBQUHAwIGCisGAQQBgjcUAgIwDQYJ
KoZIhvcNAQEFBQADgYEAkHyP89bIG8W43ZIe7Fj6pvSZtrPDoKumkxxEn0DWXk7/
2832EkxFX9wRWgFfaKxcPaWM8O23Pqf3HddpioLVyg/djhLSCUGPBqgVP3Z5rQ4y
SMKZOStJVDgeQfcqj4aPmvFv2Dz6Q59oszMlzg2Mhy0cR3PKd4alAuLST8YDmUE=
-----END CERTIFICATE-----
