Certificate:
    Data:
        Version: 3 (0x2)
        Serial Number: 231 (0xe7)
    Signature Algorithm: sha1WithRSAEncryption
        Issuer: C=IN, ST=KA, L=BLR, O=ORCL, OU=IDM, CN=rootca/emailAddress=kgurupra@oracle.com
        Validity
            Not Before: Aug 31 06:51:05 2021 GMT
            Not After : Aug 31 06:51:05 2023 GMT
        Subject: C=IN, ST=KA, L=BLR, O=IAM, OU=OAM, CN=rt-ocspclient/emailAddress=rt-ocspclient@oracle.com
        Subject Public Key Info:
            Public Key Algorithm: rsaEncryption
                Public-Key: (2048 bit)
                Modulus:
                    00:bf:d1:de:4f:a2:90:62:ae:f6:0d:f7:0f:82:c4:
                    e7:40:bd:2b:ef:4d:80:7c:2e:5e:2b:6b:ec:7d:b2:
                    36:45:8a:5f:62:7d:d4:b4:c3:28:80:62:90:c3:63:
                    6b:12:08:24:9b:f1:e4:df:28:24:63:32:e5:4f:5e:
                    28:08:c3:51:08:1e:79:50:42:37:12:30:54:2f:dc:
                    23:60:00:f0:cb:72:54:ff:4f:d6:64:02:b0:dd:5d:
                    8f:cf:a7:71:6c:0b:3c:26:b4:1e:22:38:d7:34:3c:
                    ef:be:0c:57:6c:ff:2f:42:bc:1f:74:6f:e9:94:18:
                    e0:3c:94:c4:1f:57:c4:5d:2f:f7:d0:06:39:7f:56:
                    7c:72:68:23:d0:70:36:2e:52:9e:b1:79:7e:5d:62:
                    dc:37:d0:ed:65:12:57:21:fa:6e:89:e4:2c:de:6d:
                    17:c3:61:6e:f1:63:3c:e5:1f:ff:fa:cc:8c:c5:6c:
                    6b:01:6a:82:80:f8:a3:24:3b:2c:98:a0:6d:22:e1:
                    a9:f2:08:19:72:a7:35:c5:8f:b3:7b:93:fa:7f:f8:
                    52:20:e1:3a:02:d2:f3:57:c2:15:c4:db:e3:91:99:
                    8d:e4:5f:b7:11:0f:e2:e5:4c:b5:1d:2d:a8:2b:4a:
                    67:c8:68:8d:25:51:5e:b6:19:5b:de:89:b3:a3:81:
                    6c:ff
                Exponent: 65537 (0x10001)
        X509v3 extensions:
            X509v3 Subject Alternative Name: 
                DNS:mywebsite.com
            X509v3 Basic Constraints: critical
                CA:FALSE
            X509v3 Authority Key Identifier: 
                keyid:DB:F8:6A:15:0A:82:53:1F:C2:EB:CC:D0:6E:83:72:57:E4:45:F2:74

            Authority Information Access: 
                OCSP - URI:http://ocsp.us.oracle.com:6060

            X509v3 Extended Key Usage: 
                TLS Web Client Authentication, Microsoft Smartcardlogin
    Signature Algorithm: sha1WithRSAEncryption
         14:c1:dc:2c:e0:51:6f:14:7f:a2:02:11:39:b2:0c:92:c1:4b:
         6d:98:b8:cf:ce:cd:f5:59:3c:11:5d:d8:2d:4d:65:3b:7c:cd:
         c1:a3:1a:4d:a7:02:d3:e8:d5:31:95:6d:1b:e4:d1:99:0d:6c:
         9d:f7:e1:65:18:52:f3:07:63:d8:27:85:bf:20:24:82:fb:d0:
         b4:02:60:92:46:75:3a:27:b8:ae:90:e7:05:44:e0:5c:1e:ec:
         fe:31:68:19:40:28:fd:84:a7:bf:76:c1:d6:b2:d6:07:28:cf:
         2d:b3:c2:b3:50:1c:6e:5f:86:75:29:69:61:5e:6e:41:cc:e3:
         f6:5d
-----BEGIN CERTIFICATE-----
MIIDpTCCAw6gAwIBAgICAOcwDQYJKoZIhvcNAQEFBQAwejELMAkGA1UEBhMCSU4x
CzAJBgNVBAgTAktBMQwwCgYDVQQHEwNCTFIxDTALBgNVBAoTBE9SQ0wxDDAKBgNV
BAsTA0lETTEPMA0GA1UEAxMGcm9vdGNhMSIwIAYJKoZIhvcNAQkBFhNrZ3VydXBy
YUBvcmFjbGUuY29tMB4XDTIxMDgzMTA2NTEwNVoXDTIzMDgzMTA2NTEwNVowgYUx
CzAJBgNVBAYTAklOMQswCQYDVQQIEwJLQTEMMAoGA1UEBxMDQkxSMQwwCgYDVQQK
EwNJQU0xDDAKBgNVBAsTA09BTTEWMBQGA1UEAxMNcnQtb2NzcGNsaWVudDEnMCUG
CSqGSIb3DQEJARYYcnQtb2NzcGNsaWVudEBvcmFjbGUuY29tMIIBIjANBgkqhkiG
9w0BAQEFAAOCAQ8AMIIBCgKCAQEAv9HeT6KQYq72DfcPgsTnQL0r702AfC5eK2vs
fbI2RYpfYn3UtMMogGKQw2NrEggkm/Hk3ygkYzLlT14oCMNRCB55UEI3EjBUL9wj
YADwy3JU/0/WZAKw3V2Pz6dxbAs8JrQeIjjXNDzvvgxXbP8vQrwfdG/plBjgPJTE
H1fEXS/30AY5f1Z8cmgj0HA2LlKesXl+XWLcN9DtZRJXIfpuieQs3m0Xw2Fu8WM8
5R//+syMxWxrAWqCgPijJDssmKBtIuGp8ggZcqc1xY+ze5P6f/hSIOE6AtLzV8IV
xNvjkZmN5F+3EQ/i5Uy1HS2oK0pnyGiNJVFethlb3omzo4Fs/wIDAQABo4GpMIGm
MBgGA1UdEQQRMA+CDW15d2Vic2l0ZS5jb20wDAYDVR0TAQH/BAIwADAfBgNVHSME
GDAWgBTb+GoVCoJTH8LrzNBug3JX5EXydDA6BggrBgEFBQcBAQQuMCwwKgYIKwYB
BQUHMAGGHmh0dHA6Ly9vY3NwLnVzLm9yYWNsZS5jb206NjA2MDAfBgNVHSUEGDAW
BggrBgEFBQcDAgYKKwYBBAGCNxQCAjANBgkqhkiG9w0BAQUFAAOBgQAUwdws4FFv
FH+iAhE5sgySwUttmLjPzs31WTwRXdgtTWU7fM3BoxpNpwLT6NUxlW0b5NGZDWyd
9+FlGFLzB2PYJ4W/ICSC+9C0AmCSRnU6J7iukOcFROBcHuz+MWgZQCj9hKe/dsHW
stYHKM8ts8KzUBxuX4Z1KWlhXm5BzOP2XQ==
-----END CERTIFICATE-----
