Certificate:
    Data:
        Version: 3 (0x2)
        Serial Number: 7 (0x7)
        Signature Algorithm: md5WithRSAEncryption
        Issuer: C=MY, ST=MAHA, L=PUNE, O=PSPL, OU=OBLIX-QA, CN=ps2436/emailAddress=sagar@pspl.com
        Validity
            Not Before: Jun 14 07:23:48 2013 GMT
            Not After : Jun 14 07:23:48 2014 GMT
        Subject: CN=tstusr2/emailAddress=tstusr2@oracle.com
        Subject Public Key Info:
            Public Key Algorithm: rsaEncryption
            RSA Public Key: (1024 bit)
                Modulus (1024 bit):
                    00:c7:91:52:9e:ae:8d:4e:88:e7:eb:0e:c4:6a:bb:
                    7c:15:b8:1c:83:78:f9:f6:32:1b:0d:eb:7d:c2:48:
                    f3:7a:89:4d:0c:99:5d:79:a7:7b:03:bf:6a:17:c0:
                    16:d8:f5:16:ce:24:0b:35:0b:04:e2:a8:e4:c5:6b:
                    ac:83:f6:14:5c:d0:05:62:39:a7:06:63:90:c2:38:
                    6f:b1:93:ec:4e:70:99:a5:27:d8:e1:7f:64:db:ec:
                    f3:fa:00:e4:e2:22:10:ed:9a:ff:85:97:8d:ab:6b:
                    2c:11:2c:d3:7c:2e:78:35:a3:e7:2d:48:84:27:a5:
                    ba:a5:b1:ef:aa:53:f6:6e:b5
                Exponent: 65537 (0x10001)
        X509v3 extensions:
            X509v3 Subject Alternative Name: 
                email:tstusr2@oracle.com
            X509v3 Basic Constraints: critical
                CA:FALSE
            X509v3 Authority Key Identifier: 
                keyid:DB:F8:6A:15:0A:82:53:1F:C2:EB:CC:D0:6E:83:72:57:E4:45:F2:74

            X509v3 Extended Key Usage: 
                TLS Web Client Authentication, E-mail Protection
            Authority Information Access: 
                OCSP - URI:http://slc03snd.us.oracle.com:9797

            X509v3 Key Usage: 
                Digital Signature, Non Repudiation, Key Encipherment
    Signature Algorithm: md5WithRSAEncryption
        19:87:94:07:7f:6e:24:7e:1f:2d:31:43:09:a1:fc:47:8c:3c:
        b5:ca:88:6f:c7:25:14:c3:cb:e1:40:d5:52:1e:9d:84:66:62:
        d2:01:e8:bc:c8:6f:69:0c:01:7d:a6:0a:b5:68:cf:a9:37:58:
        4e:62:89:9f:f7:e2:28:42:da:57:74:aa:75:05:51:f0:7c:d5:
        df:94:7b:c3:21:5c:6c:e9:87:4e:79:d0:bf:10:bb:30:0c:a1:
        ad:1f:3a:2c:4b:5e:f7:39:8c:e8:43:d6:f4:fa:77:d5:97:9d:
        24:4e:f2:16:d9:9a:df:fd:2d:27:44:3e:c7:5e:f8:7f:c7:90:
        b7:83
-----BEGIN CERTIFICATE-----
MIIC5jCCAk+gAwIBAgIBBzANBgkqhkiG9w0BAQQFADB9MQswCQYDVQQGEwJNWTEN
MAsGA1UECBMETUFIQTENMAsGA1UEBxMEUFVORTENMAsGA1UEChMEUFNQTDERMA8G
A1UECxMIT0JMSVgtUUExDzANBgNVBAMTBnBzMjQzNjEdMBsGCSqGSIb3DQEJARYO
c2FnYXJAcHNwbC5jb20wHhcNMTMwNjE0MDcyMzQ4WhcNMTQwNjE0MDcyMzQ4WjA1
MRAwDgYDVQQDEwd0c3R1c3IyMSEwHwYJKoZIhvcNAQkBFhJ0c3R1c3IyQG9yYWNs
ZS5jb20wgZ8wDQYJKoZIhvcNAQEBBQADgY0AMIGJAoGBAMeRUp6ujU6I5+sOxGq7
fBW4HIN4+fYyGw3rfcJI83qJTQyZXXmnewO/ahfAFtj1Fs4kCzULBOKo5MVrrIP2
FFzQBWI5pwZjkMI4b7GT7E5wmaUn2OF/ZNvs8/oA5OIiEO2a/4WXjatrLBEs03wu
eDWj5y1IhCeluqWx76pT9m61AgMBAAGjgb0wgbowHQYDVR0RBBYwFIESdHN0dXNy
MkBvcmFjbGUuY29tMAwGA1UdEwEB/wQCMAAwHwYDVR0jBBgwFoAU2/hqFQqCUx/C
68zQboNyV+RF8nQwHQYDVR0lBBYwFAYIKwYBBQUHAwIGCCsGAQUFBwMEMD4GCCsG
AQUFBwEBBDIwMDAuBggrBgEFBQcwAYYiaHR0cDovL3NsYzAzc25kLnVzLm9yYWNs
ZS5jb206OTc5NzALBgNVHQ8EBAMCBeAwDQYJKoZIhvcNAQEEBQADgYEAGYeUB39u
JH4fLTFDCaH8R4w8tcqIb8clFMPL4UDVUh6dhGZi0gHovMhvaQwBfaYKtWjPqTdY
TmKJn/fiKELaV3SqdQVR8HzV35R7wyFcbOmHTnnQvxC7MAyhrR86LEte9zmM6EPW
9Pp31ZedJE7yFtma3/0tJ0Q+x174f8eQt4M=
-----END CERTIFICATE-----
