Certificate:
    Data:
        Version: 3 (0x2)
        Serial Number: 9 (0x9)
        Signature Algorithm: md5WithRSAEncryption
        Issuer: C=MY, ST=MAHA, L=PUNE, O=PSPL, OU=OBLIX-QA, CN=ps2436/emailAddress=sagar@pspl.com
        Validity
            Not Before: Jun 25 05:58:06 2013 GMT
            Not After : Jun 25 05:58:06 2014 GMT
        Subject: CN=tstusr5/emailAddress=tstusr5@oracle.com
        Subject Public Key Info:
            Public Key Algorithm: rsaEncryption
            RSA Public Key: (1024 bit)
                Modulus (1024 bit):
                    00:be:51:4f:8f:e2:9e:82:8d:a5:0d:79:dd:fe:5d:
                    df:0d:8f:ac:41:2d:24:f9:97:cf:69:2a:c5:5c:e5:
                    ee:45:8a:cb:a4:f4:98:68:d4:cf:72:b4:e7:f3:03:
                    45:90:a9:79:07:84:89:ca:d4:63:af:08:15:58:4f:
                    75:f0:f9:40:f6:2b:70:2c:7f:78:63:02:e3:11:5d:
                    5b:49:33:f5:18:c7:49:dd:0e:84:b1:92:45:5a:3e:
                    f8:2d:6d:76:e1:28:d6:6e:ed:a2:91:74:39:d8:29:
                    16:2b:de:d2:fc:88:93:11:f8:f3:2a:5d:7a:bd:b5:
                    97:33:89:76:df:e0:89:2c:d5
                Exponent: 65537 (0x10001)
        X509v3 extensions:
            X509v3 Subject Alternative Name: 
                email:tstusr5@oracle.com
            X509v3 Basic Constraints: critical
                CA:FALSE
            X509v3 Authority Key Identifier: 
                keyid:DB:F8:6A:15:0A:82:53:1F:C2:EB:CC:D0:6E:83:72:57:E4:45:F2:74

            X509v3 Extended Key Usage: 
                TLS Web Client Authentication, E-mail Protection
            Authority Information Access: 
                OCSP - URI:http://slc03snd.us.oracle.com:9797
                OCSP - URI:http://adc2120018.us.oracle.com:9797

            X509v3 Key Usage: 
                Digital Signature, Non Repudiation, Key Encipherment
    Signature Algorithm: md5WithRSAEncryption
        33:30:58:9b:f0:e5:c9:c3:c6:cf:01:5e:d4:ce:c3:28:2b:fc:
        67:07:39:46:9d:97:9b:3d:62:ba:29:16:5c:bc:39:17:8a:6f:
        f6:1b:3f:bb:5f:6d:fa:5b:59:cb:7d:62:6b:7d:40:4c:4f:c7:
        80:8d:fe:23:8c:10:18:d9:71:dc:8f:4c:e1:8b:ca:ea:c9:57:
        9c:dc:51:bf:d9:e4:9d:bf:53:06:64:ca:c9:a6:34:8a:50:c1:
        e1:8e:36:5a:ca:d7:9e:b9:6b:fe:36:ae:76:54:ce:58:d0:61:
        b8:d8:44:cb:51:ee:b8:f0:88:1c:aa:61:e2:32:c7:1b:20:49:
        06:4f
-----BEGIN CERTIFICATE-----
MIIDGDCCAoGgAwIBAgIBCTANBgkqhkiG9w0BAQQFADB9MQswCQYDVQQGEwJNWTEN
MAsGA1UECBMETUFIQTENMAsGA1UEBxMEUFVORTENMAsGA1UEChMEUFNQTDERMA8G
A1UECxMIT0JMSVgtUUExDzANBgNVBAMTBnBzMjQzNjEdMBsGCSqGSIb3DQEJARYO
c2FnYXJAcHNwbC5jb20wHhcNMTMwNjI1MDU1ODA2WhcNMTQwNjI1MDU1ODA2WjA1
MRAwDgYDVQQDEwd0c3R1c3I1MSEwHwYJKoZIhvcNAQkBFhJ0c3R1c3I1QG9yYWNs
ZS5jb20wgZ8wDQYJKoZIhvcNAQEBBQADgY0AMIGJAoGBAL5RT4/inoKNpQ153f5d
3w2PrEEtJPmXz2kqxVzl7kWKy6T0mGjUz3K05/MDRZCpeQeEicrUY68IFVhPdfD5
QPYrcCx/eGMC4xFdW0kz9RjHSd0OhLGSRVo++C1tduEo1m7topF0OdgpFive0vyI
kxH48ypder21lzOJdt/giSzVAgMBAAGjge8wgewwHQYDVR0RBBYwFIESdHN0dXNy
NUBvcmFjbGUuY29tMAwGA1UdEwEB/wQCMAAwHwYDVR0jBBgwFoAU2/hqFQqCUx/C
68zQboNyV+RF8nQwHQYDVR0lBBYwFAYIKwYBBQUHAwIGCCsGAQUFBwMEMHAGCCsG
AQUFBwEBBGQwYjAuBggrBgEFBQcwAYYiaHR0cDovL3NsYzAzc25kLnVzLm9yYWNs
ZS5jb206OTc5NzAwBggrBgEFBQcwAYYkaHR0cDovL2FkYzIxMjAwMTgudXMub3Jh
Y2xlLmNvbTo5Nzk3MAsGA1UdDwQEAwIF4DANBgkqhkiG9w0BAQQFAAOBgQAzMFib
8OXJw8bPAV7UzsMoK/xnBzlGnZebPWK6KRZcvDkXim/2Gz+7X236W1nLfWJrfUBM
T8eAjf4jjBAY2XHcj0zhi8rqyVec3FG/2eSdv1MGZMrJpjSKUMHhjjZayteeuWv+
Nq52VM5Y0GG42ETLUe648IgcqmHiMscbIEkGTw==
-----END CERTIFICATE-----
