Certificate:
    Data:
        Version: 3 (0x2)
        Serial Number: 220 (0xdc)
    Signature Algorithm: sha1WithRSAEncryption
        Issuer: C=IN, ST=KA, L=BLR, O=ORCL, OU=IDM, CN=rootca/emailAddress=kgurupra@oracle.com
        Validity
            Not Before: Jul 26 10:04:13 2021 GMT
            Not After : Jul 26 10:04:13 2023 GMT
        Subject: C=IN, ST=KA, L=BLR, O=IAM, OU=OAM, CN=rt-notlsbound/emailAddress=rt-notlsbound@oracle.com
        Subject Public Key Info:
            Public Key Algorithm: rsaEncryption
                Public-Key: (2048 bit)
                Modulus:
                    00:d0:3f:38:9b:e7:fd:27:9e:28:3b:f0:dc:48:18:
                    a7:09:4b:af:ac:a8:78:b7:c9:a6:1a:c3:ee:55:c4:
                    7a:57:00:d3:06:89:2c:a0:6e:e9:8d:e3:30:61:9b:
                    de:d0:2f:3f:20:be:8b:a7:b2:66:d1:98:f8:ba:2a:
                    24:cd:01:2a:2f:f0:6f:c7:7d:9a:bf:07:b3:76:c3:
                    c4:d0:f6:c2:36:a4:88:81:a6:5d:7e:33:f8:e1:7d:
                    97:43:d2:bd:89:8a:a8:bb:6f:90:8b:10:cd:5f:6f:
                    31:2d:e9:e4:f1:87:2a:09:06:01:a4:28:4d:5a:9b:
                    40:b9:7d:6c:4f:f9:b2:cd:fc:9e:71:b8:40:82:ea:
                    c4:a5:74:d7:f7:c4:c6:ee:26:8b:8a:a8:12:fc:45:
                    83:93:c2:e3:50:b6:ca:49:33:53:48:bb:66:06:54:
                    1f:fa:a5:ac:54:d1:15:72:40:d0:e6:14:77:5d:b1:
                    d7:39:e7:b1:24:04:c6:6c:a9:f1:ed:02:ef:23:06:
                    93:42:16:b4:2f:c2:c6:9f:af:14:68:b4:d2:b8:f5:
                    9d:ee:cd:9b:18:19:1a:23:4d:f9:a2:8a:3b:12:ed:
                    9f:f1:6b:4b:c9:2b:23:1f:6d:0a:9e:c6:36:ea:3c:
                    b1:8c:ab:7e:5e:0d:bc:76:63:fc:06:1f:4c:db:62:
                    40:f5
                Exponent: 65537 (0x10001)
        X509v3 extensions:
            X509v3 Subject Alternative Name: 
                email:rt-notlsbound@oracle.com
            X509v3 Basic Constraints: critical
                CA:FALSE
            X509v3 Authority Key Identifier: 
                keyid:DB:F8:6A:15:0A:82:53:1F:C2:EB:CC:D0:6E:83:72:57:E4:45:F2:74

            Authority Information Access: 
                OCSP - URI:http://slc12pyt.us.oracle.com:6060

            X509v3 Extended Key Usage: 
                TLS Web Client Authentication, Microsoft Smartcardlogin
    Signature Algorithm: sha1WithRSAEncryption
         4d:f2:b7:a9:f6:94:59:44:d3:e5:11:71:ea:a8:7a:51:ea:61:
         f0:72:d0:fc:e9:9f:9e:7d:11:d7:ac:00:b4:57:79:76:d5:be:
         57:c3:f1:b0:fc:91:b1:0f:e6:b7:21:91:ce:4f:cc:01:48:b9:
         7f:d3:e7:b1:47:84:60:2f:ac:ed:88:da:ae:52:07:e2:0a:e0:
         7a:31:54:9e:f5:6b:5a:e6:c0:47:2a:92:03:15:d5:7e:4b:7a:
         fe:3f:af:16:4b:16:5f:fd:31:05:2d:b3:99:a3:b7:df:a9:64:
         1b:18:76:b2:0b:04:8b:a7:c7:3f:c6:e0:bd:be:1b:e7:6b:38:
         77:21
-----BEGIN CERTIFICATE-----
MIIDtDCCAx2gAwIBAgICANwwDQYJKoZIhvcNAQEFBQAwejELMAkGA1UEBhMCSU4x
CzAJBgNVBAgTAktBMQwwCgYDVQQHEwNCTFIxDTALBgNVBAoTBE9SQ0wxDDAKBgNV
BAsTA0lETTEPMA0GA1UEAxMGcm9vdGNhMSIwIAYJKoZIhvcNAQkBFhNrZ3VydXBy
YUBvcmFjbGUuY29tMB4XDTIxMDcyNjEwMDQxM1oXDTIzMDcyNjEwMDQxM1owgYUx
CzAJBgNVBAYTAklOMQswCQYDVQQIEwJLQTEMMAoGA1UEBxMDQkxSMQwwCgYDVQQK
EwNJQU0xDDAKBgNVBAsTA09BTTEWMBQGA1UEAxMNcnQtbm90bHNib3VuZDEnMCUG
CSqGSIb3DQEJARYYcnQtbm90bHNib3VuZEBvcmFjbGUuY29tMIIBIjANBgkqhkiG
9w0BAQEFAAOCAQ8AMIIBCgKCAQEA0D84m+f9J54oO/DcSBinCUuvrKh4t8mmGsPu
VcR6VwDTBoksoG7pjeMwYZve0C8/IL6Lp7Jm0Zj4uiokzQEqL/Bvx32avwezdsPE
0PbCNqSIgaZdfjP44X2XQ9K9iYqou2+QixDNX28xLenk8YcqCQYBpChNWptAuX1s
T/myzfyecbhAgurEpXTX98TG7iaLiqgS/EWDk8LjULbKSTNTSLtmBlQf+qWsVNEV
ckDQ5hR3XbHXOeexJATGbKnx7QLvIwaTQha0L8LGn68UaLTSuPWd7s2bGBkaI035
ooo7Eu2f8WtLySsjH20KnsY26jyxjKt+Xg28dmP8Bh9M22JA9QIDAQABo4G4MIG1
MCMGA1UdEQQcMBqBGHJ0LW5vdGxzYm91bmRAb3JhY2xlLmNvbTAMBgNVHRMBAf8E
AjAAMB8GA1UdIwQYMBaAFNv4ahUKglMfwuvM0G6DclfkRfJ0MD4GCCsGAQUFBwEB
BDIwMDAuBggrBgEFBQcwAYYiaHR0cDovL3NsYzEycHl0LnVzLm9yYWNsZS5jb206
NjA2MDAfBgNVHSUEGDAWBggrBgEFBQcDAgYKKwYBBAGCNxQCAjANBgkqhkiG9w0B
AQUFAAOBgQBN8rep9pRZRNPlEXHqqHpR6mHwctD86Z+efRHXrAC0V3l21b5Xw/Gw
/JGxD+a3IZHOT8wBSLl/0+exR4RgL6ztiNquUgfiCuB6MVSe9Wta5sBHKpIDFdV+
S3r+P68WSxZf/TEFLbOZo7ffqWQbGHayCwSLp8c/xuC9vhvnazh3IQ==
-----END CERTIFICATE-----
