Certificate:
    Data:
        Version: 3 (0x2)
        Serial Number: 1 (0x1)
        Signature Algorithm: md5WithRSAEncryption
        Issuer: C=MY, ST=MAHA, L=PUNE, O=PSPL, OU=OBLIX-QA, CN=ps2436/Email=sagar@pspl.com
        Validity
            Not Before: Jun  5 14:16:38 2008 GMT
            Not After : Jun  5 14:16:38 2009 GMT
        Subject: C=in, ST=maha, L=pune, O=oblix, OU=oblix, CN=ps2436
        Subject Public Key Info:
            Public Key Algorithm: rsaEncryption
            RSA Public Key: (1024 bit)
                Modulus (1024 bit):
                    00:bf:10:84:28:93:2a:4d:18:bd:88:f5:11:0c:57:
                    1a:0c:4b:aa:d4:f7:ca:ba:03:38:5b:9b:83:97:68:
                    72:cd:aa:9e:1f:35:49:5e:1a:1b:a0:88:21:78:04:
                    d2:f6:99:95:1c:ee:26:d2:cf:5e:34:65:46:d5:a4:
                    2f:ec:da:35:51:ad:b1:b0:dd:6a:da:75:86:2a:bc:
                    e7:d1:1d:f3:31:45:f9:7b:99:15:e9:93:be:04:c6:
                    ca:24:b4:2c:33:a5:3a:bb:c7:f6:d2:ec:5c:76:1f:
                    d6:92:ec:a5:42:d8:4f:e0:b4:0f:47:74:26:9e:c6:
                    af:71:82:97:b7:f1:aa:87:af
                Exponent: 65537 (0x10001)
        X509v3 extensions:
            X509v3 Authority Key Identifier: 
                keyid:DB:F8:6A:15:0A:82:53:1F:C2:EB:CC:D0:6E:83:72:57:E4:45:F2:74

            X509v3 Extended Key Usage: 
                TLS Web Server Authentication, TLS Web Client Authentication, Microsoft Server Gated Crypto, Netscape Server Gated Crypto
            X509v3 Basic Constraints: critical
                CA:FALSE
    Signature Algorithm: md5WithRSAEncryption
        53:3c:c2:18:9f:d3:5b:eb:15:37:16:1a:53:56:22:2b:82:3a:
        64:57:58:79:ba:c5:e1:43:93:cb:f7:38:b8:16:86:a9:9b:0e:
        72:f9:ce:dc:13:7f:d0:22:fc:fc:ce:c8:a2:6f:72:65:42:b8:
        d5:c6:a7:72:78:15:3e:e4:65:7d:af:92:94:42:d5:36:97:e7:
        e1:a6:62:73:10:7d:ff:d8:7e:1a:3d:dd:23:3b:ea:f6:ab:aa:
        1f:00:3a:3d:4b:6d:d6:76:c9:66:0e:d4:74:27:3f:9f:a8:3c:
        e7:02:37:57:0b:42:4c:be:32:6b:3c:14:27:11:c7:1d:cd:57:
        ea:09
-----BEGIN CERTIFICATE-----
MIICtjCCAh+gAwIBAgIBATANBgkqhkiG9w0BAQQFADB9MQswCQYDVQQGEwJNWTEN
MAsGA1UECBMETUFIQTENMAsGA1UEBxMEUFVORTENMAsGA1UEChMEUFNQTDERMA8G
A1UECxMIT0JMSVgtUUExDzANBgNVBAMTBnBzMjQzNjEdMBsGCSqGSIb3DQEJARYO
c2FnYXJAcHNwbC5jb20wHhcNMDgwNjA1MTQxNjM4WhcNMDkwNjA1MTQxNjM4WjBc
MQswCQYDVQQGEwJpbjENMAsGA1UECBMEbWFoYTENMAsGA1UEBxMEcHVuZTEOMAwG
A1UEChMFb2JsaXgxDjAMBgNVBAsTBW9ibGl4MQ8wDQYDVQQDEwZwczI0MzYwgZ8w
DQYJKoZIhvcNAQEBBQADgY0AMIGJAoGBAL8QhCiTKk0YvYj1EQxXGgxLqtT3yroD
OFubg5docs2qnh81SV4aG6CIIXgE0vaZlRzuJtLPXjRlRtWkL+zaNVGtsbDdatp1
hiq859Ed8zFF+XuZFemTvgTGyiS0LDOlOrvH9tLsXHYf1pLspULYT+C0D0d0Jp7G
r3GCl7fxqoevAgMBAAGjZzBlMB8GA1UdIwQYMBaAFNv4ahUKglMfwuvM0G6Dclfk
RfJ0MDQGA1UdJQQtMCsGCCsGAQUFBwMBBggrBgEFBQcDAgYKKwYBBAGCNwoDAwYJ
YIZIAYb4QgQBMAwGA1UdEwEB/wQCMAAwDQYJKoZIhvcNAQEEBQADgYEAUzzCGJ/T
W+sVNxYaU1YiK4I6ZFdYebrF4UOTy/c4uBaGqZsOcvnO3BN/0CL8/M7Iom9yZUK4
1cancngVPuRlfa+SlELVNpfn4aZicxB9/9h+Gj3dIzvq9quqHwA6PUtt1nbJZg7U
dCc/n6g85wI3VwtCTL4yazwUJxHHHc1X6gk=
-----END CERTIFICATE-----
