Certificate:
    Data:
        Version: 3 (0x2)
        Serial Number: 2 (0x2)
        Signature Algorithm: md5WithRSAEncryption
        Issuer: C=MY, ST=MAHA, L=PUNE, O=PSPL, OU=OBLIX-QA, CN=ps2436/Email=sagar@pspl.com
        Validity
            Not Before: Jun  5 14:30:55 2008 GMT
            Not After : Jun  5 14:30:55 2009 GMT
        Subject: C=in, ST=maha, L=pune, O=pspl, OU=oblix, CN=ps2436.persistent.co.in
        Subject Public Key Info:
            Public Key Algorithm: rsaEncryption
            RSA Public Key: (1024 bit)
                Modulus (1024 bit):
                    00:c5:f2:d9:db:04:8d:bc:79:6b:7a:68:36:2d:d4:
                    9a:28:a0:9f:4e:90:69:cb:f6:fd:48:b4:d5:66:06:
                    12:bb:47:40:76:37:f2:e4:2e:85:81:f6:b2:b6:43:
                    0a:2b:75:c1:0f:d2:a8:ac:87:15:3d:38:86:bb:2f:
                    bd:07:d3:84:b4:af:52:50:72:86:fd:bd:60:1f:9e:
                    e5:1c:92:80:d5:b4:c6:2c:dc:92:14:d1:5f:4f:30:
                    60:f5:7a:a2:65:f4:fe:9e:9e:bd:31:81:64:27:8f:
                    79:bb:d1:d6:0f:e4:53:91:26:33:d6:be:6f:76:e2:
                    d5:ed:40:43:98:0f:fc:13:6f
                Exponent: 65537 (0x10001)
        X509v3 extensions:
            X509v3 Authority Key Identifier: 
                keyid:DB:F8:6A:15:0A:82:53:1F:C2:EB:CC:D0:6E:83:72:57:E4:45:F2:74

            X509v3 Extended Key Usage: 
                TLS Web Server Authentication, TLS Web Client Authentication, Microsoft Server Gated Crypto, Netscape Server Gated Crypto
            X509v3 Basic Constraints: critical
                CA:FALSE
    Signature Algorithm: md5WithRSAEncryption
        9a:b3:f9:47:b0:e4:76:23:b1:53:34:34:e5:3f:ca:a0:8b:d5:
        6e:4a:d6:10:1d:e1:93:65:3c:d5:43:11:d3:c6:95:66:fd:2a:
        ad:8a:41:4f:4b:bd:84:4a:ea:5b:dd:be:5e:8d:85:88:75:d1:
        ec:57:01:37:dc:73:09:34:eb:35:30:fc:ba:e1:bd:e8:8c:da:
        f5:94:a4:55:2a:c5:11:24:d9:f3:34:dd:2b:7f:fd:52:3e:45:
        82:1a:4d:f0:20:f8:35:8b:c3:31:03:a5:79:0e:9f:17:c3:55:
        79:06:52:62:ff:81:97:c1:a0:c1:ba:ca:e8:47:a4:fb:b5:e8:
        3f:b0
-----BEGIN CERTIFICATE-----
MIICxjCCAi+gAwIBAgIBAjANBgkqhkiG9w0BAQQFADB9MQswCQYDVQQGEwJNWTEN
MAsGA1UECBMETUFIQTENMAsGA1UEBxMEUFVORTENMAsGA1UEChMEUFNQTDERMA8G
A1UECxMIT0JMSVgtUUExDzANBgNVBAMTBnBzMjQzNjEdMBsGCSqGSIb3DQEJARYO
c2FnYXJAcHNwbC5jb20wHhcNMDgwNjA1MTQzMDU1WhcNMDkwNjA1MTQzMDU1WjBs
MQswCQYDVQQGEwJpbjENMAsGA1UECBMEbWFoYTENMAsGA1UEBxMEcHVuZTENMAsG
A1UEChMEcHNwbDEOMAwGA1UECxMFb2JsaXgxIDAeBgNVBAMTF3BzMjQzNi5wZXJz
aXN0ZW50LmNvLmluMIGfMA0GCSqGSIb3DQEBAQUAA4GNADCBiQKBgQDF8tnbBI28
eWt6aDYt1JoooJ9OkGnL9v1ItNVmBhK7R0B2N/LkLoWB9rK2QwordcEP0qishxU9
OIa7L70H04S0r1JQcob9vWAfnuUckoDVtMYs3JIU0V9PMGD1eqJl9P6enr0xgWQn
j3m70dYP5FORJjPWvm924tXtQEOYD/wTbwIDAQABo2cwZTAfBgNVHSMEGDAWgBTb
+GoVCoJTH8LrzNBug3JX5EXydDA0BgNVHSUELTArBggrBgEFBQcDAQYIKwYBBQUH
AwIGCisGAQQBgjcKAwMGCWCGSAGG+EIEATAMBgNVHRMBAf8EAjAAMA0GCSqGSIb3
DQEBBAUAA4GBAJqz+Uew5HYjsVM0NOU/yqCL1W5K1hAd4ZNlPNVDEdPGlWb9Kq2K
QU9LvYRK6lvdvl6NhYh10exXATfccwk06zUw/LrhveiM2vWUpFUqxREk2fM03St/
/VI+RYIaTfAg+DWLwzEDpXkOnxfDVXkGUmL/gZfBoMG6yuhHpPu16D+w
-----END CERTIFICATE-----
