Certificate:
    Data:
        Version: 3 (0x2)
        Serial Number: 3 (0x3)
        Signature Algorithm: md5WithRSAEncryption
        Issuer: C=MY, ST=MAHA, L=PUNE, O=PSPL, OU=OBLIX-QA, CN=ps2436/Email=sagar@pspl.com
        Validity
            Not Before: Jun  6 06:45:25 2008 GMT
            Not After : Jun  6 06:45:25 2009 GMT
        Subject: C=IN, ST=in, L=pune, O=psl, OU=oblix, CN=ps0888
        Subject Public Key Info:
            Public Key Algorithm: rsaEncryption
            RSA Public Key: (1024 bit)
                Modulus (1024 bit):
                    00:dd:e3:49:90:f1:a7:10:a5:c7:bc:10:0f:cb:35:
                    c0:c6:32:79:b8:19:0c:01:85:42:05:78:2f:8c:9d:
                    00:b2:00:bb:fb:d0:b5:2d:ab:d1:34:8f:ac:a0:31:
                    d4:31:aa:29:68:3a:b9:42:de:c5:96:61:cf:a5:ac:
                    20:ad:76:c4:a4:c8:88:40:23:cf:5f:f0:2f:42:0a:
                    b3:ed:e6:f1:ab:b6:57:bb:c8:2f:83:42:ea:79:ef:
                    c9:dd:6d:f7:b7:cc:3b:c4:cc:75:d5:c7:7b:eb:17:
                    3d:1e:67:a9:1d:75:47:40:aa:91:a9:2d:10:b4:93:
                    c9:a5:52:a1:c9:86:e7:75:6d
                Exponent: 65537 (0x10001)
        X509v3 extensions:
            X509v3 Authority Key Identifier: 
                keyid:DB:F8:6A:15:0A:82:53:1F:C2:EB:CC:D0:6E:83:72:57:E4:45:F2:74

            X509v3 Extended Key Usage: 
                TLS Web Server Authentication, TLS Web Client Authentication, Microsoft Server Gated Crypto, Netscape Server Gated Crypto
            X509v3 Basic Constraints: critical
                CA:FALSE
    Signature Algorithm: md5WithRSAEncryption
        3d:b4:44:72:4d:34:67:8c:76:02:79:3f:83:42:4c:99:85:7a:
        4e:87:1c:44:75:ff:37:eb:39:fe:a4:ac:e4:0a:83:e0:85:62:
        55:d0:a7:af:84:a6:b6:7c:d8:ee:17:a1:a4:0b:0c:27:b8:09:
        af:f0:f4:b4:b8:92:2e:33:70:68:92:74:b0:d1:b2:92:89:90:
        ee:3c:b4:da:72:4d:b1:62:9b:c3:0c:38:f1:8b:a8:a2:58:2f:
        c3:29:6a:1f:9e:de:a0:d6:0d:3b:34:08:a3:5c:61:73:a3:a0:
        ed:15:e5:e2:11:f4:9c:24:08:95:68:53:f1:5e:f0:e5:68:d4:
        f6:ca
-----BEGIN CERTIFICATE-----
MIICsjCCAhugAwIBAgIBAzANBgkqhkiG9w0BAQQFADB9MQswCQYDVQQGEwJNWTEN
MAsGA1UECBMETUFIQTENMAsGA1UEBxMEUFVORTENMAsGA1UEChMEUFNQTDERMA8G
A1UECxMIT0JMSVgtUUExDzANBgNVBAMTBnBzMjQzNjEdMBsGCSqGSIb3DQEJARYO
c2FnYXJAcHNwbC5jb20wHhcNMDgwNjA2MDY0NTI1WhcNMDkwNjA2MDY0NTI1WjBY
MQswCQYDVQQGEwJJTjELMAkGA1UECBMCaW4xDTALBgNVBAcTBHB1bmUxDDAKBgNV
BAoTA3BzbDEOMAwGA1UECxMFb2JsaXgxDzANBgNVBAMTBnBzMDg4ODCBnzANBgkq
hkiG9w0BAQEFAAOBjQAwgYkCgYEA3eNJkPGnEKXHvBAPyzXAxjJ5uBkMAYVCBXgv
jJ0AsgC7+9C1LavRNI+soDHUMaopaDq5Qt7FlmHPpawgrXbEpMiIQCPPX/AvQgqz
7ebxq7ZXu8gvg0Lqee/J3W33t8w7xMx11cd76xc9HmepHXVHQKqRqS0QtJPJpVKh
yYbndW0CAwEAAaNnMGUwHwYDVR0jBBgwFoAU2/hqFQqCUx/C68zQboNyV+RF8nQw
NAYDVR0lBC0wKwYIKwYBBQUHAwEGCCsGAQUFBwMCBgorBgEEAYI3CgMDBglghkgB
hvhCBAEwDAYDVR0TAQH/BAIwADANBgkqhkiG9w0BAQQFAAOBgQA9tERyTTRnjHYC
eT+DQkyZhXpOhxxEdf836zn+pKzkCoPghWJV0KevhKa2fNjuF6GkCwwnuAmv8PS0
uJIuM3BoknSw0bKSiZDuPLTack2xYpvDDDjxi6iiWC/DKWofnt6g1g07NAijXGFz
o6DtFeXiEfScJAiVaFPxXvDlaNT2yg==
-----END CERTIFICATE-----
