Certificate:
    Data:
        Version: 3 (0x2)
        Serial Number: 4 (0x4)
        Signature Algorithm: md5WithRSAEncryption
        Issuer: C=MY, ST=MAHA, L=PUNE, O=PSPL, OU=OBLIX-QA, CN=ps2436/Email=sagar@pspl.com
        Validity
            Not Before: Jun  9 06:06:03 2008 GMT
            Not After : Jun  9 06:06:03 2009 GMT
        Subject: C=IN, ST=Maharastra, L=Pune, O=Persistent, OU=Oblix, CN=gruel.us.oracle.com
        Subject Public Key Info:
            Public Key Algorithm: rsaEncryption
            RSA Public Key: (1024 bit)
                Modulus (1024 bit):
                    00:e6:1b:be:be:b0:d7:95:26:32:ce:13:7d:69:b4:
                    71:89:38:7f:41:65:7d:98:67:de:f3:93:58:8a:c8:
                    e4:5d:6c:81:06:54:ec:50:96:5e:0b:93:86:47:c5:
                    8c:88:43:cf:8d:4e:63:0b:fb:bf:46:b3:5a:df:f1:
                    fb:c4:e1:24:71:cc:3c:f8:2c:cf:34:f3:43:3c:06:
                    ba:74:e6:1a:14:03:cf:24:ac:ea:04:81:0a:53:c1:
                    a2:b8:41:58:12:ff:12:ba:47:c5:2b:be:65:92:63:
                    83:c6:84:26:2b:72:69:12:48:42:02:68:54:21:2e:
                    91:4a:17:f1:d2:44:d3:92:43
                Exponent: 65537 (0x10001)
        X509v3 extensions:
            X509v3 Authority Key Identifier: 
                keyid:DB:F8:6A:15:0A:82:53:1F:C2:EB:CC:D0:6E:83:72:57:E4:45:F2:74

            X509v3 Extended Key Usage: 
                TLS Web Server Authentication, TLS Web Client Authentication, Microsoft Server Gated Crypto, Netscape Server Gated Crypto
            X509v3 Basic Constraints: critical
                CA:FALSE
    Signature Algorithm: md5WithRSAEncryption
        11:a4:73:06:d4:2c:ee:73:c9:00:38:86:05:3f:85:f8:7c:05:
        eb:59:ce:29:f7:e3:cd:96:20:37:99:4d:36:3d:d1:9a:8e:75:
        d8:db:1d:4c:a3:9d:85:49:71:40:a5:dc:00:21:c0:bf:6e:f9:
        62:c6:4d:2a:3b:30:2e:a6:1a:fb:a0:53:28:97:c2:1f:b8:e3:
        31:49:f7:c5:0b:dc:f8:3b:15:8d:57:43:1d:7b:88:f8:08:45:
        e3:4c:47:4d:ce:98:82:4d:0b:63:b4:23:f0:be:89:34:20:81:
        ac:e0:75:64:11:5a:6e:aa:10:b8:ee:98:77:d1:6b:01:f0:18:
        09:20
-----BEGIN CERTIFICATE-----
MIICzjCCAjegAwIBAgIBBDANBgkqhkiG9w0BAQQFADB9MQswCQYDVQQGEwJNWTEN
MAsGA1UECBMETUFIQTENMAsGA1UEBxMEUFVORTENMAsGA1UEChMEUFNQTDERMA8G
A1UECxMIT0JMSVgtUUExDzANBgNVBAMTBnBzMjQzNjEdMBsGCSqGSIb3DQEJARYO
c2FnYXJAcHNwbC5jb20wHhcNMDgwNjA5MDYwNjAzWhcNMDkwNjA5MDYwNjAzWjB0
MQswCQYDVQQGEwJJTjETMBEGA1UECBMKTWFoYXJhc3RyYTENMAsGA1UEBxMEUHVu
ZTETMBEGA1UEChMKUGVyc2lzdGVudDEOMAwGA1UECxMFT2JsaXgxHDAaBgNVBAMT
E2dydWVsLnVzLm9yYWNsZS5jb20wgZ8wDQYJKoZIhvcNAQEBBQADgY0AMIGJAoGB
AOYbvr6w15UmMs4TfWm0cYk4f0FlfZhn3vOTWIrI5F1sgQZU7FCWXguThkfFjIhD
z41OYwv7v0azWt/x+8ThJHHMPPgszzTzQzwGunTmGhQDzySs6gSBClPBorhBWBL/
ErpHxSu+ZZJjg8aEJityaRJIQgJoVCEukUoX8dJE05JDAgMBAAGjZzBlMB8GA1Ud
IwQYMBaAFNv4ahUKglMfwuvM0G6DclfkRfJ0MDQGA1UdJQQtMCsGCCsGAQUFBwMB
BggrBgEFBQcDAgYKKwYBBAGCNwoDAwYJYIZIAYb4QgQBMAwGA1UdEwEB/wQCMAAw
DQYJKoZIhvcNAQEEBQADgYEAEaRzBtQs7nPJADiGBT+F+HwF61nOKffjzZYgN5lN
Nj3Rmo512NsdTKOdhUlxQKXcACHAv275YsZNKjswLqYa+6BTKJfCH7jjMUn3xQvc
+DsVjVdDHXuI+AhF40xHTc6Ygk0LY7Qj8L6JNCCBrOB1ZBFabqoQuO6Yd9FrAfAY
CSA=
-----END CERTIFICATE-----
