Certificate:
    Data:
        Version: 3 (0x2)
        Serial Number: 8 (0x8)
        Signature Algorithm: md5WithRSAEncryption
        Issuer: C=MY, ST=MAHA, L=PUNE, O=PSPL, OU=OBLIX-QA, CN=ps2436/Email=sagar@pspl.com
        Validity
            Not Before: Jun  9 12:51:11 2008 GMT
            Not After : Jun  9 12:51:11 2009 GMT
        Subject: C=IN, ST=Maharashtra, L=Pune, O=PSL, OU=OblixQA, CN=v-ps5959-v2.persistent.co.in
        Subject Public Key Info:
            Public Key Algorithm: rsaEncryption
            RSA Public Key: (1024 bit)
                Modulus (1024 bit):
                    00:c7:5b:d3:23:8e:cb:d5:8a:b3:b1:c6:92:84:cb:
                    b5:4c:80:5e:50:bd:2f:35:ed:7c:8d:7a:a3:8f:b6:
                    12:c0:1a:3e:f4:c0:db:d2:e3:ef:d6:a4:ff:8b:af:
                    87:83:7d:cf:57:48:1d:d8:d5:5d:7e:b9:6e:14:30:
                    99:27:ca:a0:9d:12:ac:84:3c:51:e9:84:5c:47:44:
                    53:39:64:b6:38:fe:45:d3:e0:d7:7f:46:fe:a9:17:
                    25:a4:bc:59:c0:bc:cd:02:5e:c2:47:7d:df:b1:c9:
                    07:c7:23:f7:89:84:85:34:36:65:84:6d:f3:95:a3:
                    06:a4:cf:06:ac:1c:b6:bf:e5
                Exponent: 65537 (0x10001)
        X509v3 extensions:
            X509v3 Authority Key Identifier: 
                keyid:DB:F8:6A:15:0A:82:53:1F:C2:EB:CC:D0:6E:83:72:57:E4:45:F2:74

            X509v3 Extended Key Usage: 
                TLS Web Server Authentication, TLS Web Client Authentication, Microsoft Server Gated Crypto, Netscape Server Gated Crypto
            X509v3 Basic Constraints: critical
                CA:FALSE
    Signature Algorithm: md5WithRSAEncryption
        3f:e7:e2:0b:e6:4d:b0:27:88:cd:dd:7b:4d:15:88:14:95:1e:
        6c:24:81:8c:fe:1a:27:07:b9:bb:07:78:d4:20:6e:24:0b:1f:
        98:48:35:3c:71:1d:fd:7b:c1:63:34:06:e5:71:74:3d:ef:e5:
        09:fc:92:4d:a3:b2:f9:bc:08:42:d1:67:1d:1c:3e:ab:c5:ee:
        82:c1:ec:2a:99:f1:da:12:53:38:d0:48:74:a6:73:29:05:49:
        25:81:55:7b:0f:d2:ba:a1:bc:8c:2a:b7:7e:03:b9:c9:0c:f0:
        1d:7e:b3:7d:2e:c9:7d:bb:18:ff:5d:79:2c:e8:20:5b:27:38:
        f8:dc
-----BEGIN CERTIFICATE-----
MIIC0zCCAjygAwIBAgIBCDANBgkqhkiG9w0BAQQFADB9MQswCQYDVQQGEwJNWTEN
MAsGA1UECBMETUFIQTENMAsGA1UEBxMEUFVORTENMAsGA1UEChMEUFNQTDERMA8G
A1UECxMIT0JMSVgtUUExDzANBgNVBAMTBnBzMjQzNjEdMBsGCSqGSIb3DQEJARYO
c2FnYXJAcHNwbC5jb20wHhcNMDgwNjA5MTI1MTExWhcNMDkwNjA5MTI1MTExWjB5
MQswCQYDVQQGEwJJTjEUMBIGA1UECBMLTWFoYXJhc2h0cmExDTALBgNVBAcTBFB1
bmUxDDAKBgNVBAoTA1BTTDEQMA4GA1UECxMHT2JsaXhRQTElMCMGA1UEAxMcdi1w
czU5NTktdjIucGVyc2lzdGVudC5jby5pbjCBnzANBgkqhkiG9w0BAQEFAAOBjQAw
gYkCgYEAx1vTI47L1YqzscaShMu1TIBeUL0vNe18jXqjj7YSwBo+9MDb0uPv1qT/
i6+Hg33PV0gd2NVdfrluFDCZJ8qgnRKshDxR6YRcR0RTOWS2OP5F0+DXf0b+qRcl
pLxZwLzNAl7CR33fsckHxyP3iYSFNDZlhG3zlaMGpM8GrBy2v+UCAwEAAaNnMGUw
HwYDVR0jBBgwFoAU2/hqFQqCUx/C68zQboNyV+RF8nQwNAYDVR0lBC0wKwYIKwYB
BQUHAwEGCCsGAQUFBwMCBgorBgEEAYI3CgMDBglghkgBhvhCBAEwDAYDVR0TAQH/
BAIwADANBgkqhkiG9w0BAQQFAAOBgQA/5+IL5k2wJ4jN3XtNFYgUlR5sJIGM/hon
B7m7B3jUIG4kCx+YSDU8cR39e8FjNAblcXQ97+UJ/JJNo7L5vAhC0WcdHD6rxe6C
wewqmfHaElM40Eh0pnMpBUklgVV7D9K6obyMKrd+A7nJDPAdfrN9Lsl9uxj/XXks
6CBbJzj43A==
-----END CERTIFICATE-----
