Certificate:
    Data:
        Version: 3 (0x2)
        Serial Number: 11 (0xb)
        Signature Algorithm: md5WithRSAEncryption
        Issuer: C=MY, ST=MAHA, L=PUNE, O=PSPL, OU=OBLIX-QA, CN=ps2436/Email=sagar@pspl.com
        Validity
            Not Before: Jun 13 08:42:03 2008 GMT
            Not After : Jun 13 08:42:03 2009 GMT
        Subject: C=in, ST=maha, L=pune, O=pspl, OU=oblix, CN=ps2261/Email=sagar@pspl.com
        Subject Public Key Info:
            Public Key Algorithm: rsaEncryption
            RSA Public Key: (1024 bit)
                Modulus (1024 bit):
                    00:ab:f1:c4:00:c1:d9:76:93:0f:43:47:c9:9b:e0:
                    a3:06:0e:bf:77:ca:2f:4e:ae:b6:76:34:04:6d:db:
                    e1:81:39:e7:a4:48:6d:bf:44:ab:7f:cc:ee:bd:d0:
                    53:1a:f6:c5:5b:35:70:98:fe:1f:85:0b:ef:c7:c0:
                    9f:dc:f5:48:ac:2e:45:60:a2:37:3d:9e:9e:08:37:
                    57:ce:2f:f7:c2:98:08:6a:d9:5d:fa:4e:cc:15:a4:
                    70:27:ed:2d:59:c3:98:05:19:2e:31:fd:42:27:00:
                    c9:a7:17:d1:93:93:50:b2:08:5c:64:5d:a2:f9:63:
                    28:12:61:29:ac:63:e8:1f:45
                Exponent: 65537 (0x10001)
        X509v3 extensions:
            X509v3 Authority Key Identifier: 
                keyid:DB:F8:6A:15:0A:82:53:1F:C2:EB:CC:D0:6E:83:72:57:E4:45:F2:74

            X509v3 Extended Key Usage: 
                TLS Web Server Authentication, TLS Web Client Authentication, Microsoft Server Gated Crypto, Netscape Server Gated Crypto
            X509v3 Basic Constraints: critical
                CA:FALSE
    Signature Algorithm: md5WithRSAEncryption
        0d:21:e7:92:5a:c4:71:09:08:5c:98:b0:ca:9a:66:ba:74:5d:
        93:08:bb:db:d3:c5:36:7b:36:fd:47:22:3a:ae:98:7c:2e:dc:
        8a:f5:9e:22:79:a1:02:66:fc:91:a2:19:ef:5d:cf:f1:85:f2:
        24:5f:bc:64:c2:9e:3b:ef:3e:8e:2b:e6:16:de:9f:a8:c6:e5:
        50:a5:5a:fb:c1:d6:b3:9c:94:d7:6f:6e:8d:6a:b8:cf:28:9a:
        f7:dc:d4:2b:20:93:5f:87:45:3b:3d:5d:c2:43:24:81:9c:96:
        d5:4c:40:6f:5c:a3:3d:7f:d1:c1:d5:c2:f3:97:22:54:81:7a:
        76:05
-----BEGIN CERTIFICATE-----
MIIC1DCCAj2gAwIBAgIBCzANBgkqhkiG9w0BAQQFADB9MQswCQYDVQQGEwJNWTEN
MAsGA1UECBMETUFIQTENMAsGA1UEBxMEUFVORTENMAsGA1UEChMEUFNQTDERMA8G
A1UECxMIT0JMSVgtUUExDzANBgNVBAMTBnBzMjQzNjEdMBsGCSqGSIb3DQEJARYO
c2FnYXJAcHNwbC5jb20wHhcNMDgwNjEzMDg0MjAzWhcNMDkwNjEzMDg0MjAzWjB6
MQswCQYDVQQGEwJpbjENMAsGA1UECBMEbWFoYTENMAsGA1UEBxMEcHVuZTENMAsG
A1UEChMEcHNwbDEOMAwGA1UECxMFb2JsaXgxDzANBgNVBAMTBnBzMjI2MTEdMBsG
CSqGSIb3DQEJARYOc2FnYXJAcHNwbC5jb20wgZ8wDQYJKoZIhvcNAQEBBQADgY0A
MIGJAoGBAKvxxADB2XaTD0NHyZvgowYOv3fKL06utnY0BG3b4YE556RIbb9Eq3/M
7r3QUxr2xVs1cJj+H4UL78fAn9z1SKwuRWCiNz2engg3V84v98KYCGrZXfpOzBWk
cCftLVnDmAUZLjH9QicAyacX0ZOTULIIXGRdovljKBJhKaxj6B9FAgMBAAGjZzBl
MB8GA1UdIwQYMBaAFNv4ahUKglMfwuvM0G6DclfkRfJ0MDQGA1UdJQQtMCsGCCsG
AQUFBwMBBggrBgEFBQcDAgYKKwYBBAGCNwoDAwYJYIZIAYb4QgQBMAwGA1UdEwEB
/wQCMAAwDQYJKoZIhvcNAQEEBQADgYEADSHnklrEcQkIXJiwyppmunRdkwi729PF
Nns2/UciOq6YfC7civWeInmhAmb8kaIZ713P8YXyJF+8ZMKeO+8+jivmFt6fqMbl
UKVa+8HWs5yU129ujWq4zyia99zUKyCTX4dFOz1dwkMkgZyW1UxAb1yjPX/RwdXC
85ciVIF6dgU=
-----END CERTIFICATE-----
