Certificate:
    Data:
        Version: 3 (0x2)
        Serial Number: 15 (0xf)
        Signature Algorithm: md5WithRSAEncryption
        Issuer: C=MY, ST=MAHA, L=PUNE, O=PSPL, OU=OBLIX-QA, CN=ps2436/Email=sagar@pspl.com
        Validity
            Not Before: Jun 13 10:25:33 2008 GMT
            Not After : Jun 13 10:25:33 2009 GMT
        Subject: CN=user1k1/Email=user1k1@Company.com
        Subject Public Key Info:
            Public Key Algorithm: rsaEncryption
            RSA Public Key: (1024 bit)
                Modulus (1024 bit):
                    00:dd:d4:41:00:f6:df:cf:d5:76:b4:e4:02:49:a9:
                    04:54:cd:6a:e5:77:d5:49:f0:f9:ab:fa:4a:6f:57:
                    57:54:61:a6:d6:54:39:67:56:d4:b2:c4:c4:d8:e9:
                    17:96:e6:c7:05:49:53:5c:38:ba:ed:6a:ce:19:54:
                    7a:2e:65:a0:0b:5f:9e:99:6d:f7:08:f4:c3:97:b7:
                    45:2a:0e:c4:6c:09:7d:26:96:64:b3:60:03:ce:d2:
                    e2:17:ce:ac:c4:f5:a4:3d:7d:d7:d9:61:ec:91:3d:
                    39:74:0b:29:13:3d:22:cb:a9:35:b6:b3:04:79:e7:
                    b8:4e:52:32:e1:60:32:19:13
                Exponent: 65537 (0x10001)
        X509v3 extensions:
            X509v3 Subject Alternative Name: 
                email:user1k1@Company.com
            X509v3 Basic Constraints: critical
                CA:FALSE
            X509v3 Authority Key Identifier: 
                keyid:DB:F8:6A:15:0A:82:53:1F:C2:EB:CC:D0:6E:83:72:57:E4:45:F2:74

            X509v3 Extended Key Usage: 
                TLS Web Client Authentication, E-mail Protection
    Signature Algorithm: md5WithRSAEncryption
        28:e2:1f:99:07:28:ea:0d:21:88:99:3d:e1:e3:d2:0e:85:38:
        ff:16:75:80:31:c2:62:66:89:aa:c8:b3:01:7d:f1:b8:42:88:
        55:e1:36:ed:7b:a9:88:73:1a:33:e3:b5:4f:9e:53:ab:6c:4c:
        7d:79:c3:c8:ff:6c:8a:59:7b:a6:6f:1c:2f:22:33:0e:98:a2:
        0c:8d:ba:bd:56:e1:35:5a:be:7b:27:27:ad:0b:fb:6a:21:50:
        be:d4:1b:24:d0:9a:fd:96:1f:79:bf:32:64:b8:10:e9:6a:f3:
        01:d5:58:73:8f:f8:ab:9b:1e:89:30:f7:57:99:c9:5f:79:b9:
        67:ac
-----BEGIN CERTIFICATE-----
MIICmTCCAgKgAwIBAgIBDzANBgkqhkiG9w0BAQQFADB9MQswCQYDVQQGEwJNWTEN
MAsGA1UECBMETUFIQTENMAsGA1UEBxMEUFVORTENMAsGA1UEChMEUFNQTDERMA8G
A1UECxMIT0JMSVgtUUExDzANBgNVBAMTBnBzMjQzNjEdMBsGCSqGSIb3DQEJARYO
c2FnYXJAcHNwbC5jb20wHhcNMDgwNjEzMTAyNTMzWhcNMDkwNjEzMTAyNTMzWjA2
MRAwDgYDVQQDEwd1c2VyMWsxMSIwIAYJKoZIhvcNAQkBFhN1c2VyMWsxQENvbXBh
bnkuY29tMIGfMA0GCSqGSIb3DQEBAQUAA4GNADCBiQKBgQDd1EEA9t/P1Xa05AJJ
qQRUzWrld9VJ8Pmr+kpvV1dUYabWVDlnVtSyxMTY6ReW5scFSVNcOLrtas4ZVHou
ZaALX56ZbfcI9MOXt0UqDsRsCX0mlmSzYAPO0uIXzqzE9aQ9fdfZYeyRPTl0CykT
PSLLqTW2swR557hOUjLhYDIZEwIDAQABo3AwbjAeBgNVHREEFzAVgRN1c2VyMWsx
QENvbXBhbnkuY29tMAwGA1UdEwEB/wQCMAAwHwYDVR0jBBgwFoAU2/hqFQqCUx/C
68zQboNyV+RF8nQwHQYDVR0lBBYwFAYIKwYBBQUHAwIGCCsGAQUFBwMEMA0GCSqG
SIb3DQEBBAUAA4GBACjiH5kHKOoNIYiZPeHj0g6FOP8WdYAxwmJmiarIswF98bhC
iFXhNu17qYhzGjPjtU+eU6tsTH15w8j/bIpZe6ZvHC8iMw6YogyNur1W4TVavnsn
J60L+2ohUL7UGyTQmv2WH3m/MmS4EOlq8wHVWHOP+KubHokw91eZyV95uWes
-----END CERTIFICATE-----
