Certificate:
    Data:
        Version: 3 (0x2)
        Serial Number: 16 (0x10)
        Signature Algorithm: md5WithRSAEncryption
        Issuer: C=MY, ST=MAHA, L=PUNE, O=PSPL, OU=OBLIX-QA, CN=ps2436/Email=sagar@pspl.com
        Validity
            Not Before: Jun 18 14:46:09 2008 GMT
            Not After : Jun 18 14:46:09 2009 GMT
        Subject: C=IN, ST=Maha, L=Pune, O=PSL, OU=Oblix, CN=v-ps4572-v1
        Subject Public Key Info:
            Public Key Algorithm: rsaEncryption
            RSA Public Key: (1024 bit)
                Modulus (1024 bit):
                    00:bd:31:88:ab:42:24:3d:a2:ad:1d:2b:68:26:6e:
                    3c:2d:be:55:bf:83:6a:74:4a:9c:c1:fe:37:d6:32:
                    17:6c:73:2c:66:2d:35:60:39:ab:fa:63:7e:1f:6f:
                    8e:ea:7b:f2:91:92:03:9f:b5:dc:1a:91:69:36:39:
                    ab:73:aa:4b:55:6b:c7:82:d9:9a:1d:c4:66:7e:93:
                    bc:d9:7d:18:34:1f:18:cc:c6:3a:0c:ee:75:c7:08:
                    93:f0:f1:59:be:78:f2:74:c9:3e:b3:c0:c8:f5:83:
                    f8:11:4d:1e:6d:72:69:cc:2f:d9:c9:aa:e4:e0:9e:
                    9b:f0:80:d3:d8:1e:ee:7e:e9
                Exponent: 65537 (0x10001)
        X509v3 extensions:
            X509v3 Authority Key Identifier: 
                keyid:DB:F8:6A:15:0A:82:53:1F:C2:EB:CC:D0:6E:83:72:57:E4:45:F2:74

            X509v3 Extended Key Usage: 
                TLS Web Server Authentication, TLS Web Client Authentication, Microsoft Server Gated Crypto, Netscape Server Gated Crypto
            X509v3 Basic Constraints: critical
                CA:FALSE
    Signature Algorithm: md5WithRSAEncryption
        35:8a:fb:00:62:f6:c6:b5:d2:cf:6d:b7:89:80:f2:53:11:54:
        c9:8d:cd:a7:6c:f6:10:4b:9f:a1:e3:30:69:1c:c2:8b:ea:8a:
        2a:6c:09:ef:61:cd:2c:6e:b6:f4:02:5a:48:89:f4:8a:40:ce:
        d1:5a:7b:7f:bf:f2:48:38:21:82:ba:e2:63:b3:93:f5:fa:b3:
        88:3d:20:9e:ab:6a:e9:26:09:a6:4f:f7:18:49:cd:fd:d2:96:
        e9:fd:5c:97:34:ea:69:cf:c3:e0:9e:5b:7f:10:84:65:2c:6c:
        9d:10:33:82:48:40:7c:9c:47:42:9f:1d:b8:05:ab:16:8c:12:
        e6:63
-----BEGIN CERTIFICATE-----
MIICuTCCAiKgAwIBAgIBEDANBgkqhkiG9w0BAQQFADB9MQswCQYDVQQGEwJNWTEN
MAsGA1UECBMETUFIQTENMAsGA1UEBxMEUFVORTENMAsGA1UEChMEUFNQTDERMA8G
A1UECxMIT0JMSVgtUUExDzANBgNVBAMTBnBzMjQzNjEdMBsGCSqGSIb3DQEJARYO
c2FnYXJAcHNwbC5jb20wHhcNMDgwNjE4MTQ0NjA5WhcNMDkwNjE4MTQ0NjA5WjBf
MQswCQYDVQQGEwJJTjENMAsGA1UECBMETWFoYTENMAsGA1UEBxMEUHVuZTEMMAoG
A1UEChMDUFNMMQ4wDAYDVQQLEwVPYmxpeDEUMBIGA1UEAxMLdi1wczQ1NzItdjEw
gZ8wDQYJKoZIhvcNAQEBBQADgY0AMIGJAoGBAL0xiKtCJD2irR0raCZuPC2+Vb+D
anRKnMH+N9YyF2xzLGYtNWA5q/pjfh9vjup78pGSA5+13BqRaTY5q3OqS1Vrx4LZ
mh3EZn6TvNl9GDQfGMzGOgzudccIk/DxWb548nTJPrPAyPWD+BFNHm1yacwv2cmq
5OCem/CA09ge7n7pAgMBAAGjZzBlMB8GA1UdIwQYMBaAFNv4ahUKglMfwuvM0G6D
clfkRfJ0MDQGA1UdJQQtMCsGCCsGAQUFBwMBBggrBgEFBQcDAgYKKwYBBAGCNwoD
AwYJYIZIAYb4QgQBMAwGA1UdEwEB/wQCMAAwDQYJKoZIhvcNAQEEBQADgYEANYr7
AGL2xrXSz223iYDyUxFUyY3Np2z2EEufoeMwaRzCi+qKKmwJ72HNLG629AJaSIn0
ikDO0Vp7f7/ySDghgrriY7OT9fqziD0gnqtq6SYJpk/3GEnN/dKW6f1clzTqac/D
4J5bfxCEZSxsnRAzgkhAfJxHQp8duAWrFowS5mM=
-----END CERTIFICATE-----
