Certificate:
    Data:
        Version: 3 (0x2)
        Serial Number: 18 (0x12)
        Signature Algorithm: md5WithRSAEncryption
        Issuer: C=MY, ST=MAHA, L=PUNE, O=PSPL, OU=OBLIX-QA, CN=ps2436/emailAddress=sagar@pspl.com
        Validity
            Not Before: Nov 24 11:00:22 2008 GMT
            Not After : Nov 24 11:00:22 2009 GMT
        Subject: C=In, ST=maha, L=Pune, O=oblix, OU=psl, CN=ps3848/emailAddress=sagar@psl.com
        Subject Public Key Info:
            Public Key Algorithm: rsaEncryption
            RSA Public Key: (1024 bit)
                Modulus (1024 bit):
                    00:bd:dc:bf:d8:33:24:06:ec:af:6f:f9:19:06:fe:
                    28:ae:ea:5c:c3:bd:ab:5e:ec:7f:76:1c:0a:24:79:
                    6b:0f:69:a4:e0:3e:00:8a:e7:89:0c:5f:6a:3b:ff:
                    f7:6a:a2:99:22:9d:d9:ac:57:f4:eb:93:8f:04:2b:
                    0b:e2:b0:3c:91:ec:be:56:c6:5c:2e:4e:ed:2e:49:
                    ef:fb:cf:d3:93:97:e3:a8:a7:bb:d4:68:f6:d9:da:
                    9f:ff:f4:fa:4e:7b:f4:35:6c:6e:4b:8f:5b:f8:80:
                    a1:5d:ed:74:57:46:23:c5:51:a7:22:20:ec:e6:f8:
                    aa:47:8c:d7:40:a5:a4:43:45
                Exponent: 65537 (0x10001)
        X509v3 extensions:
            X509v3 Authority Key Identifier: 
            keyid:DB:F8:6A:15:0A:82:53:1F:C2:EB:CC:D0:6E:83:72:57:E4:45:F2:74

            X509v3 Extended Key Usage: 
            TLS Web Server Authentication, TLS Web Client Authentication, Microsoft Server Gated Crypto, Netscape Server Gated Crypto
            X509v3 Basic Constraints: critical
            CA:FALSE
    Signature Algorithm: md5WithRSAEncryption
        97:be:4a:55:d8:bf:a4:43:4a:ca:51:b8:3d:35:ac:6f:a9:ce:
        75:17:86:fe:f0:fb:1c:20:cf:e6:f5:dd:54:ff:f7:7e:0d:5f:
        09:c1:b6:47:07:13:5a:64:c6:23:eb:2a:9a:6b:be:ab:6f:5d:
        0f:cd:c5:85:5b:f3:8a:f7:a2:f8:76:bd:15:ad:29:02:e2:5c:
        1b:bd:5c:ab:5e:77:52:e8:6c:f0:3a:7a:03:94:11:96:b6:cd:
        42:ce:52:fd:83:e7:2f:1a:c6:5e:da:f1:56:84:3d:77:f7:9f:
        21:12:96:5b:19:7f:da:9b:79:14:63:bb:b1:cb:38:da:9f:20:
        5e:03
-----BEGIN CERTIFICATE-----
MIIC0jCCAjugAwIBAgIBEjANBgkqhkiG9w0BAQQFADB9MQswCQYDVQQGEwJNWTEN
MAsGA1UECBMETUFIQTENMAsGA1UEBxMEUFVORTENMAsGA1UEChMEUFNQTDERMA8G
A1UECxMIT0JMSVgtUUExDzANBgNVBAMTBnBzMjQzNjEdMBsGCSqGSIb3DQEJARYO
c2FnYXJAcHNwbC5jb20wHhcNMDgxMTI0MTEwMDIyWhcNMDkxMTI0MTEwMDIyWjB4
MQswCQYDVQQGEwJJbjENMAsGA1UECBMEbWFoYTENMAsGA1UEBxMEUHVuZTEOMAwG
A1UEChMFb2JsaXgxDDAKBgNVBAsTA3BzbDEPMA0GA1UEAxMGcHMzODQ4MRwwGgYJ
KoZIhvcNAQkBFg1zYWdhckBwc2wuY29tMIGfMA0GCSqGSIb3DQEBAQUAA4GNADCB
iQKBgQC93L/YMyQG7K9v+RkG/iiu6lzDvate7H92HAokeWsPaaTgPgCK54kMX2o7
//dqopkindmsV/Trk48EKwvisDyR7L5WxlwuTu0uSe/7z9OTl+Oop7vUaPbZ2p//
9PpOe/Q1bG5Lj1v4gKFd7XRXRiPFUaciIOzm+KpHjNdApaRDRQIDAQABo2cwZTAf
BgNVHSMEGDAWgBTb+GoVCoJTH8LrzNBug3JX5EXydDA0BgNVHSUELTArBggrBgEF
BQcDAQYIKwYBBQUHAwIGCisGAQQBgjcKAwMGCWCGSAGG+EIEATAMBgNVHRMBAf8E
AjAAMA0GCSqGSIb3DQEBBAUAA4GBAJe+SlXYv6RDSspRuD01rG+pznUXhv7w+xwg
z+b13VT/934NXwnBtkcHE1pkxiPrKpprvqtvXQ/NxYVb84r3ovh2vRWtKQLiXBu9
XKted1LobPA6egOUEZa2zULOUv2D5y8axl7a8VaEPXf3nyESllsZf9qbeRRju7HL
ONqfIF4D
-----END CERTIFICATE-----
