Certificate:
    Data:
        Version: 3 (0x2)
        Serial Number: 21 (0x15)
        Signature Algorithm: md5WithRSAEncryption
        Issuer: C=MY, ST=MAHA, L=PUNE, O=PSPL, OU=OBLIX-QA, CN=ps2436/emailAddress=sagar@pspl.com
        Validity
            Not Before: Dec  5 12:48:01 2008 GMT
            Not After : Dec  5 12:48:01 2009 GMT
        Subject: C=IN, ST=Maharashtra, L=Pune, O=PSPL, OU=oblix, CN=ps4520.persistent.co.in
        Subject Public Key Info:
            Public Key Algorithm: rsaEncryption
            RSA Public Key: (1024 bit)
                Modulus (1024 bit):
                    00:a3:af:09:1a:8d:e5:6a:b2:90:0e:f3:99:cf:e1:
                    1f:71:95:b5:8d:db:17:13:a6:bc:70:bf:61:64:52:
                    a4:84:ba:b5:8e:79:6f:46:78:47:f0:19:2c:61:25:
                    c6:cd:be:20:31:60:6d:20:28:8d:ef:e4:76:8a:83:
                    f8:e1:62:6f:4e:12:4c:eb:88:7c:a5:eb:c1:26:e1:
                    8e:ef:2d:ed:18:8d:6b:30:86:35:04:9f:10:9d:6d:
                    50:23:23:80:0d:74:0b:f2:20:ae:0c:40:06:21:9f:
                    5e:2a:f4:49:79:af:35:7b:eb:ba:3f:0f:4d:3c:05:
                    7a:06:fa:e6:50:fd:c5:b9:c9
                Exponent: 65537 (0x10001)
        X509v3 extensions:
            X509v3 Authority Key Identifier: 
            keyid:DB:F8:6A:15:0A:82:53:1F:C2:EB:CC:D0:6E:83:72:57:E4:45:F2:74

            X509v3 Extended Key Usage: 
            TLS Web Server Authentication, TLS Web Client Authentication, Microsoft Server Gated Crypto, Netscape Server Gated Crypto
            X509v3 Basic Constraints: critical
            CA:FALSE
    Signature Algorithm: md5WithRSAEncryption
        98:de:4c:c7:07:fb:85:de:42:7e:a6:84:59:85:85:75:db:2f:
        1d:5a:6a:88:8f:2f:1f:b7:5a:3f:33:4f:69:6e:4f:20:14:5a:
        df:83:b6:19:5c:0b:c1:c9:f4:a2:14:54:a4:3d:94:98:0a:b3:
        dc:1a:93:7e:57:aa:63:3e:ae:99:4c:ae:bf:9f:8a:a7:da:7c:
        3f:7b:eb:e1:81:60:98:64:aa:b8:21:71:bb:9c:9a:93:b0:ea:
        35:47:30:9d:44:84:8e:ce:f0:ab:72:1c:7e:f1:0b:0a:62:b4:
        e8:63:96:38:c6:f2:3e:ae:22:2f:dd:62:24:8a:2d:84:c9:21:
        b2:2c
-----BEGIN CERTIFICATE-----
MIICzTCCAjagAwIBAgIBFTANBgkqhkiG9w0BAQQFADB9MQswCQYDVQQGEwJNWTEN
MAsGA1UECBMETUFIQTENMAsGA1UEBxMEUFVORTENMAsGA1UEChMEUFNQTDERMA8G
A1UECxMIT0JMSVgtUUExDzANBgNVBAMTBnBzMjQzNjEdMBsGCSqGSIb3DQEJARYO
c2FnYXJAcHNwbC5jb20wHhcNMDgxMjA1MTI0ODAxWhcNMDkxMjA1MTI0ODAxWjBz
MQswCQYDVQQGEwJJTjEUMBIGA1UECBMLTWFoYXJhc2h0cmExDTALBgNVBAcTBFB1
bmUxDTALBgNVBAoTBFBTUEwxDjAMBgNVBAsTBW9ibGl4MSAwHgYDVQQDExdwczQ1
MjAucGVyc2lzdGVudC5jby5pbjCBnzANBgkqhkiG9w0BAQEFAAOBjQAwgYkCgYEA
o68JGo3larKQDvOZz+EfcZW1jdsXE6a8cL9hZFKkhLq1jnlvRnhH8BksYSXGzb4g
MWBtICiN7+R2ioP44WJvThJM64h8pevBJuGO7y3tGI1rMIY1BJ8QnW1QIyOADXQL
8iCuDEAGIZ9eKvRJea81e+u6Pw9NPAV6BvrmUP3FuckCAwEAAaNnMGUwHwYDVR0j
BBgwFoAU2/hqFQqCUx/C68zQboNyV+RF8nQwNAYDVR0lBC0wKwYIKwYBBQUHAwEG
CCsGAQUFBwMCBgorBgEEAYI3CgMDBglghkgBhvhCBAEwDAYDVR0TAQH/BAIwADAN
BgkqhkiG9w0BAQQFAAOBgQCY3kzHB/uF3kJ+poRZhYV12y8dWmqIjy8ft1o/M09p
bk8gFFrfg7YZXAvByfSiFFSkPZSYCrPcGpN+V6pjPq6ZTK6/n4qn2nw/e+vhgWCY
ZKq4IXG7nJqTsOo1RzCdRISOzvCrchx+8QsKYrToY5Y4xvI+riIv3WIkii2EySGy
LA==
-----END CERTIFICATE-----
