Certificate:
    Data:
        Version: 3 (0x2)
        Serial Number: 23 (0x17)
        Signature Algorithm: md5WithRSAEncryption
        Issuer: C=MY, ST=MAHA, L=PUNE, O=PSPL, OU=OBLIX-QA, CN=ps2436/emailAddress=sagar@pspl.com
        Validity
            Not Before: Dec  9 13:31:25 2008 GMT
            Not After : Dec  9 13:31:25 2009 GMT
        Subject: C=US, ST=Calfornia, L=redwood city, O=oracle, OU=webcahce, CN=wxdev2.us.oracle.com
        Subject Public Key Info:
            Public Key Algorithm: rsaEncryption
            RSA Public Key: (1024 bit)
                Modulus (1024 bit):
                    00:a5:1b:ea:37:e6:06:61:34:b7:be:68:c7:40:86:
                    12:41:34:8f:13:a5:7a:82:71:f4:a9:cc:aa:9d:92:
                    88:84:81:cf:85:55:24:f1:59:db:d6:3a:02:78:e9:
                    a0:60:02:70:a5:4e:37:af:36:b4:08:e7:2f:9d:96:
                    1b:c9:5d:b9:ce:f8:39:1d:2f:4a:31:ea:77:3a:7f:
                    44:5b:54:90:1a:8a:b2:dd:36:a7:78:f8:7a:55:68:
                    ba:29:78:49:21:5a:67:df:0d:03:34:bf:e4:4c:92:
                    a7:2b:bd:77:b0:96:c9:2f:e9:8b:0f:44:2c:b6:1c:
                    eb:5a:f5:cb:77:e5:c6:9c:fd
                Exponent: 65537 (0x10001)
        X509v3 extensions:
            X509v3 Authority Key Identifier: 
            keyid:DB:F8:6A:15:0A:82:53:1F:C2:EB:CC:D0:6E:83:72:57:E4:45:F2:74

            X509v3 Extended Key Usage: 
            TLS Web Server Authentication, TLS Web Client Authentication, Microsoft Server Gated Crypto, Netscape Server Gated Crypto
            X509v3 Basic Constraints: critical
            CA:FALSE
    Signature Algorithm: md5WithRSAEncryption
        26:3b:4d:91:be:a5:ad:aa:06:df:1f:6d:f8:6b:4f:ac:15:97:
        86:b6:e2:81:e9:53:d9:0e:90:c1:e5:c8:5d:b5:c4:10:34:80:
        48:03:be:71:ca:36:20:77:f2:ea:d6:7e:82:44:80:a8:15:ee:
        ff:e1:89:0b:b4:73:30:cb:ac:6c:2c:44:38:0d:fd:38:f6:fc:
        7e:b1:77:79:73:3b:50:ee:7a:82:1d:32:0b:dc:51:6c:07:7e:
        c9:a6:72:e2:a3:71:c6:96:be:97:f6:6a:1e:09:4a:52:93:9a:
        6d:f0:45:bd:6b:76:19:e7:ea:a2:07:ac:26:ce:26:10:c5:95:
        40:df
-----BEGIN CERTIFICATE-----
MIIC1TCCAj6gAwIBAgIBFzANBgkqhkiG9w0BAQQFADB9MQswCQYDVQQGEwJNWTEN
MAsGA1UECBMETUFIQTENMAsGA1UEBxMEUFVORTENMAsGA1UEChMEUFNQTDERMA8G
A1UECxMIT0JMSVgtUUExDzANBgNVBAMTBnBzMjQzNjEdMBsGCSqGSIb3DQEJARYO
c2FnYXJAcHNwbC5jb20wHhcNMDgxMjA5MTMzMTI1WhcNMDkxMjA5MTMzMTI1WjB7
MQswCQYDVQQGEwJVUzESMBAGA1UECBMJQ2FsZm9ybmlhMRUwEwYDVQQHEwxyZWR3
b29kIGNpdHkxDzANBgNVBAoTBm9yYWNsZTERMA8GA1UECxMId2ViY2FoY2UxHTAb
BgNVBAMTFHd4ZGV2Mi51cy5vcmFjbGUuY29tMIGfMA0GCSqGSIb3DQEBAQUAA4GN
ADCBiQKBgQClG+o35gZhNLe+aMdAhhJBNI8TpXqCcfSpzKqdkoiEgc+FVSTxWdvW
OgJ46aBgAnClTjevNrQI5y+dlhvJXbnO+DkdL0ox6nc6f0RbVJAairLdNqd4+HpV
aLopeEkhWmffDQM0v+RMkqcrvXewlskv6YsPRCy2HOta9ct35cac/QIDAQABo2cw
ZTAfBgNVHSMEGDAWgBTb+GoVCoJTH8LrzNBug3JX5EXydDA0BgNVHSUELTArBggr
BgEFBQcDAQYIKwYBBQUHAwIGCisGAQQBgjcKAwMGCWCGSAGG+EIEATAMBgNVHRMB
Af8EAjAAMA0GCSqGSIb3DQEBBAUAA4GBACY7TZG+pa2qBt8fbfhrT6wVl4a24oHp
U9kOkMHlyF21xBA0gEgDvnHKNiB38urWfoJEgKgV7v/hiQu0czDLrGwsRDgN/Tj2
/H6xd3lzO1DueoIdMgvcUWwHfsmmcuKjccaWvpf2ah4JSlKTmm3wRb1rdhnn6qIH
rCbOJhDFlUDf
-----END CERTIFICATE-----
