Certificate:
    Data:
        Version: 3 (0x2)
        Serial Number: 28 (0x1c)
        Signature Algorithm: md5WithRSAEncryption
        Issuer: C=MY, ST=MAHA, L=PUNE, O=PSPL, OU=OBLIX-QA, CN=ps2436/emailAddress=sagar@pspl.com
        Validity
            Not Before: Dec 15 06:39:57 2008 GMT
            Not After : Dec 15 06:39:57 2009 GMT
        Subject: C=US, ST=mahrashtra, L=pune, O=oracle, OU=oblix, CN=ps0450
        Subject Public Key Info:
            Public Key Algorithm: rsaEncryption
            RSA Public Key: (1024 bit)
                Modulus (1024 bit):
                    00:de:bf:95:19:4a:a8:97:f5:c2:07:c8:09:f7:1f:
                    45:a2:93:27:d9:56:44:48:12:75:ce:69:1c:53:de:
                    9c:bc:3f:27:a1:2c:8c:f7:50:54:a5:44:e0:46:e5:
                    1a:1d:9b:00:fb:46:28:66:c4:48:2d:c2:48:fc:d1:
                    48:6a:04:9b:7f:ad:80:ce:12:01:bc:a4:ca:ec:ca:
                    72:3b:95:62:03:41:bc:18:50:65:17:06:7a:6e:44:
                    c0:9f:a6:6f:8c:eb:f7:42:ed:0a:6c:ac:cf:6a:0e:
                    27:39:dc:61:74:cc:29:b7:f2:6a:c9:77:6b:67:1e:
                    44:8a:1a:cc:45:5b:84:da:7f
                Exponent: 65537 (0x10001)
        X509v3 extensions:
            X509v3 Authority Key Identifier: 
            keyid:DB:F8:6A:15:0A:82:53:1F:C2:EB:CC:D0:6E:83:72:57:E4:45:F2:74

            X509v3 Extended Key Usage: 
            TLS Web Server Authentication, TLS Web Client Authentication, Microsoft Server Gated Crypto, Netscape Server Gated Crypto
            X509v3 Basic Constraints: critical
            CA:FALSE
    Signature Algorithm: md5WithRSAEncryption
        4a:14:7b:f8:cd:58:60:ee:e6:d5:5f:99:9e:81:4a:98:ce:13:
        8a:3e:56:5e:2f:31:22:d8:df:db:c7:ce:b8:cd:82:eb:d5:6a:
        86:4c:5d:62:f1:a7:8b:20:68:cc:9c:27:df:ef:46:36:a9:d8:
        3e:db:ef:8a:3b:b0:30:d5:a7:19:39:57:1e:86:7c:c3:52:8c:
        57:8c:52:b2:62:1c:56:84:f7:be:86:50:f1:2f:28:ed:1c:35:
        4a:a3:e9:6a:17:72:dc:35:1b:f0:88:04:4c:05:fb:57:22:f4:
        39:8d:28:13:16:53:7b:de:b4:1d:db:4f:ca:af:c2:e9:00:84:
        3b:1c
-----BEGIN CERTIFICATE-----
MIICvTCCAiagAwIBAgIBHDANBgkqhkiG9w0BAQQFADB9MQswCQYDVQQGEwJNWTEN
MAsGA1UECBMETUFIQTENMAsGA1UEBxMEUFVORTENMAsGA1UEChMEUFNQTDERMA8G
A1UECxMIT0JMSVgtUUExDzANBgNVBAMTBnBzMjQzNjEdMBsGCSqGSIb3DQEJARYO
c2FnYXJAcHNwbC5jb20wHhcNMDgxMjE1MDYzOTU3WhcNMDkxMjE1MDYzOTU3WjBj
MQswCQYDVQQGEwJVUzETMBEGA1UECBMKbWFocmFzaHRyYTENMAsGA1UEBxMEcHVu
ZTEPMA0GA1UEChMGb3JhY2xlMQ4wDAYDVQQLEwVvYmxpeDEPMA0GA1UEAxMGcHMw
NDUwMIGfMA0GCSqGSIb3DQEBAQUAA4GNADCBiQKBgQDev5UZSqiX9cIHyAn3H0Wi
kyfZVkRIEnXOaRxT3py8PyehLIz3UFSlROBG5RodmwD7RihmxEgtwkj80UhqBJt/
rYDOEgG8pMrsynI7lWIDQbwYUGUXBnpuRMCfpm+M6/dC7QpsrM9qDic53GF0zCm3
8mrJd2tnHkSKGsxFW4TafwIDAQABo2cwZTAfBgNVHSMEGDAWgBTb+GoVCoJTH8Lr
zNBug3JX5EXydDA0BgNVHSUELTArBggrBgEFBQcDAQYIKwYBBQUHAwIGCisGAQQB
gjcKAwMGCWCGSAGG+EIEATAMBgNVHRMBAf8EAjAAMA0GCSqGSIb3DQEBBAUAA4GB
AEoUe/jNWGDu5tVfmZ6BSpjOE4o+Vl4vMSLY39vHzrjNguvVaoZMXWLxp4sgaMyc
J9/vRjap2D7b74o7sDDVpxk5Vx6GfMNSjFeMUrJiHFaE976GUPEvKO0cNUqj6WoX
ctw1G/CIBEwF+1ci9DmNKBMWU3vetB3bT8qvwukAhDsc
-----END CERTIFICATE-----
