Certificate:
    Data:
        Version: 3 (0x2)
        Serial Number: 29 (0x1d)
        Signature Algorithm: md5WithRSAEncryption
        Issuer: C=MY, ST=MAHA, L=PUNE, O=PSPL, OU=OBLIX-QA, CN=ps2436/emailAddress=sagar@pspl.com
        Validity
            Not Before: Dec 15 09:06:02 2008 GMT
            Not After : Dec 15 09:06:02 2009 GMT
        Subject: C=US, ST=maharashtra, L=pune, O=oracle, OU=oblix, CN=ps3632w2k
        Subject Public Key Info:
            Public Key Algorithm: rsaEncryption
            RSA Public Key: (1024 bit)
                Modulus (1024 bit):
                    00:c4:4f:6e:48:68:f0:a6:89:6a:06:5c:7a:9a:3f:
                    4c:27:61:47:a8:db:79:03:91:ba:6c:66:42:d9:3e:
                    22:c0:cc:db:03:51:86:6a:bb:71:fb:03:2e:9b:56:
                    98:e8:41:1c:65:96:b4:53:2c:44:1c:34:7e:ab:2a:
                    04:26:1a:06:aa:73:f9:3a:7c:ff:a3:65:54:83:98:
                    ad:b0:e8:d2:02:72:94:4a:4b:2c:be:da:f3:29:63:
                    bd:e3:0c:89:b5:85:5d:25:95:a7:42:09:a2:58:59:
                    46:79:e1:bc:24:e5:6f:21:42:0f:18:74:4b:12:6b:
                    ac:75:86:e4:39:b0:63:be:59
                Exponent: 65537 (0x10001)
        X509v3 extensions:
            X509v3 Authority Key Identifier: 
            keyid:DB:F8:6A:15:0A:82:53:1F:C2:EB:CC:D0:6E:83:72:57:E4:45:F2:74

            X509v3 Extended Key Usage: 
            TLS Web Server Authentication, TLS Web Client Authentication, Microsoft Server Gated Crypto, Netscape Server Gated Crypto
            X509v3 Basic Constraints: critical
            CA:FALSE
    Signature Algorithm: md5WithRSAEncryption
        a7:08:ce:75:26:8e:ee:0c:97:68:5d:5a:92:71:19:e6:c6:8e:
        04:0b:b4:df:3c:ac:24:8d:16:59:54:b7:aa:2d:c9:5b:80:51:
        69:0d:cc:e4:7c:0b:3a:5a:ac:13:dc:1e:86:63:c1:64:37:62:
        0b:e7:1e:cd:29:71:40:9f:50:67:db:25:9a:86:0c:89:e1:cc:
        69:3a:91:52:68:62:98:2d:24:06:b0:29:18:f5:3d:63:c1:bf:
        8a:69:43:5c:11:44:3f:21:91:7d:d6:13:4b:bd:c8:97:73:03:
        65:97:09:6d:02:ac:0e:e7:d2:10:84:b5:c5:bc:3f:2c:51:91:
        7d:0d
-----BEGIN CERTIFICATE-----
MIICwTCCAiqgAwIBAgIBHTANBgkqhkiG9w0BAQQFADB9MQswCQYDVQQGEwJNWTEN
MAsGA1UECBMETUFIQTENMAsGA1UEBxMEUFVORTENMAsGA1UEChMEUFNQTDERMA8G
A1UECxMIT0JMSVgtUUExDzANBgNVBAMTBnBzMjQzNjEdMBsGCSqGSIb3DQEJARYO
c2FnYXJAcHNwbC5jb20wHhcNMDgxMjE1MDkwNjAyWhcNMDkxMjE1MDkwNjAyWjBn
MQswCQYDVQQGEwJVUzEUMBIGA1UECBMLbWFoYXJhc2h0cmExDTALBgNVBAcTBHB1
bmUxDzANBgNVBAoTBm9yYWNsZTEOMAwGA1UECxMFb2JsaXgxEjAQBgNVBAMTCXBz
MzYzMncyazCBnzANBgkqhkiG9w0BAQEFAAOBjQAwgYkCgYEAxE9uSGjwpolqBlx6
mj9MJ2FHqNt5A5G6bGZC2T4iwMzbA1GGartx+wMum1aY6EEcZZa0UyxEHDR+qyoE
JhoGqnP5Onz/o2VUg5itsOjSAnKUSkssvtrzKWO94wyJtYVdJZWnQgmiWFlGeeG8
JOVvIUIPGHRLEmusdYbkObBjvlkCAwEAAaNnMGUwHwYDVR0jBBgwFoAU2/hqFQqC
Ux/C68zQboNyV+RF8nQwNAYDVR0lBC0wKwYIKwYBBQUHAwEGCCsGAQUFBwMCBgor
BgEEAYI3CgMDBglghkgBhvhCBAEwDAYDVR0TAQH/BAIwADANBgkqhkiG9w0BAQQF
AAOBgQCnCM51Jo7uDJdoXVqScRnmxo4EC7TfPKwkjRZZVLeqLclbgFFpDczkfAs6
WqwT3B6GY8FkN2IL5x7NKXFAn1Bn2yWahgyJ4cxpOpFSaGKYLSQGsCkY9T1jwb+K
aUNcEUQ/IZF91hNLvciXcwNllwltAqwO59IQhLXFvD8sUZF9DQ==
-----END CERTIFICATE-----
