Certificate:
    Data:
        Version: 3 (0x2)
        Serial Number: 30 (0x1e)
        Signature Algorithm: md5WithRSAEncryption
        Issuer: C=MY, ST=MAHA, L=PUNE, O=PSPL, OU=OBLIX-QA, CN=ps2436/emailAddress=sagar@pspl.com
        Validity
            Not Before: Dec 15 10:02:49 2008 GMT
            Not After : Dec 15 10:02:49 2009 GMT
        Subject: C=US, ST=Alabama, L=pune, O=psl, OU=oblix, CN=Kangra.persistent.co.in
        Subject Public Key Info:
            Public Key Algorithm: rsaEncryption
            RSA Public Key: (1024 bit)
                Modulus (1024 bit):
                    00:b9:77:92:18:62:c6:56:2b:7b:cc:1c:59:95:df:
                    df:03:2c:26:cb:8f:61:7f:0f:0f:31:7e:1a:d9:a1:
                    e8:02:a5:2f:f2:e9:0a:a4:c8:86:19:0f:a8:14:8d:
                    58:89:4c:f7:64:48:27:b7:00:6d:04:a3:63:8c:e1:
                    f1:25:5f:44:6b:fc:41:83:f0:97:44:97:31:05:37:
                    e1:70:fe:e7:51:c6:19:56:09:e1:f3:95:cc:b6:68:
                    89:f6:16:ca:28:bd:44:e9:d0:a1:c7:35:0a:65:a3:
                    e6:37:25:3c:b3:3f:71:13:60:af:1a:9c:45:f9:02:
                    4d:37:6e:d4:98:5e:13:56:b1
                Exponent: 65537 (0x10001)
        X509v3 extensions:
            X509v3 Authority Key Identifier: 
            keyid:DB:F8:6A:15:0A:82:53:1F:C2:EB:CC:D0:6E:83:72:57:E4:45:F2:74

            X509v3 Extended Key Usage: 
            TLS Web Server Authentication, TLS Web Client Authentication, Microsoft Server Gated Crypto, Netscape Server Gated Crypto
            X509v3 Basic Constraints: critical
            CA:FALSE
    Signature Algorithm: md5WithRSAEncryption
        40:d0:58:1f:8d:53:c9:eb:99:ce:55:66:58:2a:54:4a:91:05:
        80:d7:6e:7d:e3:06:a3:f9:38:74:a1:06:ad:c4:50:d7:fd:b9:
        bd:34:7e:4e:08:5c:b4:24:be:7d:06:62:8c:07:e9:5e:d8:47:
        fb:7b:28:25:eb:f1:85:35:39:8c:5e:c5:0e:e9:09:90:9f:2f:
        ed:d5:a8:94:dd:16:2a:85:12:d1:1b:4d:70:17:3f:d0:84:ea:
        44:7c:4c:b6:4d:c0:14:6d:ac:ab:e2:71:ee:56:d5:c5:05:b4:
        9d:2c:3c:af:c9:c7:4b:67:0e:0c:c9:5c:f3:5d:e6:5d:be:8d:
        1e:d8
-----BEGIN CERTIFICATE-----
MIICyDCCAjGgAwIBAgIBHjANBgkqhkiG9w0BAQQFADB9MQswCQYDVQQGEwJNWTEN
MAsGA1UECBMETUFIQTENMAsGA1UEBxMEUFVORTENMAsGA1UEChMEUFNQTDERMA8G
A1UECxMIT0JMSVgtUUExDzANBgNVBAMTBnBzMjQzNjEdMBsGCSqGSIb3DQEJARYO
c2FnYXJAcHNwbC5jb20wHhcNMDgxMjE1MTAwMjQ5WhcNMDkxMjE1MTAwMjQ5WjBu
MQswCQYDVQQGEwJVUzEQMA4GA1UECBMHQWxhYmFtYTENMAsGA1UEBxMEcHVuZTEM
MAoGA1UEChMDcHNsMQ4wDAYDVQQLEwVvYmxpeDEgMB4GA1UEAxMXS2FuZ3JhLnBl
cnNpc3RlbnQuY28uaW4wgZ8wDQYJKoZIhvcNAQEBBQADgY0AMIGJAoGBALl3khhi
xlYre8wcWZXf3wMsJsuPYX8PDzF+Gtmh6AKlL/LpCqTIhhkPqBSNWIlM92RIJ7cA
bQSjY4zh8SVfRGv8QYPwl0SXMQU34XD+51HGGVYJ4fOVzLZoifYWyii9ROnQocc1
CmWj5jclPLM/cRNgrxqcRfkCTTdu1JheE1axAgMBAAGjZzBlMB8GA1UdIwQYMBaA
FNv4ahUKglMfwuvM0G6DclfkRfJ0MDQGA1UdJQQtMCsGCCsGAQUFBwMBBggrBgEF
BQcDAgYKKwYBBAGCNwoDAwYJYIZIAYb4QgQBMAwGA1UdEwEB/wQCMAAwDQYJKoZI
hvcNAQEEBQADgYEAQNBYH41TyeuZzlVmWCpUSpEFgNdufeMGo/k4dKEGrcRQ1/25
vTR+TghctCS+fQZijAfpXthH+3soJevxhTU5jF7FDukJkJ8v7dWolN0WKoUS0RtN
cBc/0ITqRHxMtk3AFG2sq+Jx7lbVxQW0nSw8r8nHS2cODMlc813mXb6NHtg=
-----END CERTIFICATE-----
