Certificate:
    Data:
        Version: 3 (0x2)
        Serial Number: 31 (0x1f)
        Signature Algorithm: md5WithRSAEncryption
        Issuer: C=MY, ST=MAHA, L=PUNE, O=PSPL, OU=OBLIX-QA, CN=ps2436/emailAddress=sagar@pspl.com
        Validity
            Not Before: Dec 15 10:26:38 2008 GMT
            Not After : Dec 15 10:26:38 2009 GMT
        Subject: C=US, ST=Alabama, L=pune, O=psl, OU=oblix, CN=ps0904.persistent.co.in
        Subject Public Key Info:
            Public Key Algorithm: rsaEncryption
            RSA Public Key: (1024 bit)
                Modulus (1024 bit):
                    00:d4:90:86:70:fe:3d:15:68:63:42:71:b4:e5:c8:
                    70:5c:2c:87:75:f2:e0:88:51:70:2e:42:99:59:97:
                    fd:7a:1d:1f:45:6a:df:bc:47:44:43:97:46:76:d6:
                    d0:6a:ee:b2:72:fa:fc:ba:d9:dd:77:b5:2e:e0:e6:
                    51:a7:d2:6f:46:ca:1f:6b:51:45:c7:1d:32:eb:26:
                    82:8b:03:ff:d0:e2:fc:97:58:ea:d4:14:83:0b:2b:
                    e6:ca:b9:b3:5e:8d:e2:bc:1f:a6:57:18:ae:12:46:
                    04:f2:a1:78:c7:5c:0c:3b:d8:24:8e:aa:4b:6f:4d:
                    a1:48:63:7e:ce:f6:50:78:49
                Exponent: 65537 (0x10001)
        X509v3 extensions:
            X509v3 Authority Key Identifier: 
            keyid:DB:F8:6A:15:0A:82:53:1F:C2:EB:CC:D0:6E:83:72:57:E4:45:F2:74

            X509v3 Extended Key Usage: 
            TLS Web Server Authentication, TLS Web Client Authentication, Microsoft Server Gated Crypto, Netscape Server Gated Crypto
            X509v3 Basic Constraints: critical
            CA:FALSE
    Signature Algorithm: md5WithRSAEncryption
        57:11:1d:dd:36:68:5b:33:47:37:1a:76:5a:38:02:14:52:ca:
        bd:f0:b4:79:69:92:23:69:4c:f6:d3:6b:d9:0a:1a:de:6d:7f:
        ab:d3:21:0d:dd:9a:7b:29:ce:94:9e:bf:60:4e:4c:c9:94:4d:
        40:df:2b:82:27:91:f8:2d:59:9c:c6:b9:43:b7:e5:38:6b:c5:
        06:bc:c1:a8:15:74:b0:b7:31:3d:72:af:d1:ae:6f:d1:02:3e:
        87:91:bc:13:d7:2a:5f:6b:42:3f:a3:90:34:f9:05:9e:1f:db:
        85:e1:5d:c4:30:9f:db:a2:ea:91:58:0e:22:d4:4e:16:86:4c:
        d4:f2
-----BEGIN CERTIFICATE-----
MIICyDCCAjGgAwIBAgIBHzANBgkqhkiG9w0BAQQFADB9MQswCQYDVQQGEwJNWTEN
MAsGA1UECBMETUFIQTENMAsGA1UEBxMEUFVORTENMAsGA1UEChMEUFNQTDERMA8G
A1UECxMIT0JMSVgtUUExDzANBgNVBAMTBnBzMjQzNjEdMBsGCSqGSIb3DQEJARYO
c2FnYXJAcHNwbC5jb20wHhcNMDgxMjE1MTAyNjM4WhcNMDkxMjE1MTAyNjM4WjBu
MQswCQYDVQQGEwJVUzEQMA4GA1UECBMHQWxhYmFtYTENMAsGA1UEBxMEcHVuZTEM
MAoGA1UEChMDcHNsMQ4wDAYDVQQLEwVvYmxpeDEgMB4GA1UEAxMXcHMwOTA0LnBl
cnNpc3RlbnQuY28uaW4wgZ8wDQYJKoZIhvcNAQEBBQADgY0AMIGJAoGBANSQhnD+
PRVoY0JxtOXIcFwsh3Xy4IhRcC5CmVmX/XodH0Vq37xHREOXRnbW0GrusnL6/LrZ
3Xe1LuDmUafSb0bKH2tRRccdMusmgosD/9Di/JdY6tQUgwsr5sq5s16N4rwfplcY
rhJGBPKheMdcDDvYJI6qS29NoUhjfs72UHhJAgMBAAGjZzBlMB8GA1UdIwQYMBaA
FNv4ahUKglMfwuvM0G6DclfkRfJ0MDQGA1UdJQQtMCsGCCsGAQUFBwMBBggrBgEF
BQcDAgYKKwYBBAGCNwoDAwYJYIZIAYb4QgQBMAwGA1UdEwEB/wQCMAAwDQYJKoZI
hvcNAQEEBQADgYEAVxEd3TZoWzNHNxp2WjgCFFLKvfC0eWmSI2lM9tNr2Qoa3m1/
q9MhDd2aeynOlJ6/YE5MyZRNQN8rgieR+C1ZnMa5Q7flOGvFBrzBqBV0sLcxPXKv
0a5v0QI+h5G8E9cqX2tCP6OQNPkFnh/bheFdxDCf26LqkVgOItROFoZM1PI=
-----END CERTIFICATE-----
