Certificate:
    Data:
        Version: 3 (0x2)
        Serial Number: 32 (0x20)
        Signature Algorithm: md5WithRSAEncryption
        Issuer: C=MY, ST=MAHA, L=PUNE, O=PSPL, OU=OBLIX-QA, CN=ps2436/emailAddress=sagar@pspl.com
        Validity
            Not Before: Dec 15 13:00:57 2008 GMT
            Not After : Dec 15 13:00:57 2009 GMT
        Subject: C=US, ST=maharashtra, L=pune, O=psl, OU=oblix, CN=v-ps4572-v1
        Subject Public Key Info:
            Public Key Algorithm: rsaEncryption
            RSA Public Key: (1024 bit)
                Modulus (1024 bit):
                    00:b9:83:58:b6:fe:c7:b7:c4:06:a6:45:07:27:a0:
                    82:71:d9:1f:34:71:65:64:69:2d:5d:b3:50:31:6b:
                    a8:f0:96:ac:24:be:2d:55:8c:c3:98:3a:36:01:0a:
                    f5:47:28:30:69:c5:da:3e:46:cc:2c:b8:76:a1:32:
                    41:6c:b0:75:a8:34:7a:96:fc:5f:64:d3:93:ab:77:
                    09:11:06:6d:79:51:1f:31:5c:d2:03:fc:08:73:d2:
                    28:0e:ac:21:e1:6a:3a:49:ff:f6:3f:1d:7a:59:5e:
                    c5:d6:64:e4:66:71:69:26:43:3b:be:db:01:ad:9d:
                    de:af:75:19:1c:8b:da:5e:73
                Exponent: 65537 (0x10001)
        X509v3 extensions:
            X509v3 Authority Key Identifier: 
            keyid:DB:F8:6A:15:0A:82:53:1F:C2:EB:CC:D0:6E:83:72:57:E4:45:F2:74

            X509v3 Extended Key Usage: 
            TLS Web Server Authentication, TLS Web Client Authentication, Microsoft Server Gated Crypto, Netscape Server Gated Crypto
            X509v3 Basic Constraints: critical
            CA:FALSE
    Signature Algorithm: md5WithRSAEncryption
        6d:f9:7f:70:56:8e:b2:9f:90:70:ec:d7:c0:5d:dc:bc:a1:f9:
        49:26:16:14:b3:16:75:31:73:fe:e4:6a:04:8a:b0:b5:cb:96:
        58:ae:a8:79:ea:46:c0:41:5b:87:b3:74:c8:f3:76:94:88:fc:
        3a:76:2c:19:04:d7:ab:96:10:d2:b1:b0:42:b8:27:52:f4:0b:
        4c:1c:63:7e:bc:a3:9e:af:cc:ec:1d:2b:01:cc:99:d2:4e:35:
        a8:8f:78:a2:c9:12:29:d1:68:00:9b:41:d1:24:31:17:8d:3c:
        18:67:cd:78:fc:6b:b7:9e:eb:61:31:db:8c:7d:db:f5:04:01:
        19:75
-----BEGIN CERTIFICATE-----
MIICwDCCAimgAwIBAgIBIDANBgkqhkiG9w0BAQQFADB9MQswCQYDVQQGEwJNWTEN
MAsGA1UECBMETUFIQTENMAsGA1UEBxMEUFVORTENMAsGA1UEChMEUFNQTDERMA8G
A1UECxMIT0JMSVgtUUExDzANBgNVBAMTBnBzMjQzNjEdMBsGCSqGSIb3DQEJARYO
c2FnYXJAcHNwbC5jb20wHhcNMDgxMjE1MTMwMDU3WhcNMDkxMjE1MTMwMDU3WjBm
MQswCQYDVQQGEwJVUzEUMBIGA1UECBMLbWFoYXJhc2h0cmExDTALBgNVBAcTBHB1
bmUxDDAKBgNVBAoTA3BzbDEOMAwGA1UECxMFb2JsaXgxFDASBgNVBAMTC3YtcHM0
NTcyLXYxMIGfMA0GCSqGSIb3DQEBAQUAA4GNADCBiQKBgQC5g1i2/se3xAamRQcn
oIJx2R80cWVkaS1ds1Axa6jwlqwkvi1VjMOYOjYBCvVHKDBpxdo+RswsuHahMkFs
sHWoNHqW/F9k05OrdwkRBm15UR8xXNID/Ahz0igOrCHhajpJ//Y/HXpZXsXWZORm
cWkmQzu+2wGtnd6vdRkci9pecwIDAQABo2cwZTAfBgNVHSMEGDAWgBTb+GoVCoJT
H8LrzNBug3JX5EXydDA0BgNVHSUELTArBggrBgEFBQcDAQYIKwYBBQUHAwIGCisG
AQQBgjcKAwMGCWCGSAGG+EIEATAMBgNVHRMBAf8EAjAAMA0GCSqGSIb3DQEBBAUA
A4GBAG35f3BWjrKfkHDs18Bd3Lyh+UkmFhSzFnUxc/7kagSKsLXLlliuqHnqRsBB
W4ezdMjzdpSI/Dp2LBkE16uWENKxsEK4J1L0C0wcY368o56vzOwdKwHMmdJONaiP
eKLJEinRaACbQdEkMReNPBhnzXj8a7ee62Ex24x92/UEARl1
-----END CERTIFICATE-----
