Certificate:
    Data:
        Version: 3 (0x2)
        Serial Number: 34 (0x22)
        Signature Algorithm: md5WithRSAEncryption
        Issuer: C=MY, ST=MAHA, L=PUNE, O=PSPL, OU=OBLIX-QA, CN=ps2436/emailAddress=sagar@pspl.com
        Validity
            Not Before: Dec 17 07:48:16 2008 GMT
            Not After : Dec 17 07:48:16 2009 GMT
        Subject: C=IN, ST=Maharashtra, L=Pune, O=PSL, OU=Oblix, CN=ps2633.persistent.co.in
        Subject Public Key Info:
            Public Key Algorithm: rsaEncryption
            RSA Public Key: (1024 bit)
                Modulus (1024 bit):
                    00:a8:db:c5:a1:f0:48:84:78:19:62:99:ad:2d:ef:
                    67:1e:a2:3d:3d:03:4f:68:10:bd:fa:6e:c4:bd:d1:
                    31:0a:43:27:d6:9c:58:f6:99:60:5e:08:1b:a1:35:
                    e5:96:0d:42:8d:e5:07:2d:db:68:c4:72:a6:1f:eb:
                    41:cd:2f:97:63:c1:3b:be:83:12:41:d5:b2:e2:5d:
                    ca:fa:c5:2b:8a:c1:6b:0f:e5:ad:db:e5:c7:f5:28:
                    ee:6d:7a:d8:d3:3b:86:53:c2:bb:9e:c6:9f:fb:cc:
                    69:6d:7e:9c:b9:d5:77:37:19:38:e4:77:d9:4a:3d:
                    b7:bc:88:ed:10:a2:73:9d:61
                Exponent: 65537 (0x10001)
        X509v3 extensions:
            X509v3 Authority Key Identifier: 
            keyid:DB:F8:6A:15:0A:82:53:1F:C2:EB:CC:D0:6E:83:72:57:E4:45:F2:74

            X509v3 Extended Key Usage: 
            TLS Web Server Authentication, TLS Web Client Authentication, Microsoft Server Gated Crypto, Netscape Server Gated Crypto
            X509v3 Basic Constraints: critical
            CA:FALSE
    Signature Algorithm: md5WithRSAEncryption
        46:1a:29:87:2f:81:42:b0:ed:db:c3:f3:70:9c:ed:45:02:89:
        d8:9c:16:fb:04:b7:ff:ce:e3:20:b0:7f:71:a1:ec:f3:25:e8:
        14:e3:b7:a1:ef:29:45:13:c6:59:38:2e:82:44:85:19:0e:15:
        01:2e:de:8f:59:8a:7c:a6:aa:dc:bb:9c:aa:92:b3:b1:a3:24:
        05:60:0d:de:ac:2f:b8:a7:05:f7:42:c3:e8:93:22:30:32:c7:
        59:c1:8d:3b:ae:89:af:77:f5:78:12:74:00:5d:d5:04:ca:c4:
        dc:5f:1a:06:ed:ce:26:f1:4a:b8:d2:0e:70:eb:50:f6:b3:33:
        c1:4e
-----BEGIN CERTIFICATE-----
MIICzDCCAjWgAwIBAgIBIjANBgkqhkiG9w0BAQQFADB9MQswCQYDVQQGEwJNWTEN
MAsGA1UECBMETUFIQTENMAsGA1UEBxMEUFVORTENMAsGA1UEChMEUFNQTDERMA8G
A1UECxMIT0JMSVgtUUExDzANBgNVBAMTBnBzMjQzNjEdMBsGCSqGSIb3DQEJARYO
c2FnYXJAcHNwbC5jb20wHhcNMDgxMjE3MDc0ODE2WhcNMDkxMjE3MDc0ODE2WjBy
MQswCQYDVQQGEwJJTjEUMBIGA1UECBMLTWFoYXJhc2h0cmExDTALBgNVBAcTBFB1
bmUxDDAKBgNVBAoTA1BTTDEOMAwGA1UECxMFT2JsaXgxIDAeBgNVBAMTF3BzMjYz
My5wZXJzaXN0ZW50LmNvLmluMIGfMA0GCSqGSIb3DQEBAQUAA4GNADCBiQKBgQCo
28Wh8EiEeBlima0t72ceoj09A09oEL36bsS90TEKQyfWnFj2mWBeCBuhNeWWDUKN
5Qct22jEcqYf60HNL5djwTu+gxJB1bLiXcr6xSuKwWsP5a3b5cf1KO5tetjTO4ZT
wruexp/7zGltfpy51Xc3GTjkd9lKPbe8iO0QonOdYQIDAQABo2cwZTAfBgNVHSME
GDAWgBTb+GoVCoJTH8LrzNBug3JX5EXydDA0BgNVHSUELTArBggrBgEFBQcDAQYI
KwYBBQUHAwIGCisGAQQBgjcKAwMGCWCGSAGG+EIEATAMBgNVHRMBAf8EAjAAMA0G
CSqGSIb3DQEBBAUAA4GBAEYaKYcvgUKw7dvD83Cc7UUCidicFvsEt//O4yCwf3Gh
7PMl6BTjt6HvKUUTxlk4LoJEhRkOFQEu3o9Zinymqty7nKqSs7GjJAVgDd6sL7in
BfdCw+iTIjAyx1nBjTuuia939XgSdABd1QTKxNxfGgbtzibxSrjSDnDrUPazM8FO
-----END CERTIFICATE-----
