Certificate:
    Data:
        Version: 3 (0x2)
        Serial Number: 36 (0x24)
        Signature Algorithm: md5WithRSAEncryption
        Issuer: C=MY, ST=MAHA, L=PUNE, O=PSPL, OU=OBLIX-QA, CN=ps2436/emailAddress=sagar@pspl.com
        Validity
            Not Before: Dec 17 10:09:32 2008 GMT
            Not After : Dec 17 10:09:32 2009 GMT
        Subject: C=US, ST=Alabama, L=poona, O=psl, OU=oblix, CN=ps3373.persistent.co.in
        Subject Public Key Info:
            Public Key Algorithm: rsaEncryption
            RSA Public Key: (1024 bit)
                Modulus (1024 bit):
                    00:93:bd:06:01:ae:66:53:1b:d9:d1:56:da:2b:1b:
                    b2:b8:41:5e:14:84:03:46:2f:bb:fb:70:26:28:d9:
                    f0:69:cf:f2:82:2d:7c:9f:c8:ab:25:86:36:e5:b7:
                    e7:e8:c7:ea:9b:9b:d3:2e:bc:c0:b8:c0:dc:fb:22:
                    25:d8:8a:0b:91:4c:aa:c1:3b:cd:cf:5e:80:e2:1d:
                    fd:7a:58:8b:93:a5:05:d0:10:2c:35:38:46:82:3a:
                    e0:74:94:9b:71:c5:e5:e9:7f:71:8c:9f:cd:62:c4:
                    54:f9:6c:a4:74:ec:36:12:45:02:70:91:4a:fa:ba:
                    9b:38:15:d4:ff:5b:d9:30:81
                Exponent: 65537 (0x10001)
        X509v3 extensions:
            X509v3 Authority Key Identifier: 
            keyid:DB:F8:6A:15:0A:82:53:1F:C2:EB:CC:D0:6E:83:72:57:E4:45:F2:74

            X509v3 Extended Key Usage: 
            TLS Web Server Authentication, TLS Web Client Authentication, Microsoft Server Gated Crypto, Netscape Server Gated Crypto
            X509v3 Basic Constraints: critical
            CA:FALSE
    Signature Algorithm: md5WithRSAEncryption
        11:77:ef:19:de:1a:00:d8:2a:68:bf:d5:a1:af:99:97:98:fa:
        10:d3:22:4a:89:4a:6b:fe:a3:1b:47:74:18:9f:40:75:58:85:
        94:20:1e:8f:3e:39:7e:9d:a3:6c:c9:79:dd:7b:bf:71:30:7d:
        e7:63:36:f7:8b:cf:46:51:c1:56:8d:88:df:f6:f4:cb:ed:ba:
        5c:be:09:37:e2:dc:e2:30:00:06:8d:86:98:a3:4e:fb:e7:89:
        ca:37:b8:76:a3:70:13:04:c1:d7:ca:8e:04:57:2e:96:c7:46:
        c4:c9:0e:39:d4:dd:6d:6a:ed:a9:9a:c7:ce:e1:57:db:94:7c:
        9b:1a
-----BEGIN CERTIFICATE-----
MIICyTCCAjKgAwIBAgIBJDANBgkqhkiG9w0BAQQFADB9MQswCQYDVQQGEwJNWTEN
MAsGA1UECBMETUFIQTENMAsGA1UEBxMEUFVORTENMAsGA1UEChMEUFNQTDERMA8G
A1UECxMIT0JMSVgtUUExDzANBgNVBAMTBnBzMjQzNjEdMBsGCSqGSIb3DQEJARYO
c2FnYXJAcHNwbC5jb20wHhcNMDgxMjE3MTAwOTMyWhcNMDkxMjE3MTAwOTMyWjBv
MQswCQYDVQQGEwJVUzEQMA4GA1UECBMHQWxhYmFtYTEOMAwGA1UEBxMFcG9vbmEx
DDAKBgNVBAoTA3BzbDEOMAwGA1UECxMFb2JsaXgxIDAeBgNVBAMTF3BzMzM3My5w
ZXJzaXN0ZW50LmNvLmluMIGfMA0GCSqGSIb3DQEBAQUAA4GNADCBiQKBgQCTvQYB
rmZTG9nRVtorG7K4QV4UhANGL7v7cCYo2fBpz/KCLXyfyKslhjblt+fox+qbm9Mu
vMC4wNz7IiXYiguRTKrBO83PXoDiHf16WIuTpQXQECw1OEaCOuB0lJtxxeXpf3GM
n81ixFT5bKR07DYSRQJwkUr6ups4FdT/W9kwgQIDAQABo2cwZTAfBgNVHSMEGDAW
gBTb+GoVCoJTH8LrzNBug3JX5EXydDA0BgNVHSUELTArBggrBgEFBQcDAQYIKwYB
BQUHAwIGCisGAQQBgjcKAwMGCWCGSAGG+EIEATAMBgNVHRMBAf8EAjAAMA0GCSqG
SIb3DQEBBAUAA4GBABF37xneGgDYKmi/1aGvmZeY+hDTIkqJSmv+oxtHdBifQHVY
hZQgHo8+OX6do2zJed17v3EwfedjNveLz0ZRwVaNiN/29Mvtuly+CTfi3OIwAAaN
hpijTvvnico3uHajcBMEwdfKjgRXLpbHRsTJDjnU3W1q7amax87hV9uUfJsa
-----END CERTIFICATE-----
