Certificate:
    Data:
        Version: 3 (0x2)
        Serial Number: 37 (0x25)
        Signature Algorithm: md5WithRSAEncryption
        Issuer: C=MY, ST=MAHA, L=PUNE, O=PSPL, OU=OBLIX-QA, CN=ps2436/emailAddress=sagar@pspl.com
        Validity
            Not Before: Dec 17 10:13:38 2008 GMT
            Not After : Dec 17 10:13:38 2009 GMT
        Subject: C=US, ST=Alabama, L=pune, O=Oracle, OU=Oblix, CN=ps3373.persistent.co.in
        Subject Public Key Info:
            Public Key Algorithm: rsaEncryption
            RSA Public Key: (1024 bit)
                Modulus (1024 bit):
                    00:ce:44:5e:27:1c:18:d5:ca:d4:3d:b8:86:f7:88:
                    3b:a0:be:23:78:18:86:5a:60:6b:9f:49:57:90:21:
                    e6:0f:a0:17:e3:2d:11:cc:0a:04:67:14:0b:15:31:
                    76:27:c8:ae:61:62:f5:89:aa:f2:3a:d3:a0:af:72:
                    93:ff:c3:ba:29:2f:b7:2c:40:2f:62:5e:86:08:d8:
                    14:11:d2:6f:ab:45:c1:b9:bf:98:62:6b:19:37:0e:
                    f6:e1:87:42:d5:3e:71:72:b8:ea:4c:fa:a5:f6:35:
                    09:b7:ad:f4:02:6b:db:1d:9e:60:7e:31:53:d5:a2:
                    c2:03:39:7d:5b:61:56:d6:0b
                Exponent: 65537 (0x10001)
        X509v3 extensions:
            X509v3 Authority Key Identifier: 
            keyid:DB:F8:6A:15:0A:82:53:1F:C2:EB:CC:D0:6E:83:72:57:E4:45:F2:74

            X509v3 Extended Key Usage: 
            TLS Web Server Authentication, TLS Web Client Authentication, Microsoft Server Gated Crypto, Netscape Server Gated Crypto
            X509v3 Basic Constraints: critical
            CA:FALSE
    Signature Algorithm: md5WithRSAEncryption
        7e:79:2a:c1:b5:01:03:67:a7:55:a4:bf:c9:ad:db:da:5b:14:
        b9:32:79:a3:4f:a5:ac:df:02:98:a2:4a:9d:e0:1e:9d:a8:17:
        0c:f3:88:27:81:7b:86:15:87:80:7a:44:d0:76:b0:be:78:48:
        4b:71:11:bf:03:cc:a0:a6:0a:56:f2:64:52:d2:ab:4d:13:a6:
        e2:4b:d1:90:a4:2f:1a:1f:2c:58:27:16:cb:03:65:aa:e9:8d:
        8c:e6:88:ae:01:c6:93:fc:14:a9:03:4e:82:ba:c2:96:53:3f:
        c1:9f:b2:71:31:2a:c0:91:c2:e6:c9:8f:18:e5:f4:3f:c3:80:
        cc:19
-----BEGIN CERTIFICATE-----
MIICyzCCAjSgAwIBAgIBJTANBgkqhkiG9w0BAQQFADB9MQswCQYDVQQGEwJNWTEN
MAsGA1UECBMETUFIQTENMAsGA1UEBxMEUFVORTENMAsGA1UEChMEUFNQTDERMA8G
A1UECxMIT0JMSVgtUUExDzANBgNVBAMTBnBzMjQzNjEdMBsGCSqGSIb3DQEJARYO
c2FnYXJAcHNwbC5jb20wHhcNMDgxMjE3MTAxMzM4WhcNMDkxMjE3MTAxMzM4WjBx
MQswCQYDVQQGEwJVUzEQMA4GA1UECBMHQWxhYmFtYTENMAsGA1UEBxMEcHVuZTEP
MA0GA1UEChMGT3JhY2xlMQ4wDAYDVQQLEwVPYmxpeDEgMB4GA1UEAxMXcHMzMzcz
LnBlcnNpc3RlbnQuY28uaW4wgZ8wDQYJKoZIhvcNAQEBBQADgY0AMIGJAoGBAM5E
XiccGNXK1D24hveIO6C+I3gYhlpga59JV5Ah5g+gF+MtEcwKBGcUCxUxdifIrmFi
9Ymq8jrToK9yk//DuikvtyxAL2JehgjYFBHSb6tFwbm/mGJrGTcO9uGHQtU+cXK4
6kz6pfY1Cbet9AJr2x2eYH4xU9WiwgM5fVthVtYLAgMBAAGjZzBlMB8GA1UdIwQY
MBaAFNv4ahUKglMfwuvM0G6DclfkRfJ0MDQGA1UdJQQtMCsGCCsGAQUFBwMBBggr
BgEFBQcDAgYKKwYBBAGCNwoDAwYJYIZIAYb4QgQBMAwGA1UdEwEB/wQCMAAwDQYJ
KoZIhvcNAQEEBQADgYEAfnkqwbUBA2enVaS/ya3b2lsUuTJ5o0+lrN8CmKJKneAe
nagXDPOIJ4F7hhWHgHpE0HawvnhIS3ERvwPMoKYKVvJkUtKrTROm4kvRkKQvGh8s
WCcWywNlqumNjOaIrgHGk/wUqQNOgrrCllM/wZ+ycTEqwJHC5smPGOX0P8OAzBk=
-----END CERTIFICATE-----
