Certificate:
    Data:
        Version: 3 (0x2)
        Serial Number: 41 (0x29)
        Signature Algorithm: md5WithRSAEncryption
        Issuer: C=MY, ST=MAHA, L=PUNE, O=PSPL, OU=OBLIX-QA, CN=ps2436/emailAddress=sagar@pspl.com
        Validity
            Not Before: Dec 19 13:10:59 2008 GMT
            Not After : Dec 19 13:10:59 2009 GMT
        Subject: C=IN, ST=MH, L=Pune, O=PSL, OU=Oblix, CN=v-ps4572-v3.persistent.co.in
        Subject Public Key Info:
            Public Key Algorithm: rsaEncryption
            RSA Public Key: (1024 bit)
                Modulus (1024 bit):
                    00:c3:10:03:16:e9:e4:91:bc:28:46:45:18:30:2e:
                    98:a4:25:77:14:80:b0:10:70:3c:64:fc:61:31:38:
                    af:b3:0f:88:78:0b:c6:49:78:ca:cc:e0:4f:86:99:
                    41:fe:11:f6:a5:0b:89:a7:4b:dc:6a:5b:26:33:88:
                    0c:81:a1:9d:e4:d0:6b:54:e8:85:17:ad:ad:ef:d7:
                    bf:08:21:11:c6:a1:21:53:ae:70:5e:cb:87:4d:f7:
                    13:31:26:24:a9:01:8a:bd:1d:a3:cd:4f:ee:38:08:
                    e8:6f:a3:17:34:fe:97:39:3b:84:d4:3e:6e:87:92:
                    35:1f:e1:b7:cf:63:b2:e3:19
                Exponent: 65537 (0x10001)
        X509v3 extensions:
            X509v3 Authority Key Identifier: 
            keyid:DB:F8:6A:15:0A:82:53:1F:C2:EB:CC:D0:6E:83:72:57:E4:45:F2:74

            X509v3 Extended Key Usage: 
            TLS Web Server Authentication, TLS Web Client Authentication, Microsoft Server Gated Crypto, Netscape Server Gated Crypto
            X509v3 Basic Constraints: critical
            CA:FALSE
    Signature Algorithm: md5WithRSAEncryption
        56:5c:43:b6:09:bd:b6:87:c3:f1:55:11:b5:51:ee:73:b0:0a:
        c2:ab:03:53:6d:3d:76:ae:36:1d:84:50:f6:c5:eb:6a:8d:c0:
        ab:4d:e7:40:d2:ce:65:6e:60:ef:4d:ca:83:b4:f0:1f:db:6d:
        4e:2f:82:06:d8:4a:4a:a0:eb:77:3d:ed:e1:0c:b2:9c:d7:ef:
        22:5f:9c:0f:3f:76:fc:89:8b:c0:3b:50:1c:10:f6:27:98:42:
        8a:72:1c:01:12:fb:24:24:32:eb:6f:bc:70:49:a0:44:df:b2:
        75:71:09:89:6c:1f:af:cc:f6:d8:65:af:3e:98:03:73:d0:b5:
        3f:94
-----BEGIN CERTIFICATE-----
MIICyDCCAjGgAwIBAgIBKTANBgkqhkiG9w0BAQQFADB9MQswCQYDVQQGEwJNWTEN
MAsGA1UECBMETUFIQTENMAsGA1UEBxMEUFVORTENMAsGA1UEChMEUFNQTDERMA8G
A1UECxMIT0JMSVgtUUExDzANBgNVBAMTBnBzMjQzNjEdMBsGCSqGSIb3DQEJARYO
c2FnYXJAcHNwbC5jb20wHhcNMDgxMjE5MTMxMDU5WhcNMDkxMjE5MTMxMDU5WjBu
MQswCQYDVQQGEwJJTjELMAkGA1UECBMCTUgxDTALBgNVBAcTBFB1bmUxDDAKBgNV
BAoTA1BTTDEOMAwGA1UECxMFT2JsaXgxJTAjBgNVBAMTHHYtcHM0NTcyLXYzLnBl
cnNpc3RlbnQuY28uaW4wgZ8wDQYJKoZIhvcNAQEBBQADgY0AMIGJAoGBAMMQAxbp
5JG8KEZFGDAumKQldxSAsBBwPGT8YTE4r7MPiHgLxkl4yszgT4aZQf4R9qULiadL
3GpbJjOIDIGhneTQa1TohRetre/XvwghEcahIVOucF7Lh033EzEmJKkBir0do81P
7jgI6G+jFzT+lzk7hNQ+boeSNR/ht89jsuMZAgMBAAGjZzBlMB8GA1UdIwQYMBaA
FNv4ahUKglMfwuvM0G6DclfkRfJ0MDQGA1UdJQQtMCsGCCsGAQUFBwMBBggrBgEF
BQcDAgYKKwYBBAGCNwoDAwYJYIZIAYb4QgQBMAwGA1UdEwEB/wQCMAAwDQYJKoZI
hvcNAQEEBQADgYEAVlxDtgm9tofD8VURtVHuc7AKwqsDU209dq42HYRQ9sXrao3A
q03nQNLOZW5g703Kg7TwH9ttTi+CBthKSqDrdz3t4QyynNfvIl+cDz92/ImLwDtQ
HBD2J5hCinIcARL7JCQy62+8cEmgRN+ydXEJiWwfr8z22GWvPpgDc9C1P5Q=
-----END CERTIFICATE-----
