Certificate:
    Data:
        Version: 3 (0x2)
        Serial Number: 43 (0x2b)
        Signature Algorithm: md5WithRSAEncryption
        Issuer: C=MY, ST=MAHA, L=PUNE, O=PSPL, OU=OBLIX-QA, CN=ps2436/emailAddress=sagar@pspl.com
        Validity
            Not Before: Dec 22 12:05:29 2008 GMT
            Not After : Dec 22 12:05:29 2009 GMT
        Subject: C=IN, ST=Mah, L=Pune, O=psl, OU=oblixqa, CN=pahalgam.persistent.co.in
        Subject Public Key Info:
            Public Key Algorithm: rsaEncryption
            RSA Public Key: (1024 bit)
                Modulus (1024 bit):
                    00:c0:af:10:32:99:13:95:4d:e8:70:ba:91:60:9f:
                    b7:57:76:18:21:6a:a2:1a:fb:64:98:39:9a:ec:ff:
                    48:a3:2b:95:b7:7f:fe:dd:b6:c7:45:e8:2f:36:94:
                    1f:e0:a9:ae:93:fd:9e:1f:8b:98:80:9b:9d:64:8f:
                    d8:f6:98:b1:65:6d:7f:5e:f6:f2:16:f5:31:03:fe:
                    c3:03:dd:99:e2:b5:42:dc:b5:9e:20:66:bf:fc:bc:
                    aa:2f:b7:f5:f8:1b:a7:a0:6a:b6:21:33:57:53:e9:
                    84:70:a9:93:c5:cc:73:4e:d5:ed:96:49:ca:e2:0a:
                    60:59:11:41:1e:27:f0:4b:31
                Exponent: 65537 (0x10001)
        X509v3 extensions:
            X509v3 Authority Key Identifier: 
            keyid:DB:F8:6A:15:0A:82:53:1F:C2:EB:CC:D0:6E:83:72:57:E4:45:F2:74

            X509v3 Extended Key Usage: 
            TLS Web Server Authentication, TLS Web Client Authentication, Microsoft Server Gated Crypto, Netscape Server Gated Crypto
            X509v3 Basic Constraints: critical
            CA:FALSE
    Signature Algorithm: md5WithRSAEncryption
        4d:7d:e3:82:cc:9b:1a:d6:2f:9d:78:ee:c2:d0:93:76:e2:20:
        60:e9:a8:09:eb:d7:1d:3f:85:6d:4c:82:71:21:ee:3c:72:b8:
        49:b5:a0:6c:42:f4:39:0d:01:b8:a0:9f:f8:fd:bf:66:39:37:
        af:20:a6:19:dd:2a:cd:50:b6:fd:82:ed:f3:97:ae:43:8e:d0:
        89:e3:79:b9:57:ad:a6:14:8a:30:0c:e0:30:cd:b1:1f:25:24:
        86:00:d5:88:e8:0c:e2:3c:38:b6:58:d0:b7:7e:1c:45:f4:b2:
        c1:a1:90:87:b1:de:e6:e4:23:7f:d8:dd:f7:9e:de:53:eb:80:
        92:45
-----BEGIN CERTIFICATE-----
MIICyDCCAjGgAwIBAgIBKzANBgkqhkiG9w0BAQQFADB9MQswCQYDVQQGEwJNWTEN
MAsGA1UECBMETUFIQTENMAsGA1UEBxMEUFVORTENMAsGA1UEChMEUFNQTDERMA8G
A1UECxMIT0JMSVgtUUExDzANBgNVBAMTBnBzMjQzNjEdMBsGCSqGSIb3DQEJARYO
c2FnYXJAcHNwbC5jb20wHhcNMDgxMjIyMTIwNTI5WhcNMDkxMjIyMTIwNTI5WjBu
MQswCQYDVQQGEwJJTjEMMAoGA1UECBMDTWFoMQ0wCwYDVQQHEwRQdW5lMQwwCgYD
VQQKEwNwc2wxEDAOBgNVBAsTB29ibGl4cWExIjAgBgNVBAMTGXBhaGFsZ2FtLnBl
cnNpc3RlbnQuY28uaW4wgZ8wDQYJKoZIhvcNAQEBBQADgY0AMIGJAoGBAMCvEDKZ
E5VN6HC6kWCft1d2GCFqohr7ZJg5muz/SKMrlbd//t22x0XoLzaUH+CprpP9nh+L
mICbnWSP2PaYsWVtf1728hb1MQP+wwPdmeK1Qty1niBmv/y8qi+39fgbp6BqtiEz
V1PphHCpk8XMc07V7ZZJyuIKYFkRQR4n8EsxAgMBAAGjZzBlMB8GA1UdIwQYMBaA
FNv4ahUKglMfwuvM0G6DclfkRfJ0MDQGA1UdJQQtMCsGCCsGAQUFBwMBBggrBgEF
BQcDAgYKKwYBBAGCNwoDAwYJYIZIAYb4QgQBMAwGA1UdEwEB/wQCMAAwDQYJKoZI
hvcNAQEEBQADgYEATX3jgsybGtYvnXjuwtCTduIgYOmoCevXHT+FbUyCcSHuPHK4
SbWgbEL0OQ0BuKCf+P2/Zjk3ryCmGd0qzVC2/YLt85euQ47QieN5uVetphSKMAzg
MM2xHyUkhgDViOgM4jw4tljQt34cRfSywaGQh7He5uQjf9jd957eU+uAkkU=
-----END CERTIFICATE-----
