Certificate:
    Data:
        Version: 3 (0x2)
        Serial Number: 47 (0x2f)
        Signature Algorithm: md5WithRSAEncryption
        Issuer: C=MY, ST=MAHA, L=PUNE, O=PSPL, OU=OBLIX-QA, CN=ps2436/emailAddress=sagar@pspl.com
        Validity
            Not Before: Dec 24 10:03:08 2008 GMT
            Not After : Dec 24 10:03:08 2009 GMT
        Subject: C=in, ST=maha, L=pune, O=pspl, OU=oblix, CN=ps6505
        Subject Public Key Info:
            Public Key Algorithm: rsaEncryption
            RSA Public Key: (1024 bit)
                Modulus (1024 bit):
                    00:c6:c7:c6:46:37:77:ab:3f:30:b1:74:c5:cf:fb:
                    6f:06:33:1f:dc:d0:d6:fd:a1:85:66:da:7f:1c:0f:
                    df:00:32:39:42:e1:c1:45:8f:1b:4f:8c:03:b7:15:
                    00:25:78:77:91:63:9f:7b:f8:c3:58:9b:5b:1d:90:
                    71:4b:c5:2f:1a:4a:66:a7:48:d4:c6:26:27:03:9b:
                    78:98:fd:7e:af:de:a7:e5:ab:55:70:e5:df:7a:4a:
                    14:7d:ed:71:03:80:b6:ea:3f:e5:98:af:41:22:13:
                    a5:4b:93:f7:c8:fb:44:e9:02:af:dd:aa:bf:b5:1e:
                    13:09:c2:c5:72:1c:cf:af:03
                Exponent: 65537 (0x10001)
        X509v3 extensions:
            X509v3 Authority Key Identifier: 
            keyid:DB:F8:6A:15:0A:82:53:1F:C2:EB:CC:D0:6E:83:72:57:E4:45:F2:74

            X509v3 Extended Key Usage: 
            TLS Web Server Authentication, TLS Web Client Authentication, Microsoft Server Gated Crypto, Netscape Server Gated Crypto
            X509v3 Basic Constraints: critical
            CA:FALSE
    Signature Algorithm: md5WithRSAEncryption
        af:dd:83:a5:ee:3c:19:49:f0:91:35:5e:a4:8a:d3:fa:e9:d3:
        5b:08:bb:86:94:fd:05:42:b0:f4:d6:42:e2:f6:4c:f3:e6:21:
        f5:69:26:8e:51:6f:b7:5a:33:a5:dc:82:e1:93:e8:14:e7:a9:
        4f:0d:dc:19:ef:b6:5d:ae:a1:44:9e:2a:b4:69:75:de:a0:93:
        e6:41:4d:b4:fc:b4:cd:ee:c0:fa:2f:6a:47:53:1a:e6:2b:47:
        52:40:d9:db:80:26:5a:4a:52:c9:42:68:fc:92:fe:56:61:61:
        b4:c6:78:20:c9:4b:b8:46:fe:65:1c:d2:81:a0:bf:c1:4d:0f:
        54:16
-----BEGIN CERTIFICATE-----
MIICtTCCAh6gAwIBAgIBLzANBgkqhkiG9w0BAQQFADB9MQswCQYDVQQGEwJNWTEN
MAsGA1UECBMETUFIQTENMAsGA1UEBxMEUFVORTENMAsGA1UEChMEUFNQTDERMA8G
A1UECxMIT0JMSVgtUUExDzANBgNVBAMTBnBzMjQzNjEdMBsGCSqGSIb3DQEJARYO
c2FnYXJAcHNwbC5jb20wHhcNMDgxMjI0MTAwMzA4WhcNMDkxMjI0MTAwMzA4WjBb
MQswCQYDVQQGEwJpbjENMAsGA1UECBMEbWFoYTENMAsGA1UEBxMEcHVuZTENMAsG
A1UEChMEcHNwbDEOMAwGA1UECxMFb2JsaXgxDzANBgNVBAMTBnBzNjUwNTCBnzAN
BgkqhkiG9w0BAQEFAAOBjQAwgYkCgYEAxsfGRjd3qz8wsXTFz/tvBjMf3NDW/aGF
Ztp/HA/fADI5QuHBRY8bT4wDtxUAJXh3kWOfe/jDWJtbHZBxS8UvGkpmp0jUxiYn
A5t4mP1+r96n5atVcOXfekoUfe1xA4C26j/lmK9BIhOlS5P3yPtE6QKv3aq/tR4T
CcLFchzPrwMCAwEAAaNnMGUwHwYDVR0jBBgwFoAU2/hqFQqCUx/C68zQboNyV+RF
8nQwNAYDVR0lBC0wKwYIKwYBBQUHAwEGCCsGAQUFBwMCBgorBgEEAYI3CgMDBglg
hkgBhvhCBAEwDAYDVR0TAQH/BAIwADANBgkqhkiG9w0BAQQFAAOBgQCv3YOl7jwZ
SfCRNV6kitP66dNbCLuGlP0FQrD01kLi9kzz5iH1aSaOUW+3WjOl3ILhk+gU56lP
DdwZ77ZdrqFEniq0aXXeoJPmQU20/LTN7sD6L2pHUxrmK0dSQNnbgCZaSlLJQmj8
kv5WYWG0xnggyUu4Rv5lHNKBoL/BTQ9UFg==
-----END CERTIFICATE-----
