Certificate:
    Data:
        Version: 3 (0x2)
        Serial Number: 50 (0x32)
        Signature Algorithm: md5WithRSAEncryption
        Issuer: C=MY, ST=MAHA, L=PUNE, O=PSPL, OU=OBLIX-QA, CN=ps2436/emailAddress=sagar@pspl.com
        Validity
            Not Before: Dec 25 06:18:37 2008 GMT
            Not After : Dec 25 06:18:37 2009 GMT
        Subject: C=IN, ST=MAH, L=PUNE, O=PSL, OU=OBLIX-QA, CN=spork7
        Subject Public Key Info:
            Public Key Algorithm: rsaEncryption
            RSA Public Key: (1024 bit)
                Modulus (1024 bit):
                    00:d7:b3:76:a5:b2:77:db:84:a7:b8:5e:e1:8c:0b:
                    5d:11:bd:b9:27:d6:b9:9f:ef:5b:b5:c7:d3:56:99:
                    83:6e:86:9f:b0:69:8d:c8:7b:e9:c9:55:c1:66:1e:
                    c2:d8:39:80:73:5d:ea:a5:95:b8:a1:f6:f4:2f:da:
                    f1:2d:e4:14:06:50:7a:98:b4:a6:4f:0d:67:69:f3:
                    f6:e0:e8:c1:72:fd:bb:d0:63:ee:c0:98:6c:06:04:
                    e1:b2:7c:4e:80:ca:99:d1:35:24:74:4a:fa:2c:21:
                    7f:5d:9e:8f:69:c5:b1:3d:ae:c1:18:14:f7:82:cb:
                    70:8d:ce:68:8c:53:49:2b:43
                Exponent: 65537 (0x10001)
        X509v3 extensions:
            X509v3 Authority Key Identifier: 
            keyid:DB:F8:6A:15:0A:82:53:1F:C2:EB:CC:D0:6E:83:72:57:E4:45:F2:74

            X509v3 Extended Key Usage: 
            TLS Web Server Authentication, TLS Web Client Authentication, Microsoft Server Gated Crypto, Netscape Server Gated Crypto
            X509v3 Basic Constraints: critical
            CA:FALSE
    Signature Algorithm: md5WithRSAEncryption
        51:70:0a:39:d1:76:44:ae:08:eb:a3:9a:60:7d:d2:3d:9c:72:
        6e:38:cc:42:e3:e2:dd:2b:ea:c6:98:bb:d7:aa:6f:1e:7e:e9:
        b5:5c:e2:75:85:14:7f:79:21:f4:ac:f1:9d:71:ab:fc:1d:85:
        06:6b:15:d3:51:56:b0:34:12:d5:f5:0f:10:08:3a:61:ab:60:
        dd:df:57:a3:11:53:6f:5b:12:0a:b0:5e:37:4d:09:b5:12:e2:
        76:47:df:e5:f6:80:2d:fe:e9:6e:a6:99:fa:ba:49:0a:19:dc:
        dd:fe:22:ae:50:7b:b4:d0:46:3d:8a:1d:4e:0a:0c:2e:6e:df:
        e4:cd
-----BEGIN CERTIFICATE-----
MIICtjCCAh+gAwIBAgIBMjANBgkqhkiG9w0BAQQFADB9MQswCQYDVQQGEwJNWTEN
MAsGA1UECBMETUFIQTENMAsGA1UEBxMEUFVORTENMAsGA1UEChMEUFNQTDERMA8G
A1UECxMIT0JMSVgtUUExDzANBgNVBAMTBnBzMjQzNjEdMBsGCSqGSIb3DQEJARYO
c2FnYXJAcHNwbC5jb20wHhcNMDgxMjI1MDYxODM3WhcNMDkxMjI1MDYxODM3WjBc
MQswCQYDVQQGEwJJTjEMMAoGA1UECBMDTUFIMQ0wCwYDVQQHEwRQVU5FMQwwCgYD
VQQKEwNQU0wxETAPBgNVBAsTCE9CTElYLVFBMQ8wDQYDVQQDEwZzcG9yazcwgZ8w
DQYJKoZIhvcNAQEBBQADgY0AMIGJAoGBANezdqWyd9uEp7he4YwLXRG9uSfWuZ/v
W7XH01aZg26Gn7Bpjch76clVwWYewtg5gHNd6qWVuKH29C/a8S3kFAZQepi0pk8N
Z2nz9uDowXL9u9Bj7sCYbAYE4bJ8ToDKmdE1JHRK+iwhf12ej2nFsT2uwRgU94LL
cI3OaIxTSStDAgMBAAGjZzBlMB8GA1UdIwQYMBaAFNv4ahUKglMfwuvM0G6Dclfk
RfJ0MDQGA1UdJQQtMCsGCCsGAQUFBwMBBggrBgEFBQcDAgYKKwYBBAGCNwoDAwYJ
YIZIAYb4QgQBMAwGA1UdEwEB/wQCMAAwDQYJKoZIhvcNAQEEBQADgYEAUXAKOdF2
RK4I66OaYH3SPZxybjjMQuPi3Svqxpi716pvHn7ptVzidYUUf3kh9KzxnXGr/B2F
BmsV01FWsDQS1fUPEAg6Yatg3d9XoxFTb1sSCrBeN00JtRLidkff5faALf7pbqaZ
+rpJChnc3f4irlB7tNBGPYodTgoMLm7f5M0=
-----END CERTIFICATE-----
