Certificate:
    Data:
        Version: 3 (0x2)
        Serial Number: 52 (0x34)
        Signature Algorithm: md5WithRSAEncryption
        Issuer: C=MY, ST=MAHA, L=PUNE, O=PSPL, OU=OBLIX-QA, CN=ps2436/emailAddress=sagar@pspl.com
        Validity
            Not Before: Dec 25 06:39:46 2008 GMT
            Not After : Dec 25 06:39:46 2009 GMT
        Subject: C=US, ST=California, L=Redwood, O=oracle, OU=oblix, CN=spork6.us.oracle.com
        Subject Public Key Info:
            Public Key Algorithm: rsaEncryption
            RSA Public Key: (1024 bit)
                Modulus (1024 bit):
                    00:84:0b:84:af:6c:9c:ae:df:76:10:e6:07:8a:91:
                    d5:64:74:a4:f8:c9:b8:b9:47:34:60:9c:c0:5f:6e:
                    0b:0b:1c:c3:d7:e1:69:54:6f:83:2e:b4:73:d5:f8:
                    5c:76:a1:5d:ca:d0:c6:a1:5d:27:30:71:f8:d9:16:
                    16:ea:07:77:06:75:60:36:9e:a1:ae:7f:ba:8f:6f:
                    ef:7d:9a:2e:3d:19:70:77:db:33:3f:8e:42:db:74:
                    60:e9:da:d3:f2:27:a3:6a:75:f2:d1:e6:7d:69:eb:
                    00:37:cc:cd:67:32:1c:45:79:fe:45:d2:84:27:80:
                    b8:5f:19:ba:61:33:20:3d:b3
                Exponent: 65537 (0x10001)
        X509v3 extensions:
            X509v3 Authority Key Identifier: 
            keyid:DB:F8:6A:15:0A:82:53:1F:C2:EB:CC:D0:6E:83:72:57:E4:45:F2:74

            X509v3 Extended Key Usage: 
            TLS Web Server Authentication, TLS Web Client Authentication, Microsoft Server Gated Crypto, Netscape Server Gated Crypto
            X509v3 Basic Constraints: critical
            CA:FALSE
    Signature Algorithm: md5WithRSAEncryption
        7d:18:bb:7b:49:55:75:d7:86:48:c3:ff:82:bf:3e:de:fa:a5:
        3f:a0:65:a3:bd:3a:91:0f:0b:0e:11:e6:b6:c4:2b:09:0c:05:
        6e:96:28:43:a6:80:f9:7e:f7:25:ef:3d:c8:a7:ce:1e:c7:72:
        7a:a0:26:52:e3:d6:e0:23:2c:e0:e6:de:0f:2b:05:9e:bd:cb:
        bf:1e:30:7d:4f:63:6b:86:02:c5:99:92:31:61:60:9d:78:fb:
        6d:78:34:89:bf:ca:21:20:a2:57:3b:d4:7b:85:b3:5f:79:c2:
        de:2e:d8:ba:e1:26:59:a8:74:43:cb:1f:e0:6f:55:bb:28:80:
        2b:0d
-----BEGIN CERTIFICATE-----
MIICzjCCAjegAwIBAgIBNDANBgkqhkiG9w0BAQQFADB9MQswCQYDVQQGEwJNWTEN
MAsGA1UECBMETUFIQTENMAsGA1UEBxMEUFVORTENMAsGA1UEChMEUFNQTDERMA8G
A1UECxMIT0JMSVgtUUExDzANBgNVBAMTBnBzMjQzNjEdMBsGCSqGSIb3DQEJARYO
c2FnYXJAcHNwbC5jb20wHhcNMDgxMjI1MDYzOTQ2WhcNMDkxMjI1MDYzOTQ2WjB0
MQswCQYDVQQGEwJVUzETMBEGA1UECBMKQ2FsaWZvcm5pYTEQMA4GA1UEBxMHUmVk
d29vZDEPMA0GA1UEChMGb3JhY2xlMQ4wDAYDVQQLEwVvYmxpeDEdMBsGA1UEAxMU
c3Bvcms2LnVzLm9yYWNsZS5jb20wgZ8wDQYJKoZIhvcNAQEBBQADgY0AMIGJAoGB
AIQLhK9snK7fdhDmB4qR1WR0pPjJuLlHNGCcwF9uCwscw9fhaVRvgy60c9X4XHah
XcrQxqFdJzBx+NkWFuoHdwZ1YDaeoa5/uo9v732aLj0ZcHfbMz+OQtt0YOna0/In
o2p18tHmfWnrADfMzWcyHEV5/kXShCeAuF8ZumEzID2zAgMBAAGjZzBlMB8GA1Ud
IwQYMBaAFNv4ahUKglMfwuvM0G6DclfkRfJ0MDQGA1UdJQQtMCsGCCsGAQUFBwMB
BggrBgEFBQcDAgYKKwYBBAGCNwoDAwYJYIZIAYb4QgQBMAwGA1UdEwEB/wQCMAAw
DQYJKoZIhvcNAQEEBQADgYEAfRi7e0lVddeGSMP/gr8+3vqlP6Blo706kQ8LDhHm
tsQrCQwFbpYoQ6aA+X73Je89yKfOHsdyeqAmUuPW4CMs4ObeDysFnr3Lvx4wfU9j
a4YCxZmSMWFgnXj7bXg0ib/KISCiVzvUe4WzX3nC3i7YuuEmWah0Q8sf4G9VuyiA
Kw0=
-----END CERTIFICATE-----
