Certificate:
    Data:
        Version: 3 (0x2)
        Serial Number: 54 (0x36)
        Signature Algorithm: md5WithRSAEncryption
        Issuer: C=MY, ST=MAHA, L=PUNE, O=PSPL, OU=OBLIX-QA, CN=ps2436/emailAddress=sagar@pspl.com
        Validity
            Not Before: Dec 25 09:10:11 2008 GMT
            Not After : Dec 25 09:10:11 2009 GMT
        Subject: C=US, ST=Maharashtra, L=pune, O=oracle, OU=oblix, CN=spork6.us.oracle.com
        Subject Public Key Info:
            Public Key Algorithm: rsaEncryption
            RSA Public Key: (1024 bit)
                Modulus (1024 bit):
                    00:c3:b4:5d:e7:95:f1:8a:52:f2:2c:2a:05:3d:63:
                    e2:d7:00:79:b6:9a:e8:80:f6:11:62:76:d0:ac:c8:
                    32:25:33:a4:bb:7c:5e:e9:8f:c2:3e:7f:b7:b9:22:
                    1d:4f:5d:fb:10:d3:ec:1d:16:a4:9d:f9:b1:61:93:
                    56:8d:db:54:ab:d5:16:59:47:8f:d3:7d:80:57:75:
                    2c:0a:b7:bb:eb:d7:80:7c:67:df:d4:2e:ab:e5:10:
                    61:8d:b8:9a:bb:30:2a:8a:8e:31:ea:62:69:8d:86:
                    77:f3:97:d5:36:ca:ed:00:25:1d:a7:03:06:78:75:
                    39:45:f9:48:3c:3e:9a:ff:95
                Exponent: 65537 (0x10001)
        X509v3 extensions:
            X509v3 Authority Key Identifier: 
            keyid:DB:F8:6A:15:0A:82:53:1F:C2:EB:CC:D0:6E:83:72:57:E4:45:F2:74

            X509v3 Extended Key Usage: 
            TLS Web Server Authentication, TLS Web Client Authentication, Microsoft Server Gated Crypto, Netscape Server Gated Crypto
            X509v3 Basic Constraints: critical
            CA:FALSE
    Signature Algorithm: md5WithRSAEncryption
        43:1c:22:cf:89:8c:db:cb:56:f9:de:d4:ce:02:bf:8f:b5:4b:
        30:34:3e:36:67:78:b2:fa:9f:22:00:a3:7f:6b:3e:fd:d0:3b:
        dd:14:27:b8:69:ce:b0:61:6a:c9:ea:63:f4:32:94:a6:b9:62:
        1f:a4:d2:3e:da:af:6b:6b:d8:d5:f9:c2:62:e1:e4:fe:01:9a:
        42:b7:16:7f:55:15:52:05:fb:d2:c4:b8:55:36:0c:b6:f2:79:
        05:6d:d4:87:0d:39:1e:3c:98:bd:78:4e:54:e8:22:b4:90:f1:
        56:42:c1:06:d1:92:09:89:1c:e9:16:f7:eb:94:86:3b:6f:d8:
        c4:81
-----BEGIN CERTIFICATE-----
MIICzDCCAjWgAwIBAgIBNjANBgkqhkiG9w0BAQQFADB9MQswCQYDVQQGEwJNWTEN
MAsGA1UECBMETUFIQTENMAsGA1UEBxMEUFVORTENMAsGA1UEChMEUFNQTDERMA8G
A1UECxMIT0JMSVgtUUExDzANBgNVBAMTBnBzMjQzNjEdMBsGCSqGSIb3DQEJARYO
c2FnYXJAcHNwbC5jb20wHhcNMDgxMjI1MDkxMDExWhcNMDkxMjI1MDkxMDExWjBy
MQswCQYDVQQGEwJVUzEUMBIGA1UECBMLTWFoYXJhc2h0cmExDTALBgNVBAcTBHB1
bmUxDzANBgNVBAoTBm9yYWNsZTEOMAwGA1UECxMFb2JsaXgxHTAbBgNVBAMTFHNw
b3JrNi51cy5vcmFjbGUuY29tMIGfMA0GCSqGSIb3DQEBAQUAA4GNADCBiQKBgQDD
tF3nlfGKUvIsKgU9Y+LXAHm2muiA9hFidtCsyDIlM6S7fF7pj8I+f7e5Ih1PXfsQ
0+wdFqSd+bFhk1aN21Sr1RZZR4/TfYBXdSwKt7vr14B8Z9/ULqvlEGGNuJq7MCqK
jjHqYmmNhnfzl9U2yu0AJR2nAwZ4dTlF+Ug8Ppr/lQIDAQABo2cwZTAfBgNVHSME
GDAWgBTb+GoVCoJTH8LrzNBug3JX5EXydDA0BgNVHSUELTArBggrBgEFBQcDAQYI
KwYBBQUHAwIGCisGAQQBgjcKAwMGCWCGSAGG+EIEATAMBgNVHRMBAf8EAjAAMA0G
CSqGSIb3DQEBBAUAA4GBAEMcIs+JjNvLVvne1M4Cv4+1SzA0PjZneLL6nyIAo39r
Pv3QO90UJ7hpzrBhasnqY/QylKa5Yh+k0j7ar2tr2NX5wmLh5P4BmkK3Fn9VFVIF
+9LEuFU2DLbyeQVt1IcNOR48mL14TlToIrSQ8VZCwQbRkgmJHOkW9+uUhjtv2MSB
-----END CERTIFICATE-----
