Certificate:
    Data:
        Version: 3 (0x2)
        Serial Number: 56 (0x38)
        Signature Algorithm: md5WithRSAEncryption
        Issuer: C=MY, ST=MAHA, L=PUNE, O=PSPL, OU=OBLIX-QA, CN=ps2436/emailAddress=sagar@pspl.com
        Validity
            Not Before: Dec 26 10:03:07 2008 GMT
            Not After : Dec 26 10:03:07 2009 GMT
        Subject: C=IN, ST=maharashtra, L=pune, O=psl, OU=oblix, CN=v-ps5166-v2.persistent.co.in
        Subject Public Key Info:
            Public Key Algorithm: rsaEncryption
            RSA Public Key: (1024 bit)
                Modulus (1024 bit):
                    00:e1:0d:78:66:b8:48:f9:10:ec:d0:ea:2e:2a:8e:
                    fa:7d:6c:5c:3e:bc:aa:c5:27:5a:4e:00:7f:9d:d4:
                    87:08:93:de:5a:19:b7:45:0f:0b:00:8b:97:c2:84:
                    cc:55:bc:9a:b0:c3:14:f0:88:62:89:c6:38:c8:b6:
                    4f:44:da:9e:32:e0:79:a6:1e:7c:65:9f:28:de:2d:
                    20:77:5c:60:d6:0b:c9:5c:9f:3c:f2:31:31:55:5c:
                    d4:b2:0f:a8:3a:76:a5:29:ae:78:56:84:67:ee:ee:
                    e6:12:b3:66:05:d0:95:a8:74:27:e4:a2:45:4e:4d:
                    9b:46:13:e5:32:23:c1:fa:e5
                Exponent: 65537 (0x10001)
        X509v3 extensions:
            X509v3 Authority Key Identifier: 
            keyid:DB:F8:6A:15:0A:82:53:1F:C2:EB:CC:D0:6E:83:72:57:E4:45:F2:74

            X509v3 Extended Key Usage: 
            TLS Web Server Authentication, TLS Web Client Authentication, Microsoft Server Gated Crypto, Netscape Server Gated Crypto
            X509v3 Basic Constraints: critical
            CA:FALSE
    Signature Algorithm: md5WithRSAEncryption
        a1:90:e6:04:48:8a:83:f4:a7:15:18:51:97:c9:58:58:82:61:
        29:fe:d9:83:9f:aa:ec:e0:90:31:e4:02:bf:b4:49:26:df:89:
        ab:8d:c6:7c:ed:ea:d0:ee:2e:67:14:65:0c:dd:73:5b:9a:b1:
        bd:50:fc:ac:64:9b:40:32:2d:e2:8d:1b:b3:7c:b0:ba:62:20:
        a2:c4:3c:be:4b:b2:7c:e5:ba:0d:92:f2:b2:bc:31:37:7e:6d:
        ab:3a:99:ea:0e:9d:7f:fc:39:d8:a0:0a:5c:13:27:9b:23:f8:
        61:4c:25:bb:f2:13:09:98:0a:5c:42:1a:22:0a:11:ce:0a:d7:
        03:3a
-----BEGIN CERTIFICATE-----
MIIC0TCCAjqgAwIBAgIBODANBgkqhkiG9w0BAQQFADB9MQswCQYDVQQGEwJNWTEN
MAsGA1UECBMETUFIQTENMAsGA1UEBxMEUFVORTENMAsGA1UEChMEUFNQTDERMA8G
A1UECxMIT0JMSVgtUUExDzANBgNVBAMTBnBzMjQzNjEdMBsGCSqGSIb3DQEJARYO
c2FnYXJAcHNwbC5jb20wHhcNMDgxMjI2MTAwMzA3WhcNMDkxMjI2MTAwMzA3WjB3
MQswCQYDVQQGEwJJTjEUMBIGA1UECBMLbWFoYXJhc2h0cmExDTALBgNVBAcTBHB1
bmUxDDAKBgNVBAoTA3BzbDEOMAwGA1UECxMFb2JsaXgxJTAjBgNVBAMTHHYtcHM1
MTY2LXYyLnBlcnNpc3RlbnQuY28uaW4wgZ8wDQYJKoZIhvcNAQEBBQADgY0AMIGJ
AoGBAOENeGa4SPkQ7NDqLiqO+n1sXD68qsUnWk4Af53UhwiT3loZt0UPCwCLl8KE
zFW8mrDDFPCIYonGOMi2T0TanjLgeaYefGWfKN4tIHdcYNYLyVyfPPIxMVVc1LIP
qDp2pSmueFaEZ+7u5hKzZgXQlah0J+SiRU5Nm0YT5TIjwfrlAgMBAAGjZzBlMB8G
A1UdIwQYMBaAFNv4ahUKglMfwuvM0G6DclfkRfJ0MDQGA1UdJQQtMCsGCCsGAQUF
BwMBBggrBgEFBQcDAgYKKwYBBAGCNwoDAwYJYIZIAYb4QgQBMAwGA1UdEwEB/wQC
MAAwDQYJKoZIhvcNAQEEBQADgYEAoZDmBEiKg/SnFRhRl8lYWIJhKf7Zg5+q7OCQ
MeQCv7RJJt+Jq43GfO3q0O4uZxRlDN1zW5qxvVD8rGSbQDIt4o0bs3ywumIgosQ8
vkuyfOW6DZLysrwxN35tqzqZ6g6df/w52KAKXBMnmyP4YUwlu/ITCZgKXEIaIgoR
zgrXAzo=
-----END CERTIFICATE-----
