Certificate:
    Data:
        Version: 3 (0x2)
        Serial Number: 57 (0x39)
        Signature Algorithm: md5WithRSAEncryption
        Issuer: C=MY, ST=MAHA, L=PUNE, O=PSPL, OU=OBLIX-QA, CN=ps2436/emailAddress=sagar@pspl.com
        Validity
            Not Before: Dec 26 10:37:43 2008 GMT
            Not After : Dec 26 10:37:43 2009 GMT
        Subject: C=IN, ST=MH, L=PUNE, O=PSPL, OU=OBLIX, CN=ps4572-v1
        Subject Public Key Info:
            Public Key Algorithm: rsaEncryption
            RSA Public Key: (1024 bit)
                Modulus (1024 bit):
                    00:e1:b7:da:97:1a:bc:53:8b:ae:c5:94:65:39:b3:
                    58:33:a1:f2:9f:05:27:b7:9b:f4:63:8a:4a:30:88:
                    10:90:10:6c:74:12:0f:59:7a:b7:91:3e:94:71:57:
                    bf:19:c8:c2:57:dc:8f:70:6c:88:a3:a0:47:44:6a:
                    e0:25:d3:c8:9b:6f:f0:79:c2:dc:f1:8c:10:39:4d:
                    5f:3a:d1:b5:37:cc:48:b6:eb:fd:82:8d:cc:15:10:
                    03:5a:95:68:56:6a:9e:5c:17:c0:8c:69:7b:1a:79:
                    4a:fc:03:23:ad:9d:db:91:1c:07:55:b6:b9:a2:4d:
                    7a:0c:64:a1:6c:48:ca:57:e5
                Exponent: 65537 (0x10001)
        X509v3 extensions:
            X509v3 Authority Key Identifier: 
            keyid:DB:F8:6A:15:0A:82:53:1F:C2:EB:CC:D0:6E:83:72:57:E4:45:F2:74

            X509v3 Extended Key Usage: 
            TLS Web Server Authentication, TLS Web Client Authentication, Microsoft Server Gated Crypto, Netscape Server Gated Crypto
            X509v3 Basic Constraints: critical
            CA:FALSE
    Signature Algorithm: md5WithRSAEncryption
        15:19:8b:d3:5b:93:c2:30:81:49:98:9c:63:e7:f8:5a:47:d5:
        d4:70:e3:46:81:ae:80:fa:fd:7a:42:d9:08:26:f4:2b:3d:40:
        b3:5d:86:f1:9c:b0:56:3c:b9:d1:dd:ff:c7:3b:5e:56:e2:47:
        62:32:7b:a9:08:14:76:54:5a:22:1b:3c:4f:38:30:09:6d:29:
        55:26:d7:d7:b7:23:b7:11:0c:ba:07:e2:7c:95:f2:d5:e6:9a:
        f3:2d:0f:bb:e1:a6:39:44:1b:f4:37:76:48:6a:48:7b:db:fd:
        77:c5:ca:62:64:ec:99:41:5d:3d:d6:8c:2d:61:e4:6e:08:04:
        61:9d
-----BEGIN CERTIFICATE-----
MIICtjCCAh+gAwIBAgIBOTANBgkqhkiG9w0BAQQFADB9MQswCQYDVQQGEwJNWTEN
MAsGA1UECBMETUFIQTENMAsGA1UEBxMEUFVORTENMAsGA1UEChMEUFNQTDERMA8G
A1UECxMIT0JMSVgtUUExDzANBgNVBAMTBnBzMjQzNjEdMBsGCSqGSIb3DQEJARYO
c2FnYXJAcHNwbC5jb20wHhcNMDgxMjI2MTAzNzQzWhcNMDkxMjI2MTAzNzQzWjBc
MQswCQYDVQQGEwJJTjELMAkGA1UECBMCTUgxDTALBgNVBAcTBFBVTkUxDTALBgNV
BAoTBFBTUEwxDjAMBgNVBAsTBU9CTElYMRIwEAYDVQQDEwlwczQ1NzItdjEwgZ8w
DQYJKoZIhvcNAQEBBQADgY0AMIGJAoGBAOG32pcavFOLrsWUZTmzWDOh8p8FJ7eb
9GOKSjCIEJAQbHQSD1l6t5E+lHFXvxnIwlfcj3BsiKOgR0Rq4CXTyJtv8HnC3PGM
EDlNXzrRtTfMSLbr/YKNzBUQA1qVaFZqnlwXwIxpexp5SvwDI62d25EcB1W2uaJN
egxkoWxIylflAgMBAAGjZzBlMB8GA1UdIwQYMBaAFNv4ahUKglMfwuvM0G6Dclfk
RfJ0MDQGA1UdJQQtMCsGCCsGAQUFBwMBBggrBgEFBQcDAgYKKwYBBAGCNwoDAwYJ
YIZIAYb4QgQBMAwGA1UdEwEB/wQCMAAwDQYJKoZIhvcNAQEEBQADgYEAFRmL01uT
wjCBSZicY+f4WkfV1HDjRoGugPr9ekLZCCb0Kz1As12G8ZywVjy50d3/xzteVuJH
YjJ7qQgUdlRaIhs8TzgwCW0pVSbX17cjtxEMugfifJXy1eaa8y0Pu+GmOUQb9Dd2
SGpIe9v9d8XKYmTsmUFdPdaMLWHkbggEYZ0=
-----END CERTIFICATE-----
