Certificate:
    Data:
        Version: 3 (0x2)
        Serial Number: 59 (0x3b)
        Signature Algorithm: md5WithRSAEncryption
        Issuer: C=MY, ST=MAHA, L=PUNE, O=PSPL, OU=OBLIX-QA, CN=ps2436/emailAddress=sagar@pspl.com
        Validity
            Not Before: Dec 29 10:50:41 2008 GMT
            Not After : Dec 29 10:50:41 2009 GMT
        Subject: C=US, ST=CA, L=CA, O=oblix, OU=oblix, CN=ps2436
        Subject Public Key Info:
            Public Key Algorithm: rsaEncryption
            RSA Public Key: (512 bit)
                Modulus (512 bit):
                    00:e3:41:5b:1e:4d:6e:d8:43:d8:b6:6e:30:2e:f8:
                    0c:a5:1d:1e:b5:7f:56:cd:b5:fd:9f:12:cd:1e:c1:
                    26:19:a0:88:b2:b0:55:1c:32:cd:80:90:40:24:e2:
                    7e:8b:e3:34:86:4b:b1:7f:f1:30:98:4d:e4:9b:ea:
                    14:4e:31:73:47
                Exponent: 65537 (0x10001)
        X509v3 extensions:
            X509v3 Authority Key Identifier: 
            keyid:DB:F8:6A:15:0A:82:53:1F:C2:EB:CC:D0:6E:83:72:57:E4:45:F2:74

            X509v3 Extended Key Usage: 
            TLS Web Server Authentication, TLS Web Client Authentication, Microsoft Server Gated Crypto, Netscape Server Gated Crypto
            X509v3 Basic Constraints: critical
            CA:FALSE
    Signature Algorithm: md5WithRSAEncryption
        69:85:1c:45:c0:b8:0b:7c:60:9a:cc:0d:e7:5f:07:e1:97:5e:
        aa:51:29:58:12:c2:b4:83:6f:93:49:08:fb:a4:6a:85:f5:3d:
        33:03:7c:4c:34:e3:7e:ee:2d:f9:db:c8:d4:43:47:3a:4b:da:
        ca:65:bc:9b:e8:75:9a:a0:8f:d0:a4:4f:38:18:25:ec:d7:5a:
        4f:82:3f:44:0f:19:86:7d:03:cf:6a:c2:49:4b:e6:ce:79:55:
        18:06:a1:30:f0:78:51:fa:a1:f3:6d:28:91:29:d2:e4:19:49:
        f4:18:25:f4:af:c3:ad:b9:40:5f:da:9d:94:96:35:48:ba:55:
        5f:e5
-----BEGIN CERTIFICATE-----
MIICbjCCAdegAwIBAgIBOzANBgkqhkiG9w0BAQQFADB9MQswCQYDVQQGEwJNWTEN
MAsGA1UECBMETUFIQTENMAsGA1UEBxMEUFVORTENMAsGA1UEChMEUFNQTDERMA8G
A1UECxMIT0JMSVgtUUExDzANBgNVBAMTBnBzMjQzNjEdMBsGCSqGSIb3DQEJARYO
c2FnYXJAcHNwbC5jb20wHhcNMDgxMjI5MTA1MDQxWhcNMDkxMjI5MTA1MDQxWjBY
MQswCQYDVQQGEwJVUzELMAkGA1UECBMCQ0ExCzAJBgNVBAcTAkNBMQ4wDAYDVQQK
EwVvYmxpeDEOMAwGA1UECxMFb2JsaXgxDzANBgNVBAMTBnBzMjQzNjBcMA0GCSqG
SIb3DQEBAQUAA0sAMEgCQQDjQVseTW7YQ9i2bjAu+AylHR61f1bNtf2fEs0ewSYZ
oIiysFUcMs2AkEAk4n6L4zSGS7F/8TCYTeSb6hROMXNHAgMBAAGjZzBlMB8GA1Ud
IwQYMBaAFNv4ahUKglMfwuvM0G6DclfkRfJ0MDQGA1UdJQQtMCsGCCsGAQUFBwMB
BggrBgEFBQcDAgYKKwYBBAGCNwoDAwYJYIZIAYb4QgQBMAwGA1UdEwEB/wQCMAAw
DQYJKoZIhvcNAQEEBQADgYEAaYUcRcC4C3xgmswN518H4ZdeqlEpWBLCtINvk0kI
+6RqhfU9MwN8TDTjfu4t+dvI1ENHOkvaymW8m+h1mqCP0KRPOBgl7NdaT4I/RA8Z
hn0Dz2rCSUvmznlVGAahMPB4Ufqh820okSnS5BlJ9Bgl9K/DrblAX9qdlJY1SLpV
X+U=
-----END CERTIFICATE-----
