Certificate:
    Data:
        Version: 3 (0x2)
        Serial Number: 62 (0x3e)
        Signature Algorithm: md5WithRSAEncryption
        Issuer: C=MY, ST=MAHA, L=PUNE, O=PSPL, OU=OBLIX-QA, CN=ps2436/emailAddress=sagar@pspl.com
        Validity
            Not Before: Dec 31 09:19:15 2008 GMT
            Not After : Dec 31 09:19:15 2009 GMT
        Subject: CN=Rohit Valiveti/emailAddress=rohit_valiveti@company.com
        Subject Public Key Info:
            Public Key Algorithm: rsaEncryption
            RSA Public Key: (1024 bit)
                Modulus (1024 bit):
                    00:af:4f:e3:3f:c5:2f:4e:82:00:3c:00:22:0f:f8:
                    1b:dd:ab:f0:dc:6e:7b:9e:83:c8:9d:70:41:df:fe:
                    9a:96:7e:d1:37:7d:e3:2e:d2:8f:9b:44:bf:8c:fa:
                    6a:3e:b4:d7:fa:eb:01:86:f0:da:d3:7a:23:f2:49:
                    05:23:c1:e9:eb:d3:3f:7c:a0:a8:9c:ca:d6:0b:b5:
                    bb:0f:31:91:88:05:a6:b9:7b:8d:79:c6:cb:42:6e:
                    ab:73:62:f6:8e:e3:f9:1c:ac:82:fd:9b:fd:57:1d:
                    28:5e:fd:e0:b1:86:47:92:0b:43:97:18:5d:4f:44:
                    31:12:7a:66:98:d1:72:7a:3f
                Exponent: 65537 (0x10001)
        X509v3 extensions:
            X509v3 Subject Alternative Name: 
            email:rohit_valiveti@company.com
            X509v3 Basic Constraints: critical
            CA:FALSE
            X509v3 Authority Key Identifier: 
            keyid:DB:F8:6A:15:0A:82:53:1F:C2:EB:CC:D0:6E:83:72:57:E4:45:F2:74

            X509v3 Extended Key Usage: 
            TLS Web Client Authentication, E-mail Protection
    Signature Algorithm: md5WithRSAEncryption
        b4:ef:6a:89:6a:cf:2d:2a:17:14:9b:8d:b0:20:31:5a:13:b0:
        01:63:72:7b:9f:9b:28:70:c1:a4:2d:0d:1e:13:9a:7a:51:e0:
        33:9a:2d:18:6f:0b:62:e9:05:e7:fb:4d:f3:ee:c9:9d:ce:85:
        9b:2b:a0:a9:6f:64:b3:d4:cc:1c:f1:f4:15:73:e0:38:03:6a:
        5e:e9:7f:52:5c:43:fb:fa:c9:6d:33:29:18:d3:95:88:4c:c1:
        72:23:2b:62:0b:48:b3:b7:93:6c:dc:f4:72:2b:1a:b8:89:5a:
        d4:a0:0a:b1:1a:66:2e:90:31:e4:8f:d6:70:2f:e9:59:2c:aa:
        58:f8
-----BEGIN CERTIFICATE-----
MIICrjCCAhegAwIBAgIBPjANBgkqhkiG9w0BAQQFADB9MQswCQYDVQQGEwJNWTEN
MAsGA1UECBMETUFIQTENMAsGA1UEBxMEUFVORTENMAsGA1UEChMEUFNQTDERMA8G
A1UECxMIT0JMSVgtUUExDzANBgNVBAMTBnBzMjQzNjEdMBsGCSqGSIb3DQEJARYO
c2FnYXJAcHNwbC5jb20wHhcNMDgxMjMxMDkxOTE1WhcNMDkxMjMxMDkxOTE1WjBE
MRcwFQYDVQQDEw5Sb2hpdCBWYWxpdmV0aTEpMCcGCSqGSIb3DQEJARYacm9oaXRf
dmFsaXZldGlAY29tcGFueS5jb20wgZ8wDQYJKoZIhvcNAQEBBQADgY0AMIGJAoGB
AK9P4z/FL06CADwAIg/4G92r8Nxue56DyJ1wQd/+mpZ+0Td94y7Sj5tEv4z6aj60
1/rrAYbw2tN6I/JJBSPB6evTP3ygqJzK1gu1uw8xkYgFprl7jXnGy0Juq3Ni9o7j
+Rysgv2b/VcdKF794LGGR5ILQ5cYXU9EMRJ6ZpjRcno/AgMBAAGjdzB1MCUGA1Ud
EQQeMByBGnJvaGl0X3ZhbGl2ZXRpQGNvbXBhbnkuY29tMAwGA1UdEwEB/wQCMAAw
HwYDVR0jBBgwFoAU2/hqFQqCUx/C68zQboNyV+RF8nQwHQYDVR0lBBYwFAYIKwYB
BQUHAwIGCCsGAQUFBwMEMA0GCSqGSIb3DQEBBAUAA4GBALTvaolqzy0qFxSbjbAg
MVoTsAFjcnufmyhwwaQtDR4TmnpR4DOaLRhvC2LpBef7TfPuyZ3OhZsroKlvZLPU
zBzx9BVz4DgDal7pf1JcQ/v6yW0zKRjTlYhMwXIjK2ILSLO3k2zc9HIrGriJWtSg
CrEaZi6QMeSP1nAv6Vksqlj4
-----END CERTIFICATE-----
