Certificate:
    Data:
        Version: 3 (0x2)
        Serial Number: 64 (0x40)
        Signature Algorithm: md5WithRSAEncryption
        Issuer: C=MY, ST=MAHA, L=PUNE, O=PSPL, OU=OBLIX-QA, CN=ps2436/emailAddress=sagar@pspl.com
        Validity
            Not Before: Jan  1 08:15:56 2009 GMT
            Not After : Jan  1 08:15:56 2010 GMT
        Subject: C=IN, ST=maharashtra, L=pune, O=psl, OU=oblixqa, CN=v-ps5166-v2.persistent.co.in
        Subject Public Key Info:
            Public Key Algorithm: rsaEncryption
            RSA Public Key: (1024 bit)
                Modulus (1024 bit):
                    00:a2:ca:cf:4d:f6:ac:f7:d9:13:31:23:3a:ba:7c:
                    89:df:1b:12:a2:b6:13:7a:63:41:b2:1d:fa:37:7b:
                    a7:01:f1:43:67:d3:23:69:86:ce:9f:c6:0d:0c:32:
                    8d:ba:ea:d5:9f:0a:21:cf:ba:b4:c6:c8:41:61:1d:
                    c6:98:a5:dd:76:16:ac:9f:24:40:31:8f:c7:1f:9b:
                    90:d3:8a:90:4d:46:bb:c1:68:70:5b:f8:2f:f5:f0:
                    28:d7:d6:77:de:35:fd:e8:b4:4d:22:47:d4:7e:15:
                    d7:ac:66:61:23:bb:9e:72:47:b1:fb:98:2d:56:88:
                    59:82:03:34:87:6c:5f:dd:ad
                Exponent: 65537 (0x10001)
        X509v3 extensions:
            X509v3 Authority Key Identifier: 
            keyid:DB:F8:6A:15:0A:82:53:1F:C2:EB:CC:D0:6E:83:72:57:E4:45:F2:74

            X509v3 Extended Key Usage: 
            TLS Web Server Authentication, TLS Web Client Authentication, Microsoft Server Gated Crypto, Netscape Server Gated Crypto
            X509v3 Basic Constraints: critical
            CA:FALSE
    Signature Algorithm: md5WithRSAEncryption
        21:6d:a8:43:19:8f:6c:cc:4c:f5:30:47:03:7f:14:11:75:fa:
        aa:0f:1e:5f:bb:91:34:e3:27:26:c0:86:86:6d:7c:77:04:12:
        9e:ea:70:0d:ed:0c:c3:db:48:6a:5c:0b:aa:42:02:80:22:01:
        7d:76:71:f8:72:a0:2e:4e:c1:e2:b1:af:a8:f5:7a:3f:c6:4b:
        cd:8f:6a:50:7d:7c:37:34:28:73:55:0c:a7:1c:b0:cb:45:7b:
        73:0f:94:72:ad:a2:2c:5f:6f:e2:67:93:48:e8:1f:37:3d:ed:
        9e:f5:42:1d:ac:8a:e8:90:bd:08:36:33:b4:7d:a6:22:ea:cd:
        b6:a7
-----BEGIN CERTIFICATE-----
MIIC0zCCAjygAwIBAgIBQDANBgkqhkiG9w0BAQQFADB9MQswCQYDVQQGEwJNWTEN
MAsGA1UECBMETUFIQTENMAsGA1UEBxMEUFVORTENMAsGA1UEChMEUFNQTDERMA8G
A1UECxMIT0JMSVgtUUExDzANBgNVBAMTBnBzMjQzNjEdMBsGCSqGSIb3DQEJARYO
c2FnYXJAcHNwbC5jb20wHhcNMDkwMTAxMDgxNTU2WhcNMTAwMTAxMDgxNTU2WjB5
MQswCQYDVQQGEwJJTjEUMBIGA1UECBMLbWFoYXJhc2h0cmExDTALBgNVBAcTBHB1
bmUxDDAKBgNVBAoTA3BzbDEQMA4GA1UECxMHb2JsaXhxYTElMCMGA1UEAxMcdi1w
czUxNjYtdjIucGVyc2lzdGVudC5jby5pbjCBnzANBgkqhkiG9w0BAQEFAAOBjQAw
gYkCgYEAosrPTfas99kTMSM6unyJ3xsSorYTemNBsh36N3unAfFDZ9MjaYbOn8YN
DDKNuurVnwohz7q0xshBYR3GmKXddhasnyRAMY/HH5uQ04qQTUa7wWhwW/gv9fAo
19Z33jX96LRNIkfUfhXXrGZhI7ueckex+5gtVohZggM0h2xf3a0CAwEAAaNnMGUw
HwYDVR0jBBgwFoAU2/hqFQqCUx/C68zQboNyV+RF8nQwNAYDVR0lBC0wKwYIKwYB
BQUHAwEGCCsGAQUFBwMCBgorBgEEAYI3CgMDBglghkgBhvhCBAEwDAYDVR0TAQH/
BAIwADANBgkqhkiG9w0BAQQFAAOBgQAhbahDGY9szEz1MEcDfxQRdfqqDx5fu5E0
4ycmwIaGbXx3BBKe6nAN7QzD20hqXAuqQgKAIgF9dnH4cqAuTsHisa+o9Xo/xkvN
j2pQfXw3NChzVQynHLDLRXtzD5RyraIsX2/iZ5NI6B83Pe2e9UIdrIrokL0INjO0
faYi6s22pw==
-----END CERTIFICATE-----
