Certificate:
    Data:
        Version: 3 (0x2)
        Serial Number: 67 (0x43)
        Signature Algorithm: md5WithRSAEncryption
        Issuer: C=MY, ST=MAHA, L=PUNE, O=PSPL, OU=OBLIX-QA, CN=ps2436/emailAddress=sagar@pspl.com
        Validity
            Not Before: Jan  2 09:28:26 2009 GMT
            Not After : Jan  2 09:28:26 2010 GMT
        Subject: C=US, ST=MAH, L=PUNE, O=PSPL, OU=OBLIX-QA, CN=ps2633
        Subject Public Key Info:
            Public Key Algorithm: rsaEncryption
            RSA Public Key: (1024 bit)
                Modulus (1024 bit):
                    00:93:4d:a4:55:8b:2d:c5:c8:a9:e2:ec:39:b3:31:
                    94:ca:d8:a9:8f:6d:0e:e4:f1:d8:f2:01:65:cf:c4:
                    72:38:47:01:7c:9c:b1:0f:a4:21:06:86:71:af:be:
                    c5:4b:a6:f5:ff:ca:63:97:5e:71:44:aa:b4:3d:cb:
                    d3:f7:d4:4d:f7:ea:7a:47:21:c1:76:df:85:42:21:
                    9a:e4:c1:96:4c:55:14:ec:d1:45:6a:27:85:8c:fc:
                    08:bc:84:a9:fd:0f:7c:eb:64:b6:c1:85:56:56:d9:
                    ea:f7:5c:f0:6e:3b:6c:73:9a:48:57:d0:67:c1:07:
                    63:4e:4d:0e:df:04:83:10:95
                Exponent: 65537 (0x10001)
        X509v3 extensions:
            X509v3 Authority Key Identifier: 
            keyid:DB:F8:6A:15:0A:82:53:1F:C2:EB:CC:D0:6E:83:72:57:E4:45:F2:74

            X509v3 Extended Key Usage: 
            TLS Web Server Authentication, TLS Web Client Authentication, Microsoft Server Gated Crypto, Netscape Server Gated Crypto
            X509v3 Basic Constraints: critical
            CA:FALSE
    Signature Algorithm: md5WithRSAEncryption
        45:0f:3d:f6:ab:70:85:ee:c3:9e:97:63:07:85:24:81:74:08:
        34:54:68:21:e2:7d:8f:02:40:e0:1c:fd:28:e0:f6:c4:83:40:
        09:14:84:e0:00:b9:bf:31:7c:1f:ef:16:01:50:b1:45:6a:a4:
        9b:1f:89:3b:cf:e4:03:0d:9c:87:5e:b8:78:36:07:d5:62:17:
        47:86:07:ce:c4:55:94:9d:a8:5e:06:58:58:f8:59:4d:7f:0d:
        15:f6:70:e4:20:ce:23:aa:08:23:4b:28:33:1e:01:d2:53:5b:
        b6:17:fe:41:f6:b5:81:4a:f7:ba:49:59:51:b2:3c:7a:87:e9:
        c1:5a
-----BEGIN CERTIFICATE-----
MIICtzCCAiCgAwIBAgIBQzANBgkqhkiG9w0BAQQFADB9MQswCQYDVQQGEwJNWTEN
MAsGA1UECBMETUFIQTENMAsGA1UEBxMEUFVORTENMAsGA1UEChMEUFNQTDERMA8G
A1UECxMIT0JMSVgtUUExDzANBgNVBAMTBnBzMjQzNjEdMBsGCSqGSIb3DQEJARYO
c2FnYXJAcHNwbC5jb20wHhcNMDkwMTAyMDkyODI2WhcNMTAwMTAyMDkyODI2WjBd
MQswCQYDVQQGEwJVUzEMMAoGA1UECBMDTUFIMQ0wCwYDVQQHEwRQVU5FMQ0wCwYD
VQQKEwRQU1BMMREwDwYDVQQLEwhPQkxJWC1RQTEPMA0GA1UEAxMGcHMyNjMzMIGf
MA0GCSqGSIb3DQEBAQUAA4GNADCBiQKBgQCTTaRViy3FyKni7DmzMZTK2KmPbQ7k
8djyAWXPxHI4RwF8nLEPpCEGhnGvvsVLpvX/ymOXXnFEqrQ9y9P31E336npHIcF2
34VCIZrkwZZMVRTs0UVqJ4WM/Ai8hKn9D3zrZLbBhVZW2er3XPBuO2xzmkhX0GfB
B2NOTQ7fBIMQlQIDAQABo2cwZTAfBgNVHSMEGDAWgBTb+GoVCoJTH8LrzNBug3JX
5EXydDA0BgNVHSUELTArBggrBgEFBQcDAQYIKwYBBQUHAwIGCisGAQQBgjcKAwMG
CWCGSAGG+EIEATAMBgNVHRMBAf8EAjAAMA0GCSqGSIb3DQEBBAUAA4GBAEUPPfar
cIXuw56XYweFJIF0CDRUaCHifY8CQOAc/Sjg9sSDQAkUhOAAub8xfB/vFgFQsUVq
pJsfiTvP5AMNnIdeuHg2B9ViF0eGB87EVZSdqF4GWFj4WU1/DRX2cOQgziOqCCNL
KDMeAdJTW7YX/kH2tYFK97pJWVGyPHqH6cFa
-----END CERTIFICATE-----
