Certificate:
    Data:
        Version: 3 (0x2)
        Serial Number: 70 (0x46)
        Signature Algorithm: md5WithRSAEncryption
        Issuer: C=MY, ST=MAHA, L=PUNE, O=PSPL, OU=OBLIX-QA, CN=ps2436/emailAddress=sagar@pspl.com
        Validity
            Not Before: Jan  7 06:51:41 2009 GMT
            Not After : Jan  7 06:51:41 2010 GMT
        Subject: C=In, ST=maha, L=Pune, O=Psl, OU=oblix, CN=ps2786
        Subject Public Key Info:
            Public Key Algorithm: rsaEncryption
            RSA Public Key: (1024 bit)
                Modulus (1024 bit):
                    00:c2:a2:14:f9:d3:11:aa:83:35:de:a1:05:ef:94:
                    6f:72:9f:41:39:ac:3a:d7:75:4b:ab:bf:55:8c:5f:
                    54:db:5a:96:a6:2e:e8:68:e1:c3:18:fc:74:9c:80:
                    1e:5b:47:4d:da:3f:a0:8f:d7:ae:0b:6e:6d:5b:b8:
                    62:38:83:97:c5:3b:1c:14:c6:89:40:b4:6b:a5:8a:
                    b3:09:30:82:fc:19:dd:af:1c:64:f2:ab:62:f4:e3:
                    2e:f2:9c:24:5f:16:2e:76:9a:57:b1:2f:29:0f:92:
                    3a:a4:80:42:71:7f:ee:c3:95:66:42:6c:c8:bb:75:
                    5c:6c:38:85:c7:81:5c:07:57
                Exponent: 65537 (0x10001)
        X509v3 extensions:
            X509v3 Authority Key Identifier: 
            keyid:DB:F8:6A:15:0A:82:53:1F:C2:EB:CC:D0:6E:83:72:57:E4:45:F2:74

            X509v3 Extended Key Usage: 
            TLS Web Server Authentication, TLS Web Client Authentication, Microsoft Server Gated Crypto, Netscape Server Gated Crypto
            X509v3 Basic Constraints: critical
            CA:FALSE
    Signature Algorithm: md5WithRSAEncryption
        a3:96:a3:e3:d3:a0:21:57:6c:c6:55:7c:dc:d6:e8:69:f3:4d:
        46:46:c6:7c:48:72:5e:68:19:16:ef:d4:ce:0c:e4:e0:a2:39:
        48:40:c3:1d:c0:d9:7e:e2:37:31:6e:0e:09:43:75:84:16:c5:
        a6:e3:24:02:df:64:7c:8b:22:bf:d8:70:3c:92:2b:b8:88:c6:
        94:52:18:f1:84:36:c0:a9:b6:90:eb:5a:98:b8:88:01:cb:f1:
        8a:b0:92:67:20:bc:f1:e7:31:f6:77:08:95:50:d9:94:c6:a3:
        2f:27:29:00:85:0c:e0:f5:95:aa:30:54:b9:50:ec:f4:e7:94:
        ed:a3
-----BEGIN CERTIFICATE-----
MIICtDCCAh2gAwIBAgIBRjANBgkqhkiG9w0BAQQFADB9MQswCQYDVQQGEwJNWTEN
MAsGA1UECBMETUFIQTENMAsGA1UEBxMEUFVORTENMAsGA1UEChMEUFNQTDERMA8G
A1UECxMIT0JMSVgtUUExDzANBgNVBAMTBnBzMjQzNjEdMBsGCSqGSIb3DQEJARYO
c2FnYXJAcHNwbC5jb20wHhcNMDkwMTA3MDY1MTQxWhcNMTAwMTA3MDY1MTQxWjBa
MQswCQYDVQQGEwJJbjENMAsGA1UECBMEbWFoYTENMAsGA1UEBxMEUHVuZTEMMAoG
A1UEChMDUHNsMQ4wDAYDVQQLEwVvYmxpeDEPMA0GA1UEAxMGcHMyNzg2MIGfMA0G
CSqGSIb3DQEBAQUAA4GNADCBiQKBgQDCohT50xGqgzXeoQXvlG9yn0E5rDrXdUur
v1WMX1TbWpamLuho4cMY/HScgB5bR03aP6CP164Lbm1buGI4g5fFOxwUxolAtGul
irMJMIL8Gd2vHGTyq2L04y7ynCRfFi52mlexLykPkjqkgEJxf+7DlWZCbMi7dVxs
OIXHgVwHVwIDAQABo2cwZTAfBgNVHSMEGDAWgBTb+GoVCoJTH8LrzNBug3JX5EXy
dDA0BgNVHSUELTArBggrBgEFBQcDAQYIKwYBBQUHAwIGCisGAQQBgjcKAwMGCWCG
SAGG+EIEATAMBgNVHRMBAf8EAjAAMA0GCSqGSIb3DQEBBAUAA4GBAKOWo+PToCFX
bMZVfNzW6GnzTUZGxnxIcl5oGRbv1M4M5OCiOUhAwx3A2X7iNzFuDglDdYQWxabj
JALfZHyLIr/YcDySK7iIxpRSGPGENsCptpDrWpi4iAHL8YqwkmcgvPHnMfZ3CJVQ
2ZTGoy8nKQCFDOD1laowVLlQ7PTnlO2j
-----END CERTIFICATE-----
