Certificate:
    Data:
        Version: 3 (0x2)
        Serial Number: 72 (0x48)
        Signature Algorithm: md5WithRSAEncryption
        Issuer: C=MY, ST=MAHA, L=PUNE, O=PSPL, OU=OBLIX-QA, CN=ps2436/emailAddress=sagar@pspl.com
        Validity
            Not Before: Jan  7 10:08:07 2009 GMT
            Not After : Jan  7 10:08:07 2010 GMT
        Subject: C=in, ST=maharashtra, L=pune, O=pspl, OU=oblix, CN=ps2786
        Subject Public Key Info:
            Public Key Algorithm: rsaEncryption
            RSA Public Key: (1024 bit)
                Modulus (1024 bit):
                    00:a8:50:a4:19:19:30:bc:62:89:9a:6c:b9:80:42:
                    bc:7a:b9:9c:7b:5c:75:70:63:41:4a:c8:c1:56:dc:
                    de:69:87:08:b8:92:1c:92:16:c0:9e:29:34:57:cc:
                    45:44:fd:e5:57:dc:17:84:d5:19:27:3b:d0:d9:af:
                    02:2a:b6:a6:01:c4:0e:53:51:2e:8a:9c:70:ca:3f:
                    a2:08:58:03:80:35:2f:d4:86:0e:18:7b:0c:13:ce:
                    0e:94:e5:69:b6:36:b5:7d:55:57:7f:97:77:2f:d9:
                    7b:78:f3:ce:9d:6e:b5:aa:66:1d:44:b8:75:06:4b:
                    0d:73:cf:bc:95:3f:bc:80:77
                Exponent: 65537 (0x10001)
        X509v3 extensions:
            X509v3 Authority Key Identifier: 
            keyid:DB:F8:6A:15:0A:82:53:1F:C2:EB:CC:D0:6E:83:72:57:E4:45:F2:74

            X509v3 Extended Key Usage: 
            TLS Web Server Authentication, TLS Web Client Authentication, Microsoft Server Gated Crypto, Netscape Server Gated Crypto
            X509v3 Basic Constraints: critical
            CA:FALSE
    Signature Algorithm: md5WithRSAEncryption
        33:79:29:12:3d:aa:f6:77:2d:71:51:e0:27:70:73:80:be:69:
        84:79:63:af:87:3a:5b:34:a3:42:f6:5a:cf:5f:a3:6e:59:55:
        3a:3a:7e:ed:7e:02:d1:54:db:3f:71:96:a4:77:11:de:b8:6e:
        88:d3:b2:ae:59:25:85:35:37:9b:20:1d:f4:1f:e7:9a:7e:8a:
        e1:2b:ce:77:a4:f7:9e:62:fc:b3:6d:a7:18:ee:34:94:c1:bc:
        e5:5f:dd:74:b1:6c:54:08:ff:a2:ee:ec:f3:01:62:2a:e3:ab:
        ed:7f:1d:20:93:ea:ac:b0:f0:34:9e:f5:3c:5f:04:8f:6d:3f:
        fd:d5
-----BEGIN CERTIFICATE-----
MIICvDCCAiWgAwIBAgIBSDANBgkqhkiG9w0BAQQFADB9MQswCQYDVQQGEwJNWTEN
MAsGA1UECBMETUFIQTENMAsGA1UEBxMEUFVORTENMAsGA1UEChMEUFNQTDERMA8G
A1UECxMIT0JMSVgtUUExDzANBgNVBAMTBnBzMjQzNjEdMBsGCSqGSIb3DQEJARYO
c2FnYXJAcHNwbC5jb20wHhcNMDkwMTA3MTAwODA3WhcNMTAwMTA3MTAwODA3WjBi
MQswCQYDVQQGEwJpbjEUMBIGA1UECBMLbWFoYXJhc2h0cmExDTALBgNVBAcTBHB1
bmUxDTALBgNVBAoTBHBzcGwxDjAMBgNVBAsTBW9ibGl4MQ8wDQYDVQQDEwZwczI3
ODYwgZ8wDQYJKoZIhvcNAQEBBQADgY0AMIGJAoGBAKhQpBkZMLxiiZpsuYBCvHq5
nHtcdXBjQUrIwVbc3mmHCLiSHJIWwJ4pNFfMRUT95VfcF4TVGSc70NmvAiq2pgHE
DlNRLoqccMo/oghYA4A1L9SGDhh7DBPODpTlabY2tX1VV3+Xdy/Ze3jzzp1utapm
HUS4dQZLDXPPvJU/vIB3AgMBAAGjZzBlMB8GA1UdIwQYMBaAFNv4ahUKglMfwuvM
0G6DclfkRfJ0MDQGA1UdJQQtMCsGCCsGAQUFBwMBBggrBgEFBQcDAgYKKwYBBAGC
NwoDAwYJYIZIAYb4QgQBMAwGA1UdEwEB/wQCMAAwDQYJKoZIhvcNAQEEBQADgYEA
M3kpEj2q9nctcVHgJ3BzgL5phHljr4c6WzSjQvZaz1+jbllVOjp+7X4C0VTbP3GW
pHcR3rhuiNOyrlklhTU3myAd9B/nmn6K4SvOd6T3nmL8s22nGO40lMG85V/ddLFs
VAj/ou7s8wFiKuOr7X8dIJPqrLDwNJ71PF8Ej20//dU=
-----END CERTIFICATE-----
