Certificate:
    Data:
        Version: 3 (0x2)
        Serial Number: 73 (0x49)
        Signature Algorithm: md5WithRSAEncryption
        Issuer: C=MY, ST=MAHA, L=PUNE, O=PSPL, OU=OBLIX-QA, CN=ps2436/emailAddress=sagar@pspl.com
        Validity
            Not Before: Jan  7 16:18:48 2009 GMT
            Not After : Jan  7 16:18:48 2010 GMT
        Subject: C=US, ST=California, L=Pune, O=PSL, OU=Oblix, CN=spork8.us.oracle.com
        Subject Public Key Info:
            Public Key Algorithm: rsaEncryption
            RSA Public Key: (1024 bit)
                Modulus (1024 bit):
                    00:a7:a6:86:62:d2:50:a1:19:8f:ac:72:b2:db:82:
                    d2:92:7b:48:0a:ad:91:d6:e4:2d:c5:8e:24:ca:e8:
                    4d:80:9c:ae:2a:1c:31:0f:7d:b0:5f:6b:e3:95:04:
                    db:1d:02:6a:ce:fd:29:f9:3d:f2:38:fa:e0:25:3f:
                    14:37:33:4c:c4:30:8d:c2:05:a7:bd:7b:75:fd:7a:
                    b8:cc:b4:0d:48:9c:98:fc:8d:54:40:96:a4:38:24:
                    86:29:06:96:e3:84:18:ca:be:45:b1:be:15:eb:e5:
                    af:74:82:a0:5a:26:1d:bd:af:f2:93:7b:ab:f2:28:
                    79:df:03:57:ad:28:6c:c3:49
                Exponent: 65537 (0x10001)
        X509v3 extensions:
            X509v3 Authority Key Identifier: 
            keyid:DB:F8:6A:15:0A:82:53:1F:C2:EB:CC:D0:6E:83:72:57:E4:45:F2:74

            X509v3 Extended Key Usage: 
            TLS Web Server Authentication, TLS Web Client Authentication, Microsoft Server Gated Crypto, Netscape Server Gated Crypto
            X509v3 Basic Constraints: critical
            CA:FALSE
    Signature Algorithm: md5WithRSAEncryption
        48:d8:85:69:a0:aa:62:f6:25:bf:08:f9:2c:e8:c8:44:60:5f:
        1c:65:ac:9d:2f:0c:6d:ce:c8:e0:bf:28:f2:20:19:1b:1d:54:
        76:a3:68:a2:2d:d6:17:f8:a4:9b:20:4c:30:a0:64:78:1b:94:
        c7:31:a6:58:bf:a5:be:f4:8f:da:a4:39:38:d5:97:49:a5:3e:
        de:4a:b8:f0:9d:03:b3:c8:18:a7:c1:3b:e9:63:68:71:6b:c3:
        a1:79:7d:0c:17:b9:b0:61:d5:4f:71:a3:27:90:fd:04:93:96:
        bd:46:87:ef:5a:2f:d9:38:45:c1:d7:b9:ed:b6:61:1c:b6:62:
        6b:fb
-----BEGIN CERTIFICATE-----
MIICyDCCAjGgAwIBAgIBSTANBgkqhkiG9w0BAQQFADB9MQswCQYDVQQGEwJNWTEN
MAsGA1UECBMETUFIQTENMAsGA1UEBxMEUFVORTENMAsGA1UEChMEUFNQTDERMA8G
A1UECxMIT0JMSVgtUUExDzANBgNVBAMTBnBzMjQzNjEdMBsGCSqGSIb3DQEJARYO
c2FnYXJAcHNwbC5jb20wHhcNMDkwMTA3MTYxODQ4WhcNMTAwMTA3MTYxODQ4WjBu
MQswCQYDVQQGEwJVUzETMBEGA1UECBMKQ2FsaWZvcm5pYTENMAsGA1UEBxMEUHVu
ZTEMMAoGA1UEChMDUFNMMQ4wDAYDVQQLEwVPYmxpeDEdMBsGA1UEAxMUc3Bvcms4
LnVzLm9yYWNsZS5jb20wgZ8wDQYJKoZIhvcNAQEBBQADgY0AMIGJAoGBAKemhmLS
UKEZj6xystuC0pJ7SAqtkdbkLcWOJMroTYCcriocMQ99sF9r45UE2x0Cas79Kfk9
8jj64CU/FDczTMQwjcIFp717df16uMy0DUicmPyNVECWpDgkhikGluOEGMq+RbG+
Fevlr3SCoFomHb2v8pN7q/Ioed8DV60obMNJAgMBAAGjZzBlMB8GA1UdIwQYMBaA
FNv4ahUKglMfwuvM0G6DclfkRfJ0MDQGA1UdJQQtMCsGCCsGAQUFBwMBBggrBgEF
BQcDAgYKKwYBBAGCNwoDAwYJYIZIAYb4QgQBMAwGA1UdEwEB/wQCMAAwDQYJKoZI
hvcNAQEEBQADgYEASNiFaaCqYvYlvwj5LOjIRGBfHGWsnS8Mbc7I4L8o8iAZGx1U
dqNooi3WF/ikmyBMMKBkeBuUxzGmWL+lvvSP2qQ5ONWXSaU+3kq48J0Ds8gYp8E7
6WNocWvDoXl9DBe5sGHVT3GjJ5D9BJOWvUaH71ov2ThFwde57bZhHLZia/s=
-----END CERTIFICATE-----
