Certificate:
    Data:
        Version: 3 (0x2)
        Serial Number: 74 (0x4a)
        Signature Algorithm: md5WithRSAEncryption
        Issuer: C=MY, ST=MAHA, L=PUNE, O=PSPL, OU=OBLIX-QA, CN=ps2436/emailAddress=sagar@pspl.com
        Validity
            Not Before: Jan  8 06:24:44 2009 GMT
            Not After : Jan  8 06:24:45 2010 GMT
        Subject: C=US, ST=California, L=somecity, O=oracle, OU=oblix, CN=spork8.us.oracle.com
        Subject Public Key Info:
            Public Key Algorithm: rsaEncryption
            RSA Public Key: (1024 bit)
                Modulus (1024 bit):
                    00:ab:98:84:75:06:63:b9:0f:c1:79:18:c7:44:7c:
                    64:5e:fa:92:04:e3:74:70:02:40:91:19:f3:b3:46:
                    dd:ea:0e:5d:e0:cc:3b:3f:46:b7:f6:e0:6c:7a:56:
                    ba:f0:c5:7a:29:bb:4a:f8:eb:e7:53:02:e4:a7:bc:
                    ca:b1:2f:c5:f6:0e:ea:ed:0b:e7:76:fb:e6:0d:46:
                    b5:66:8a:d1:e3:39:34:93:48:db:1f:7b:d6:03:b1:
                    5d:f1:73:df:ae:ab:21:18:5b:1a:cd:9a:da:f1:bd:
                    3e:19:69:ab:6e:d4:1e:6c:23:79:56:66:f3:4a:7c:
                    50:25:5e:c2:02:23:d5:89:67
                Exponent: 65537 (0x10001)
        X509v3 extensions:
            X509v3 Authority Key Identifier: 
            keyid:DB:F8:6A:15:0A:82:53:1F:C2:EB:CC:D0:6E:83:72:57:E4:45:F2:74

            X509v3 Extended Key Usage: 
            TLS Web Server Authentication, TLS Web Client Authentication, Microsoft Server Gated Crypto, Netscape Server Gated Crypto
            X509v3 Basic Constraints: critical
            CA:FALSE
    Signature Algorithm: md5WithRSAEncryption
        94:28:ae:2b:50:50:01:a7:4e:b0:55:3b:fe:99:43:7b:4b:fb:
        cf:74:de:10:05:52:0d:e9:1f:a4:56:76:fe:f7:43:bf:1e:12:
        1a:78:58:52:78:04:dc:62:23:dc:26:d4:3a:d4:94:9a:41:fe:
        3d:0e:2a:9e:57:de:60:d5:62:14:41:87:a6:93:3a:08:34:73:
        3c:80:e3:bb:04:57:95:64:ed:2e:9d:38:c9:7e:3d:cd:5c:0e:
        69:b0:4e:47:46:f8:12:47:f9:ca:d9:5e:15:a0:a0:3d:3a:b2:
        1e:d0:75:ab:d9:e4:82:64:c1:a4:2a:5b:dd:81:b8:99:0d:82:
        6e:4e
-----BEGIN CERTIFICATE-----
MIICzzCCAjigAwIBAgIBSjANBgkqhkiG9w0BAQQFADB9MQswCQYDVQQGEwJNWTEN
MAsGA1UECBMETUFIQTENMAsGA1UEBxMEUFVORTENMAsGA1UEChMEUFNQTDERMA8G
A1UECxMIT0JMSVgtUUExDzANBgNVBAMTBnBzMjQzNjEdMBsGCSqGSIb3DQEJARYO
c2FnYXJAcHNwbC5jb20wHhcNMDkwMTA4MDYyNDQ0WhcNMTAwMTA4MDYyNDQ1WjB1
MQswCQYDVQQGEwJVUzETMBEGA1UECBMKQ2FsaWZvcm5pYTERMA8GA1UEBxMIc29t
ZWNpdHkxDzANBgNVBAoTBm9yYWNsZTEOMAwGA1UECxMFb2JsaXgxHTAbBgNVBAMT
FHNwb3JrOC51cy5vcmFjbGUuY29tMIGfMA0GCSqGSIb3DQEBAQUAA4GNADCBiQKB
gQCrmIR1BmO5D8F5GMdEfGRe+pIE43RwAkCRGfOzRt3qDl3gzDs/Rrf24Gx6Vrrw
xXopu0r46+dTAuSnvMqxL8X2DurtC+d2++YNRrVmitHjOTSTSNsfe9YDsV3xc9+u
qyEYWxrNmtrxvT4Zaatu1B5sI3lWZvNKfFAlXsICI9WJZwIDAQABo2cwZTAfBgNV
HSMEGDAWgBTb+GoVCoJTH8LrzNBug3JX5EXydDA0BgNVHSUELTArBggrBgEFBQcD
AQYIKwYBBQUHAwIGCisGAQQBgjcKAwMGCWCGSAGG+EIEATAMBgNVHRMBAf8EAjAA
MA0GCSqGSIb3DQEBBAUAA4GBAJQoritQUAGnTrBVO/6ZQ3tL+8903hAFUg3pH6RW
dv73Q78eEhp4WFJ4BNxiI9wm1DrUlJpB/j0OKp5X3mDVYhRBh6aTOgg0czyA47sE
V5Vk7S6dOMl+Pc1cDmmwTkdG+BJH+crZXhWgoD06sh7QdavZ5IJkwaQqW92BuJkN
gm5O
-----END CERTIFICATE-----
