Certificate:
    Data:
        Version: 3 (0x2)
        Serial Number: 76 (0x4c)
        Signature Algorithm: md5WithRSAEncryption
        Issuer: C=MY, ST=MAHA, L=PUNE, O=PSPL, OU=OBLIX-QA, CN=ps2436/emailAddress=sagar@pspl.com
        Validity
            Not Before: Jan  9 11:37:50 2009 GMT
            Not After : Jan  9 11:37:50 2010 GMT
        Subject: C=in, ST=maha, L=pune, O=pspl12, OU=oblix12, CN=ps6505
        Subject Public Key Info:
            Public Key Algorithm: rsaEncryption
            RSA Public Key: (1024 bit)
                Modulus (1024 bit):
                    00:b6:65:46:9f:5f:70:b9:7a:76:f7:fe:2b:46:6a:
                    35:0d:43:05:5e:5a:70:c4:16:a3:97:9d:84:61:3f:
                    a9:da:dc:1f:db:98:e5:73:b5:80:a0:7e:6a:03:bd:
                    2e:63:df:d9:d5:70:28:81:8a:91:98:47:b2:2d:79:
                    b9:53:fb:61:95:f0:c4:f6:12:b6:6f:8a:1b:13:32:
                    50:a5:2c:49:a2:38:4b:3d:db:32:6a:4e:90:1c:e3:
                    7e:52:8d:19:27:0f:c4:9f:7a:fa:74:43:c5:85:05:
                    21:34:c8:87:f2:da:1e:02:55:ff:06:47:2f:59:42:
                    f1:dd:3f:3e:57:d0:77:72:29
                Exponent: 65537 (0x10001)
        X509v3 extensions:
            X509v3 Authority Key Identifier: 
            keyid:DB:F8:6A:15:0A:82:53:1F:C2:EB:CC:D0:6E:83:72:57:E4:45:F2:74

            X509v3 Extended Key Usage: 
            TLS Web Server Authentication, TLS Web Client Authentication, Microsoft Server Gated Crypto, Netscape Server Gated Crypto
            X509v3 Basic Constraints: critical
            CA:FALSE
    Signature Algorithm: md5WithRSAEncryption
        5d:37:2e:f4:f7:ac:c7:4a:f4:2a:0c:66:8c:e5:9d:d5:37:3d:
        e5:5f:d9:76:b9:e6:c9:11:39:ea:42:f2:fd:d4:d0:b9:84:0f:
        c1:ae:17:22:a0:7e:dc:d1:03:5b:58:00:18:40:b7:ce:04:f5:
        01:60:3c:51:65:0a:27:49:d1:b0:d0:d5:2f:03:06:ab:7a:43:
        27:2c:4f:82:df:2c:32:b0:fc:34:b9:60:45:e2:db:df:24:3e:
        06:2e:3f:9e:0e:38:c7:c0:25:e6:b3:99:76:eb:1f:84:f0:b4:
        ba:d6:7d:ee:14:63:55:47:43:72:91:e5:bb:59:af:07:f1:c3:
        ae:c2
-----BEGIN CERTIFICATE-----
MIICuTCCAiKgAwIBAgIBTDANBgkqhkiG9w0BAQQFADB9MQswCQYDVQQGEwJNWTEN
MAsGA1UECBMETUFIQTENMAsGA1UEBxMEUFVORTENMAsGA1UEChMEUFNQTDERMA8G
A1UECxMIT0JMSVgtUUExDzANBgNVBAMTBnBzMjQzNjEdMBsGCSqGSIb3DQEJARYO
c2FnYXJAcHNwbC5jb20wHhcNMDkwMTA5MTEzNzUwWhcNMTAwMTA5MTEzNzUwWjBf
MQswCQYDVQQGEwJpbjENMAsGA1UECBMEbWFoYTENMAsGA1UEBxMEcHVuZTEPMA0G
A1UEChMGcHNwbDEyMRAwDgYDVQQLEwdvYmxpeDEyMQ8wDQYDVQQDEwZwczY1MDUw
gZ8wDQYJKoZIhvcNAQEBBQADgY0AMIGJAoGBALZlRp9fcLl6dvf+K0ZqNQ1DBV5a
cMQWo5edhGE/qdrcH9uY5XO1gKB+agO9LmPf2dVwKIGKkZhHsi15uVP7YZXwxPYS
tm+KGxMyUKUsSaI4Sz3bMmpOkBzjflKNGScPxJ96+nRDxYUFITTIh/LaHgJV/wZH
L1lC8d0/PlfQd3IpAgMBAAGjZzBlMB8GA1UdIwQYMBaAFNv4ahUKglMfwuvM0G6D
clfkRfJ0MDQGA1UdJQQtMCsGCCsGAQUFBwMBBggrBgEFBQcDAgYKKwYBBAGCNwoD
AwYJYIZIAYb4QgQBMAwGA1UdEwEB/wQCMAAwDQYJKoZIhvcNAQEEBQADgYEAXTcu
9Pesx0r0KgxmjOWd1Tc95V/ZdrnmyRE56kLy/dTQuYQPwa4XIqB+3NEDW1gAGEC3
zgT1AWA8UWUKJ0nRsNDVLwMGq3pDJyxPgt8sMrD8NLlgReLb3yQ+Bi4/ng44x8Al
5rOZdusfhPC0utZ97hRjVUdDcpHlu1mvB/HDrsI=
-----END CERTIFICATE-----
