Certificate:
    Data:
        Version: 3 (0x2)
        Serial Number: 78 (0x4e)
        Signature Algorithm: md5WithRSAEncryption
        Issuer: C=MY, ST=MAHA, L=PUNE, O=PSPL, OU=OBLIX-QA, CN=ps2436/emailAddress=sagar@pspl.com
        Validity
            Not Before: Jan 12 12:42:19 2009 GMT
            Not After : Jan 12 12:42:19 2010 GMT
        Subject: C=IN, ST=maharashtra, L=punee, O=psl, OU=oblixqa, CN=v-ps5166-v2.persistent.co.in
        Subject Public Key Info:
            Public Key Algorithm: rsaEncryption
            RSA Public Key: (1024 bit)
                Modulus (1024 bit):
                    00:c4:a5:58:7c:59:a1:c1:6c:ab:e7:20:68:91:24:
                    86:87:21:da:09:c3:8f:6d:88:1d:f4:21:51:74:c1:
                    69:79:a2:8f:09:02:01:5a:d9:65:41:5f:6b:d4:df:
                    81:96:58:2d:99:43:93:4e:d3:74:09:0f:32:61:e9:
                    d5:84:fb:06:84:a2:30:71:c6:0b:db:72:6a:24:a1:
                    c6:82:4f:71:62:cf:32:9c:c7:6d:d2:cb:a1:53:2e:
                    ef:e1:17:4c:30:07:80:d2:60:62:bc:c7:59:87:66:
                    25:ff:32:84:18:5d:97:09:e6:bf:ea:d1:f8:58:79:
                    12:54:63:b2:1b:12:80:5a:3b
                Exponent: 65537 (0x10001)
        X509v3 extensions:
            X509v3 Authority Key Identifier: 
            keyid:DB:F8:6A:15:0A:82:53:1F:C2:EB:CC:D0:6E:83:72:57:E4:45:F2:74

            X509v3 Extended Key Usage: 
            TLS Web Server Authentication, TLS Web Client Authentication, Microsoft Server Gated Crypto, Netscape Server Gated Crypto
            X509v3 Basic Constraints: critical
            CA:FALSE
    Signature Algorithm: md5WithRSAEncryption
        3d:27:93:fa:1e:70:a4:f5:dc:99:04:8c:5f:72:cd:59:05:e2:
        b5:5d:41:da:0d:ef:64:59:83:bb:2f:96:22:d9:a6:79:27:64:
        2b:f8:c2:d3:3a:b8:0a:f2:09:85:c5:2d:8e:4f:0c:5c:da:a7:
        14:34:9c:d6:28:d3:44:d1:e6:4d:ec:08:1e:6a:1d:3a:34:5b:
        3c:a9:30:d8:b4:7c:a2:f7:0e:79:d2:d9:7a:91:a2:19:72:c1:
        0a:0c:4a:da:b2:81:f0:d8:52:b4:71:b8:91:7e:eb:6b:01:7f:
        69:44:61:9b:3e:39:be:c1:4a:18:70:e4:56:a2:01:a9:63:ad:
        af:1e
-----BEGIN CERTIFICATE-----
MIIC1DCCAj2gAwIBAgIBTjANBgkqhkiG9w0BAQQFADB9MQswCQYDVQQGEwJNWTEN
MAsGA1UECBMETUFIQTENMAsGA1UEBxMEUFVORTENMAsGA1UEChMEUFNQTDERMA8G
A1UECxMIT0JMSVgtUUExDzANBgNVBAMTBnBzMjQzNjEdMBsGCSqGSIb3DQEJARYO
c2FnYXJAcHNwbC5jb20wHhcNMDkwMTEyMTI0MjE5WhcNMTAwMTEyMTI0MjE5WjB6
MQswCQYDVQQGEwJJTjEUMBIGA1UECBMLbWFoYXJhc2h0cmExDjAMBgNVBAcTBXB1
bmVlMQwwCgYDVQQKEwNwc2wxEDAOBgNVBAsTB29ibGl4cWExJTAjBgNVBAMTHHYt
cHM1MTY2LXYyLnBlcnNpc3RlbnQuY28uaW4wgZ8wDQYJKoZIhvcNAQEBBQADgY0A
MIGJAoGBAMSlWHxZocFsq+cgaJEkhoch2gnDj22IHfQhUXTBaXmijwkCAVrZZUFf
a9TfgZZYLZlDk07TdAkPMmHp1YT7BoSiMHHGC9tyaiShxoJPcWLPMpzHbdLLoVMu
7+EXTDAHgNJgYrzHWYdmJf8yhBhdlwnmv+rR+Fh5ElRjshsSgFo7AgMBAAGjZzBl
MB8GA1UdIwQYMBaAFNv4ahUKglMfwuvM0G6DclfkRfJ0MDQGA1UdJQQtMCsGCCsG
AQUFBwMBBggrBgEFBQcDAgYKKwYBBAGCNwoDAwYJYIZIAYb4QgQBMAwGA1UdEwEB
/wQCMAAwDQYJKoZIhvcNAQEEBQADgYEAPSeT+h5wpPXcmQSMX3LNWQXitV1B2g3v
ZFmDuy+WItmmeSdkK/jC0zq4CvIJhcUtjk8MXNqnFDSc1ijTRNHmTewIHmodOjRb
PKkw2LR8ovcOedLZepGiGXLBCgxK2rKB8NhStHG4kX7rawF/aURhmz45vsFKGHDk
VqIBqWOtrx4=
-----END CERTIFICATE-----
