Certificate:
    Data:
        Version: 3 (0x2)
        Serial Number: 79 (0x4f)
        Signature Algorithm: md5WithRSAEncryption
        Issuer: C=MY, ST=MAHA, L=PUNE, O=PSPL, OU=OBLIX-QA, CN=ps2436/emailAddress=sagar@pspl.com
        Validity
            Not Before: Jan 14 10:19:52 2009 GMT
            Not After : Jan 14 10:19:52 2010 GMT
        Subject: C=IN, ST=MH, L=Pune, O=PSL, OU=Oblix, CN=kangra.persistent.co.in/emailAddress=kangra@psl.com
        Subject Public Key Info:
            Public Key Algorithm: rsaEncryption
            RSA Public Key: (1024 bit)
                Modulus (1024 bit):
                    00:a3:45:7e:1b:70:d2:31:92:1f:25:5d:ca:23:9a:
                    72:fc:22:d7:40:72:c7:50:98:ff:9d:23:d7:96:cc:
                    ae:f8:53:96:75:6d:45:74:bb:9a:8b:f9:31:d3:f7:
                    20:85:a5:c7:d4:e9:4c:62:30:38:43:1a:2b:86:4a:
                    fd:b5:fb:f1:7d:d5:45:29:f2:5e:94:fd:e9:5a:1d:
                    cb:09:46:52:bd:4b:fe:cd:b4:5d:55:a6:85:8d:6b:
                    fc:a7:4b:01:33:cc:96:a9:98:30:c6:bd:ec:38:71:
                    58:4d:9e:89:33:23:21:f6:85:7b:2b:3b:95:23:e2:
                    5e:0b:2c:8a:e1:85:03:18:dd
                Exponent: 65537 (0x10001)
        X509v3 extensions:
            X509v3 Authority Key Identifier: 
            keyid:DB:F8:6A:15:0A:82:53:1F:C2:EB:CC:D0:6E:83:72:57:E4:45:F2:74

            X509v3 Extended Key Usage: 
            TLS Web Server Authentication, TLS Web Client Authentication, Microsoft Server Gated Crypto, Netscape Server Gated Crypto
            X509v3 Basic Constraints: critical
            CA:FALSE
    Signature Algorithm: md5WithRSAEncryption
        90:5f:b5:89:25:3b:16:43:2b:83:62:d6:e2:54:6f:1b:a6:d8:
        e2:8c:96:92:d4:b2:43:3d:90:51:26:28:31:d9:33:c0:eb:c7:
        bf:a7:9d:f1:5e:a9:f5:fb:a9:3f:08:65:69:1c:74:a3:ab:72:
        db:12:91:ce:6c:88:ae:96:58:2e:7e:96:01:64:61:87:c2:ed:
        e1:b5:0a:6c:e7:3d:e4:75:72:38:07:be:b5:bc:58:07:50:8c:
        93:a8:a2:6f:85:ae:1d:48:cf:01:7a:0b:b0:a8:fc:9e:ce:41:
        47:ce:d1:64:6c:69:12:a1:fe:c7:66:4a:28:bb:ec:89:05:97:
        20:3c
-----BEGIN CERTIFICATE-----
MIIC4zCCAkygAwIBAgIBTzANBgkqhkiG9w0BAQQFADB9MQswCQYDVQQGEwJNWTEN
MAsGA1UECBMETUFIQTENMAsGA1UEBxMEUFVORTENMAsGA1UEChMEUFNQTDERMA8G
A1UECxMIT0JMSVgtUUExDzANBgNVBAMTBnBzMjQzNjEdMBsGCSqGSIb3DQEJARYO
c2FnYXJAcHNwbC5jb20wHhcNMDkwMTE0MTAxOTUyWhcNMTAwMTE0MTAxOTUyWjCB
iDELMAkGA1UEBhMCSU4xCzAJBgNVBAgTAk1IMQ0wCwYDVQQHEwRQdW5lMQwwCgYD
VQQKEwNQU0wxDjAMBgNVBAsTBU9ibGl4MSAwHgYDVQQDExdrYW5ncmEucGVyc2lz
dGVudC5jby5pbjEdMBsGCSqGSIb3DQEJARYOa2FuZ3JhQHBzbC5jb20wgZ8wDQYJ
KoZIhvcNAQEBBQADgY0AMIGJAoGBAKNFfhtw0jGSHyVdyiOacvwi10Byx1CY/50j
15bMrvhTlnVtRXS7mov5MdP3IIWlx9TpTGIwOEMaK4ZK/bX78X3VRSnyXpT96Vod
ywlGUr1L/s20XVWmhY1r/KdLATPMlqmYMMa97DhxWE2eiTMjIfaFeys7lSPiXgss
iuGFAxjdAgMBAAGjZzBlMB8GA1UdIwQYMBaAFNv4ahUKglMfwuvM0G6DclfkRfJ0
MDQGA1UdJQQtMCsGCCsGAQUFBwMBBggrBgEFBQcDAgYKKwYBBAGCNwoDAwYJYIZI
AYb4QgQBMAwGA1UdEwEB/wQCMAAwDQYJKoZIhvcNAQEEBQADgYEAkF+1iSU7FkMr
g2LW4lRvG6bY4oyWktSyQz2QUSYoMdkzwOvHv6ed8V6p9fupPwhlaRx0o6ty2xKR
zmyIrpZYLn6WAWRhh8Lt4bUKbOc95HVyOAe+tbxYB1CMk6iib4WuHUjPAXoLsKj8
ns5BR87RZGxpEqH+x2ZKKLvsiQWXIDw=
-----END CERTIFICATE-----
