Certificate:
    Data:
        Version: 3 (0x2)
        Serial Number: 83 (0x53)
        Signature Algorithm: md5WithRSAEncryption
        Issuer: C=MY, ST=MAHA, L=PUNE, O=PSPL, OU=OBLIX-QA, CN=ps2436/emailAddress=sagar@pspl.com
        Validity
            Not Before: Jan 15 14:08:08 2009 GMT
            Not After : Jan 15 14:08:08 2010 GMT
        Subject: C=in, ST=Maha, L=Pune, O=Psl, OU=Oblix, CN=ps2633
        Subject Public Key Info:
            Public Key Algorithm: rsaEncryption
            RSA Public Key: (1024 bit)
                Modulus (1024 bit):
                    00:ed:10:9b:cc:36:a6:00:da:40:ab:5e:85:70:90:
                    76:40:94:5f:b2:4c:36:a5:54:ac:98:75:43:90:af:
                    65:8c:a0:65:6d:87:73:f9:c8:a9:6e:4e:df:5a:57:
                    f6:5d:47:8c:ac:48:28:a7:2f:c3:bf:cb:6c:af:f3:
                    a5:4e:ca:3f:0e:54:28:c1:ba:e5:d4:cc:75:ef:21:
                    80:f7:60:90:0a:ed:80:a4:2b:b5:b6:f7:9d:16:04:
                    78:28:9a:ae:9c:87:1c:d9:07:9e:57:ef:fa:c6:f3:
                    75:ca:1f:6f:12:0c:47:84:55:a9:fd:73:87:1d:80:
                    05:6f:57:c5:8f:b9:b2:74:59
                Exponent: 65537 (0x10001)
        X509v3 extensions:
            X509v3 Authority Key Identifier: 
            keyid:DB:F8:6A:15:0A:82:53:1F:C2:EB:CC:D0:6E:83:72:57:E4:45:F2:74

            X509v3 Extended Key Usage: 
            TLS Web Server Authentication, TLS Web Client Authentication, Microsoft Server Gated Crypto, Netscape Server Gated Crypto
            X509v3 Basic Constraints: critical
            CA:FALSE
    Signature Algorithm: md5WithRSAEncryption
        96:42:52:97:00:6b:c6:97:d9:f1:67:9f:5a:71:9f:df:cb:f7:
        3a:56:93:d3:06:e2:55:56:ae:f0:16:9d:10:4a:e2:7d:75:64:
        59:2a:7e:59:bf:4c:23:99:11:67:2a:f4:9f:c7:9a:15:ca:50:
        b0:3f:98:33:22:a7:e2:f0:fc:ad:1c:8e:3b:18:fa:de:c0:01:
        53:7e:67:3f:81:f9:b5:9c:a3:61:9c:50:3e:94:80:b4:31:c6:
        3b:04:95:84:13:87:22:e0:c1:8c:d6:cd:2a:bc:94:05:0a:41:
        51:ce:e7:31:b4:48:9c:10:8a:b6:d8:9c:e0:67:91:21:a5:8c:
        40:2b
-----BEGIN CERTIFICATE-----
MIICtDCCAh2gAwIBAgIBUzANBgkqhkiG9w0BAQQFADB9MQswCQYDVQQGEwJNWTEN
MAsGA1UECBMETUFIQTENMAsGA1UEBxMEUFVORTENMAsGA1UEChMEUFNQTDERMA8G
A1UECxMIT0JMSVgtUUExDzANBgNVBAMTBnBzMjQzNjEdMBsGCSqGSIb3DQEJARYO
c2FnYXJAcHNwbC5jb20wHhcNMDkwMTE1MTQwODA4WhcNMTAwMTE1MTQwODA4WjBa
MQswCQYDVQQGEwJpbjENMAsGA1UECBMETWFoYTENMAsGA1UEBxMEUHVuZTEMMAoG
A1UEChMDUHNsMQ4wDAYDVQQLEwVPYmxpeDEPMA0GA1UEAxMGcHMyNjMzMIGfMA0G
CSqGSIb3DQEBAQUAA4GNADCBiQKBgQDtEJvMNqYA2kCrXoVwkHZAlF+yTDalVKyY
dUOQr2WMoGVth3P5yKluTt9aV/ZdR4ysSCinL8O/y2yv86VOyj8OVCjBuuXUzHXv
IYD3YJAK7YCkK7W2950WBHgomq6chxzZB55X7/rG83XKH28SDEeEVan9c4cdgAVv
V8WPubJ0WQIDAQABo2cwZTAfBgNVHSMEGDAWgBTb+GoVCoJTH8LrzNBug3JX5EXy
dDA0BgNVHSUELTArBggrBgEFBQcDAQYIKwYBBQUHAwIGCisGAQQBgjcKAwMGCWCG
SAGG+EIEATAMBgNVHRMBAf8EAjAAMA0GCSqGSIb3DQEBBAUAA4GBAJZCUpcAa8aX
2fFnn1pxn9/L9zpWk9MG4lVWrvAWnRBK4n11ZFkqflm/TCOZEWcq9J/HmhXKULA/
mDMip+Lw/K0cjjsY+t7AAVN+Zz+B+bWco2GcUD6UgLQxxjsElYQThyLgwYzWzSq8
lAUKQVHO5zG0SJwQirbYnOBnkSGljEAr
-----END CERTIFICATE-----
