Certificate:
    Data:
        Version: 3 (0x2)
        Serial Number: 88 (0x58)
        Signature Algorithm: md5WithRSAEncryption
        Issuer: C=MY, ST=MAHA, L=PUNE, O=PSPL, OU=OBLIX-QA, CN=ps2436/emailAddress=sagar@pspl.com
        Validity
            Not Before: Jan 23 05:58:49 2009 GMT
            Not After : Jan 23 05:58:49 2010 GMT
        Subject: C=IN, ST=Maharashtra, L=Pune, O=PSL, OU=Oblix, CN=tungsten.us.oracle.com
        Subject Public Key Info:
            Public Key Algorithm: rsaEncryption
            RSA Public Key: (1024 bit)
                Modulus (1024 bit):
                    00:ea:e5:c6:e0:fa:f9:31:7f:27:49:e4:25:1f:1d:
                    4b:32:bb:ef:d9:ea:7e:c3:9f:ba:52:2b:c1:6c:e3:
                    1e:ce:3f:33:85:69:9c:91:75:6c:b7:c9:88:05:56:
                    d9:d2:71:9a:42:42:3b:a5:60:65:6b:1e:42:a6:df:
                    60:c2:a6:99:1e:16:69:6c:5a:dd:96:22:fc:3d:c0:
                    49:1a:85:ff:a0:da:4f:f0:e7:aa:41:25:d7:8c:4c:
                    cd:7d:7f:99:ca:b9:95:2f:de:ad:45:28:de:43:e1:
                    58:30:59:e1:15:f1:67:82:8f:e2:61:0b:5b:b8:f0:
                    96:0c:56:a8:2b:86:43:9f:ff
                Exponent: 65537 (0x10001)
        X509v3 extensions:
            X509v3 Authority Key Identifier: 
            keyid:DB:F8:6A:15:0A:82:53:1F:C2:EB:CC:D0:6E:83:72:57:E4:45:F2:74

            X509v3 Extended Key Usage: 
            TLS Web Server Authentication, TLS Web Client Authentication, Microsoft Server Gated Crypto, Netscape Server Gated Crypto
            X509v3 Basic Constraints: critical
            CA:FALSE
    Signature Algorithm: md5WithRSAEncryption
        b6:e5:ff:fd:ef:01:a6:87:e6:6f:52:da:03:9f:04:72:eb:bf:
        92:e3:9e:a0:ab:ae:16:c8:7f:07:6b:8c:20:5c:74:2f:61:a8:
        8f:47:78:f6:37:3a:55:11:07:ed:31:7d:ab:c1:e3:80:6a:33:
        2e:bc:75:95:af:b7:0f:30:7c:97:58:f4:ce:e1:12:ae:92:73:
        2c:ca:34:a2:a9:a6:77:62:ef:70:86:05:19:76:e1:89:3c:d7:
        f0:18:25:dc:cf:dd:95:22:58:f3:b8:ee:01:73:8b:06:63:8b:
        c7:b0:75:c3:cf:e6:4c:39:08:c2:e7:1c:1a:d4:e7:26:a2:59:
        75:8b
-----BEGIN CERTIFICATE-----
MIICyzCCAjSgAwIBAgIBWDANBgkqhkiG9w0BAQQFADB9MQswCQYDVQQGEwJNWTEN
MAsGA1UECBMETUFIQTENMAsGA1UEBxMEUFVORTENMAsGA1UEChMEUFNQTDERMA8G
A1UECxMIT0JMSVgtUUExDzANBgNVBAMTBnBzMjQzNjEdMBsGCSqGSIb3DQEJARYO
c2FnYXJAcHNwbC5jb20wHhcNMDkwMTIzMDU1ODQ5WhcNMTAwMTIzMDU1ODQ5WjBx
MQswCQYDVQQGEwJJTjEUMBIGA1UECBMLTWFoYXJhc2h0cmExDTALBgNVBAcTBFB1
bmUxDDAKBgNVBAoTA1BTTDEOMAwGA1UECxMFT2JsaXgxHzAdBgNVBAMTFnR1bmdz
dGVuLnVzLm9yYWNsZS5jb20wgZ8wDQYJKoZIhvcNAQEBBQADgY0AMIGJAoGBAOrl
xuD6+TF/J0nkJR8dSzK779nqfsOfulIrwWzjHs4/M4VpnJF1bLfJiAVW2dJxmkJC
O6VgZWseQqbfYMKmmR4WaWxa3ZYi/D3ASRqF/6DaT/DnqkEl14xMzX1/mcq5lS/e
rUUo3kPhWDBZ4RXxZ4KP4mELW7jwlgxWqCuGQ5//AgMBAAGjZzBlMB8GA1UdIwQY
MBaAFNv4ahUKglMfwuvM0G6DclfkRfJ0MDQGA1UdJQQtMCsGCCsGAQUFBwMBBggr
BgEFBQcDAgYKKwYBBAGCNwoDAwYJYIZIAYb4QgQBMAwGA1UdEwEB/wQCMAAwDQYJ
KoZIhvcNAQEEBQADgYEAtuX//e8Bpofmb1LaA58Ecuu/kuOeoKuuFsh/B2uMIFx0
L2Goj0d49jc6VREH7TF9q8HjgGozLrx1la+3DzB8l1j0zuESrpJzLMo0oqmmd2Lv
cIYFGXbhiTzX8Bgl3M/dlSJY87juAXOLBmOLx7B1w8/mTDkIwuccGtTnJqJZdYs=
-----END CERTIFICATE-----
