Certificate:
    Data:
        Version: 3 (0x2)
        Serial Number: 89 (0x59)
        Signature Algorithm: md5WithRSAEncryption
        Issuer: C=MY, ST=MAHA, L=PUNE, O=PSPL, OU=OBLIX-QA, CN=ps2436/emailAddress=sagar@pspl.com
        Validity
            Not Before: Feb  2 10:35:51 2009 GMT
            Not After : Feb  2 10:35:51 2010 GMT
        Subject: C=IN, ST=MH, L=Pune, O=PSL, OU=Oblix, CN=ps3848.persistent.co.in
        Subject Public Key Info:
            Public Key Algorithm: rsaEncryption
            RSA Public Key: (1024 bit)
                Modulus (1024 bit):
                    00:c9:59:47:df:e7:22:46:d3:3c:47:83:5c:38:48:
                    50:3a:84:8b:6a:f3:9a:75:91:71:5e:18:d8:ff:09:
                    d4:cd:83:17:d3:c3:9d:5c:32:a7:08:9e:7e:92:2c:
                    d1:2d:6d:58:eb:44:60:c2:25:bb:c5:08:07:8c:cf:
                    c3:7e:d3:1c:a9:a8:13:9b:b9:f1:f6:85:2f:cf:e8:
                    1a:a1:26:85:d6:61:2a:16:87:dd:84:bd:31:39:0d:
                    0a:39:d4:cb:31:28:1c:61:84:ce:05:4d:dc:94:a9:
                    8f:dc:30:fb:35:69:14:af:b3:81:29:9b:df:52:c8:
                    49:6a:b7:8a:36:c2:36:60:13
                Exponent: 65537 (0x10001)
        X509v3 extensions:
            X509v3 Authority Key Identifier: 
            keyid:DB:F8:6A:15:0A:82:53:1F:C2:EB:CC:D0:6E:83:72:57:E4:45:F2:74

            X509v3 Extended Key Usage: 
            TLS Web Server Authentication, TLS Web Client Authentication, Microsoft Server Gated Crypto, Netscape Server Gated Crypto
            X509v3 Basic Constraints: critical
            CA:FALSE
    Signature Algorithm: md5WithRSAEncryption
        17:44:8e:49:72:fb:a8:fe:93:ae:af:28:79:4a:ff:ca:8a:95:
        78:03:60:25:21:e0:32:8a:ba:c7:f1:1c:9f:d9:74:f2:6f:f0:
        06:90:40:d9:22:c6:60:a5:48:a6:85:98:b8:20:07:10:6c:dc:
        6f:e1:28:12:28:ef:86:dc:5c:f8:1f:12:ff:28:4b:20:75:73:
        54:d2:f0:2f:dc:9a:1b:65:b2:84:14:e5:ae:ab:aa:e1:78:91:
        a5:11:ba:07:07:b3:e3:97:3f:ca:e9:14:ca:60:3a:73:50:78:
        47:ff:31:00:28:50:59:b1:a8:46:ab:7f:7c:8d:c2:88:11:84:
        d9:33
-----BEGIN CERTIFICATE-----
MIICwzCCAiygAwIBAgIBWTANBgkqhkiG9w0BAQQFADB9MQswCQYDVQQGEwJNWTEN
MAsGA1UECBMETUFIQTENMAsGA1UEBxMEUFVORTENMAsGA1UEChMEUFNQTDERMA8G
A1UECxMIT0JMSVgtUUExDzANBgNVBAMTBnBzMjQzNjEdMBsGCSqGSIb3DQEJARYO
c2FnYXJAcHNwbC5jb20wHhcNMDkwMjAyMTAzNTUxWhcNMTAwMjAyMTAzNTUxWjBp
MQswCQYDVQQGEwJJTjELMAkGA1UECBMCTUgxDTALBgNVBAcTBFB1bmUxDDAKBgNV
BAoTA1BTTDEOMAwGA1UECxMFT2JsaXgxIDAeBgNVBAMTF3BzMzg0OC5wZXJzaXN0
ZW50LmNvLmluMIGfMA0GCSqGSIb3DQEBAQUAA4GNADCBiQKBgQDJWUff5yJG0zxH
g1w4SFA6hItq85p1kXFeGNj/CdTNgxfTw51cMqcInn6SLNEtbVjrRGDCJbvFCAeM
z8N+0xypqBObufH2hS/P6BqhJoXWYSoWh92EvTE5DQo51MsxKBxhhM4FTdyUqY/c
MPs1aRSvs4Epm99SyElqt4o2wjZgEwIDAQABo2cwZTAfBgNVHSMEGDAWgBTb+GoV
CoJTH8LrzNBug3JX5EXydDA0BgNVHSUELTArBggrBgEFBQcDAQYIKwYBBQUHAwIG
CisGAQQBgjcKAwMGCWCGSAGG+EIEATAMBgNVHRMBAf8EAjAAMA0GCSqGSIb3DQEB
BAUAA4GBABdEjkly+6j+k66vKHlK/8qKlXgDYCUh4DKKusfxHJ/ZdPJv8AaQQNki
xmClSKaFmLggBxBs3G/hKBIo74bcXPgfEv8oSyB1c1TS8C/cmhtlsoQU5a6rquF4
kaURugcHs+OXP8rpFMpgOnNQeEf/MQAoUFmxqEarf3yNwogRhNkz
-----END CERTIFICATE-----
