Certificate:
    Data:
        Version: 3 (0x2)
        Serial Number: 90 (0x5a)
        Signature Algorithm: md5WithRSAEncryption
        Issuer: C=MY, ST=MAHA, L=PUNE, O=PSPL, OU=OBLIX-QA, CN=ps2436/emailAddress=sagar@pspl.com
        Validity
            Not Before: Feb  2 10:47:51 2009 GMT
            Not After : Feb  2 10:47:51 2010 GMT
        Subject: C=IN, ST=MH, L=Pune, O=PSL, OU=OBLIX, CN=ps3848.persistent.co.in
        Subject Public Key Info:
            Public Key Algorithm: rsaEncryption
            RSA Public Key: (1024 bit)
                Modulus (1024 bit):
                    00:bf:e1:16:23:41:5c:17:fa:07:9c:9e:30:ca:41:
                    71:0c:f6:f0:7b:53:59:62:10:7f:e6:8c:20:d2:0e:
                    ca:e8:c4:bc:f7:14:15:6c:23:8d:c3:c0:6d:20:27:
                    70:7b:43:ad:38:4e:f6:69:57:37:96:49:be:b3:a3:
                    60:cc:f5:0d:35:ab:1b:62:e7:7c:d3:8e:de:96:46:
                    1a:39:88:b5:ff:34:bb:7a:78:b6:2f:a6:56:cf:59:
                    05:05:b1:ae:3d:f2:5d:4a:15:d7:33:be:c8:f3:4f:
                    ef:b2:6f:2c:f0:5e:f1:8e:7f:b7:09:20:95:6b:68:
                    f0:35:86:ca:d6:aa:e0:63:1b
                Exponent: 65537 (0x10001)
        X509v3 extensions:
            X509v3 Authority Key Identifier: 
            keyid:DB:F8:6A:15:0A:82:53:1F:C2:EB:CC:D0:6E:83:72:57:E4:45:F2:74

            X509v3 Extended Key Usage: 
            TLS Web Server Authentication, TLS Web Client Authentication, Microsoft Server Gated Crypto, Netscape Server Gated Crypto
            X509v3 Basic Constraints: critical
            CA:FALSE
    Signature Algorithm: md5WithRSAEncryption
        87:6a:af:31:1f:15:54:3f:be:67:c0:c8:47:9d:40:5b:5e:54:
        d5:98:6d:cd:91:e3:01:f5:4a:b1:dd:90:6c:82:72:a1:5b:a5:
        4d:62:12:f5:b0:40:92:9b:df:87:52:9f:5f:e2:51:68:03:fb:
        0a:71:64:f6:30:67:7e:4d:99:e0:8f:d3:a9:a0:10:6b:58:6d:
        46:8e:6a:db:84:a7:da:7a:f5:df:85:7d:60:5c:b6:25:2f:c2:
        2c:53:0b:2f:e5:c6:62:f7:66:fd:6b:89:32:8d:e1:0e:fc:80:
        21:12:dd:e2:78:41:d2:e6:44:43:2d:eb:b6:a6:7f:d5:ab:cd:
        0d:97
-----BEGIN CERTIFICATE-----
MIICwzCCAiygAwIBAgIBWjANBgkqhkiG9w0BAQQFADB9MQswCQYDVQQGEwJNWTEN
MAsGA1UECBMETUFIQTENMAsGA1UEBxMEUFVORTENMAsGA1UEChMEUFNQTDERMA8G
A1UECxMIT0JMSVgtUUExDzANBgNVBAMTBnBzMjQzNjEdMBsGCSqGSIb3DQEJARYO
c2FnYXJAcHNwbC5jb20wHhcNMDkwMjAyMTA0NzUxWhcNMTAwMjAyMTA0NzUxWjBp
MQswCQYDVQQGEwJJTjELMAkGA1UECBMCTUgxDTALBgNVBAcTBFB1bmUxDDAKBgNV
BAoTA1BTTDEOMAwGA1UECxMFT0JMSVgxIDAeBgNVBAMTF3BzMzg0OC5wZXJzaXN0
ZW50LmNvLmluMIGfMA0GCSqGSIb3DQEBAQUAA4GNADCBiQKBgQC/4RYjQVwX+gec
njDKQXEM9vB7U1liEH/mjCDSDsroxLz3FBVsI43DwG0gJ3B7Q604TvZpVzeWSb6z
o2DM9Q01qxti53zTjt6WRho5iLX/NLt6eLYvplbPWQUFsa498l1KFdczvsjzT++y
byzwXvGOf7cJIJVraPA1hsrWquBjGwIDAQABo2cwZTAfBgNVHSMEGDAWgBTb+GoV
CoJTH8LrzNBug3JX5EXydDA0BgNVHSUELTArBggrBgEFBQcDAQYIKwYBBQUHAwIG
CisGAQQBgjcKAwMGCWCGSAGG+EIEATAMBgNVHRMBAf8EAjAAMA0GCSqGSIb3DQEB
BAUAA4GBAIdqrzEfFVQ/vmfAyEedQFteVNWYbc2R4wH1SrHdkGyCcqFbpU1iEvWw
QJKb34dSn1/iUWgD+wpxZPYwZ35NmeCP06mgEGtYbUaOatuEp9p69d+FfWBctiUv
wixTCy/lxmL3Zv1riTKN4Q78gCES3eJ4QdLmREMt67amf9WrzQ2X
-----END CERTIFICATE-----
