Certificate:
    Data:
        Version: 3 (0x2)
        Serial Number: 93 (0x5d)
        Signature Algorithm: md5WithRSAEncryption
        Issuer: C=MY, ST=MAHA, L=PUNE, O=PSPL, OU=OBLIX-QA, CN=ps2436/emailAddress=sagar@pspl.com
        Validity
            Not Before: Feb  9 09:06:18 2009 GMT
            Not After : Feb  9 09:06:18 2010 GMT
        Subject: C=IN, ST=Maharashtra, L=Pune, O=pspl, OU=oblix, CN=ps4584
        Subject Public Key Info:
            Public Key Algorithm: rsaEncryption
            RSA Public Key: (1024 bit)
                Modulus (1024 bit):
                    00:c8:32:92:f8:1f:fc:83:4e:67:4b:a2:87:45:5f:
                    92:9c:8e:1c:1f:04:ad:f0:5a:ad:01:d4:7a:f2:b1:
                    74:4c:4f:3a:88:6d:60:c3:75:7f:24:46:af:fb:72:
                    6e:a9:f0:b7:20:68:2c:7a:38:b4:b6:73:bd:9e:bf:
                    76:04:93:cc:af:f4:92:f7:81:7b:26:da:e6:e9:48:
                    be:af:1a:5e:06:a8:fb:b2:2e:73:3b:c0:53:f7:04:
                    49:fc:9f:0f:02:1d:08:66:85:51:79:21:40:b8:08:
                    3a:b8:b7:7b:be:bb:20:49:0d:c9:83:43:bb:c8:7b:
                    30:66:0d:82:b2:7c:4b:61:a1
                Exponent: 65537 (0x10001)
        X509v3 extensions:
            X509v3 Authority Key Identifier: 
            keyid:DB:F8:6A:15:0A:82:53:1F:C2:EB:CC:D0:6E:83:72:57:E4:45:F2:74

            X509v3 Extended Key Usage: 
            TLS Web Server Authentication, TLS Web Client Authentication, Microsoft Server Gated Crypto, Netscape Server Gated Crypto
            X509v3 Basic Constraints: critical
            CA:FALSE
    Signature Algorithm: md5WithRSAEncryption
        68:d8:2f:ad:61:b8:34:4b:69:95:81:87:52:bc:5f:a9:07:68:
        df:ba:a3:5e:c3:d9:27:43:66:79:d9:ca:e9:ab:b1:5d:db:bd:
        e8:51:55:98:6d:0a:0e:52:40:af:ad:9d:c9:96:1c:ef:59:0f:
        ed:28:d8:b1:40:1e:76:e4:37:99:97:b6:d2:7f:20:49:31:29:
        e7:84:e2:09:6b:33:8a:63:06:ba:52:8c:dc:cd:ac:a9:cb:a4:
        cd:88:5c:5b:21:37:c5:aa:92:dc:69:1b:ed:45:7c:00:a0:a9:
        ad:29:fd:f8:d9:9c:97:84:b0:f8:61:24:78:f1:27:1f:25:b4:
        9e:f9
-----BEGIN CERTIFICATE-----
MIICvDCCAiWgAwIBAgIBXTANBgkqhkiG9w0BAQQFADB9MQswCQYDVQQGEwJNWTEN
MAsGA1UECBMETUFIQTENMAsGA1UEBxMEUFVORTENMAsGA1UEChMEUFNQTDERMA8G
A1UECxMIT0JMSVgtUUExDzANBgNVBAMTBnBzMjQzNjEdMBsGCSqGSIb3DQEJARYO
c2FnYXJAcHNwbC5jb20wHhcNMDkwMjA5MDkwNjE4WhcNMTAwMjA5MDkwNjE4WjBi
MQswCQYDVQQGEwJJTjEUMBIGA1UECBMLTWFoYXJhc2h0cmExDTALBgNVBAcTBFB1
bmUxDTALBgNVBAoTBHBzcGwxDjAMBgNVBAsTBW9ibGl4MQ8wDQYDVQQDEwZwczQ1
ODQwgZ8wDQYJKoZIhvcNAQEBBQADgY0AMIGJAoGBAMgykvgf/INOZ0uih0VfkpyO
HB8ErfBarQHUevKxdExPOohtYMN1fyRGr/tybqnwtyBoLHo4tLZzvZ6/dgSTzK/0
kveBeyba5ulIvq8aXgao+7IuczvAU/cESfyfDwIdCGaFUXkhQLgIOri3e767IEkN
yYNDu8h7MGYNgrJ8S2GhAgMBAAGjZzBlMB8GA1UdIwQYMBaAFNv4ahUKglMfwuvM
0G6DclfkRfJ0MDQGA1UdJQQtMCsGCCsGAQUFBwMBBggrBgEFBQcDAgYKKwYBBAGC
NwoDAwYJYIZIAYb4QgQBMAwGA1UdEwEB/wQCMAAwDQYJKoZIhvcNAQEEBQADgYEA
aNgvrWG4NEtplYGHUrxfqQdo37qjXsPZJ0NmednK6auxXdu96FFVmG0KDlJAr62d
yZYc71kP7SjYsUAeduQ3mZe20n8gSTEp54TiCWszimMGulKM3M2sqcukzYhcWyE3
xaqS3Gkb7UV8AKCprSn9+Nmcl4Sw+GEkePEnHyW0nvk=
-----END CERTIFICATE-----
