Certificate:
    Data:
        Version: 3 (0x2)
        Serial Number: 95 (0x5f)
        Signature Algorithm: md5WithRSAEncryption
        Issuer: C=MY, ST=MAHA, L=PUNE, O=PSPL, OU=OBLIX-QA, CN=ps2436/emailAddress=sagar@pspl.com
        Validity
            Not Before: Feb 10 12:25:29 2009 GMT
            Not After : Feb 10 12:25:29 2010 GMT
        Subject: C=IN, ST=MH, L=Pune, O=PSL, OU=Oblix, CN=kangra.persistent.co.in
        Subject Public Key Info:
            Public Key Algorithm: rsaEncryption
            RSA Public Key: (1024 bit)
                Modulus (1024 bit):
                    00:fa:28:e9:4a:fc:87:3e:36:f5:1b:78:01:cf:78:
                    d2:da:ae:fc:8e:c4:ec:69:6d:9e:d0:4d:b2:c8:9e:
                    7b:e9:10:3d:f2:46:7f:23:52:4d:43:ee:c0:cc:17:
                    84:23:82:65:1c:21:f6:0d:fa:eb:7a:50:0f:61:da:
                    17:8b:87:9d:ee:b2:90:73:9c:04:71:84:88:91:2f:
                    a0:b6:fb:dd:ef:b6:c1:09:04:e5:97:93:2a:94:e0:
                    60:9f:3e:21:5d:38:f2:db:bf:05:49:c3:47:11:ad:
                    a5:5b:f7:a6:0e:c7:58:8b:db:97:d8:a8:62:e8:ba:
                    dc:85:98:a7:0e:82:13:7c:a3
                Exponent: 65537 (0x10001)
        X509v3 extensions:
            X509v3 Authority Key Identifier: 
            keyid:DB:F8:6A:15:0A:82:53:1F:C2:EB:CC:D0:6E:83:72:57:E4:45:F2:74

            X509v3 Extended Key Usage: 
            TLS Web Server Authentication, TLS Web Client Authentication, Microsoft Server Gated Crypto, Netscape Server Gated Crypto
            X509v3 Basic Constraints: critical
            CA:FALSE
    Signature Algorithm: md5WithRSAEncryption
        1f:ed:88:ba:ef:32:7c:1b:0a:64:46:2e:25:e1:2d:3d:fb:e3:
        81:6a:40:6c:16:95:20:e2:71:00:c9:47:cb:bc:4f:b7:4a:26:
        d8:39:9f:08:f9:b8:bb:07:2b:b1:92:26:5e:ce:ae:db:7d:d2:
        bd:de:74:ce:e4:43:72:88:c8:ce:9d:d2:0f:9c:9f:49:4f:cf:
        cf:d7:57:09:27:c4:ae:fe:7d:c3:85:3f:92:e5:8d:d8:8d:05:
        cb:34:09:ae:82:27:f6:db:5f:2b:39:b9:34:0e:8a:ab:48:9a:
        b2:16:41:12:ca:05:a2:fe:03:28:30:7d:ec:a1:fd:1f:b1:b4:
        e7:ef
-----BEGIN CERTIFICATE-----
MIICwzCCAiygAwIBAgIBXzANBgkqhkiG9w0BAQQFADB9MQswCQYDVQQGEwJNWTEN
MAsGA1UECBMETUFIQTENMAsGA1UEBxMEUFVORTENMAsGA1UEChMEUFNQTDERMA8G
A1UECxMIT0JMSVgtUUExDzANBgNVBAMTBnBzMjQzNjEdMBsGCSqGSIb3DQEJARYO
c2FnYXJAcHNwbC5jb20wHhcNMDkwMjEwMTIyNTI5WhcNMTAwMjEwMTIyNTI5WjBp
MQswCQYDVQQGEwJJTjELMAkGA1UECBMCTUgxDTALBgNVBAcTBFB1bmUxDDAKBgNV
BAoTA1BTTDEOMAwGA1UECxMFT2JsaXgxIDAeBgNVBAMTF2thbmdyYS5wZXJzaXN0
ZW50LmNvLmluMIGfMA0GCSqGSIb3DQEBAQUAA4GNADCBiQKBgQD6KOlK/Ic+NvUb
eAHPeNLarvyOxOxpbZ7QTbLInnvpED3yRn8jUk1D7sDMF4QjgmUcIfYN+ut6UA9h
2heLh53uspBznARxhIiRL6C2+93vtsEJBOWXkyqU4GCfPiFdOPLbvwVJw0cRraVb
96YOx1iL25fYqGLoutyFmKcOghN8owIDAQABo2cwZTAfBgNVHSMEGDAWgBTb+GoV
CoJTH8LrzNBug3JX5EXydDA0BgNVHSUELTArBggrBgEFBQcDAQYIKwYBBQUHAwIG
CisGAQQBgjcKAwMGCWCGSAGG+EIEATAMBgNVHRMBAf8EAjAAMA0GCSqGSIb3DQEB
BAUAA4GBAB/tiLrvMnwbCmRGLiXhLT3744FqQGwWlSDicQDJR8u8T7dKJtg5nwj5
uLsHK7GSJl7Ortt90r3edM7kQ3KIyM6d0g+cn0lPz8/XVwknxK7+fcOFP5LljdiN
Bcs0Ca6CJ/bbXys5uTQOiqtImrIWQRLKBaL+Aygwfeyh/R+xtOfv
-----END CERTIFICATE-----
