Certificate:
    Data:
        Version: 3 (0x2)
        Serial Number: 98 (0x62)
        Signature Algorithm: md5WithRSAEncryption
        Issuer: C=MY, ST=MAHA, L=PUNE, O=PSPL, OU=OBLIX-QA, CN=ps2436/emailAddress=sagar@pspl.com
        Validity
            Not Before: Feb 17 10:46:24 2009 GMT
            Not After : Feb 17 10:46:24 2010 GMT
        Subject: CN=Rohit Valiveti/emailAddress=rohit_valiveti@company.com
        Subject Public Key Info:
            Public Key Algorithm: rsaEncryption
            RSA Public Key: (1024 bit)
                Modulus (1024 bit):
                    00:d7:3a:5e:85:0a:70:25:96:df:56:30:9d:da:45:
                    cd:0c:9c:b5:4d:87:bc:3d:d8:36:01:70:33:8e:0d:
                    c4:be:af:60:22:8e:6e:6f:ea:72:54:48:5d:84:1b:
                    5c:c9:c7:ef:83:c5:4d:a8:c9:f4:82:05:9f:10:82:
                    f9:a6:3e:ca:f7:14:3d:88:be:61:92:4b:2f:db:47:
                    10:cf:0d:6e:79:e2:2a:42:e9:81:07:a9:59:7e:2d:
                    c7:2c:f4:a9:5c:26:c9:59:c5:e1:17:0c:ff:a5:cc:
                    48:04:a2:5c:9a:4a:25:a5:86:42:3c:ec:8a:85:3d:
                    4c:72:71:c8:1a:9f:9b:83:cd
                Exponent: 65537 (0x10001)
        X509v3 extensions:
            X509v3 Subject Alternative Name: 
            email:rohit_valiveti@company.com
            X509v3 Basic Constraints: critical
            CA:FALSE
            X509v3 Authority Key Identifier: 
            keyid:DB:F8:6A:15:0A:82:53:1F:C2:EB:CC:D0:6E:83:72:57:E4:45:F2:74

            X509v3 Extended Key Usage: 
            TLS Web Client Authentication, E-mail Protection
    Signature Algorithm: md5WithRSAEncryption
        92:45:53:0d:1d:e3:c8:7a:ab:ea:e8:b5:5c:28:91:cf:df:7a:
        9f:e9:d4:3f:9a:95:a2:31:9d:56:c3:f2:82:2e:69:cc:92:b1:
        65:ec:c7:42:70:04:d7:6a:8b:b5:4a:a1:1b:8b:e4:5b:64:4c:
        86:a0:f5:a0:3b:c1:33:81:d7:69:98:75:e3:50:17:cc:2c:e9:
        63:1c:f6:98:02:ee:0f:b4:54:48:9e:ff:8b:e6:cb:3b:dd:e4:
        2c:3a:a0:3e:06:6e:c5:f0:79:52:85:c6:70:c9:9a:8e:cf:34:
        57:fa:c5:65:c6:ac:ca:6e:c4:81:c1:37:d6:fb:ff:e2:10:0b:
        aa:64
-----BEGIN CERTIFICATE-----
MIICrjCCAhegAwIBAgIBYjANBgkqhkiG9w0BAQQFADB9MQswCQYDVQQGEwJNWTEN
MAsGA1UECBMETUFIQTENMAsGA1UEBxMEUFVORTENMAsGA1UEChMEUFNQTDERMA8G
A1UECxMIT0JMSVgtUUExDzANBgNVBAMTBnBzMjQzNjEdMBsGCSqGSIb3DQEJARYO
c2FnYXJAcHNwbC5jb20wHhcNMDkwMjE3MTA0NjI0WhcNMTAwMjE3MTA0NjI0WjBE
MRcwFQYDVQQDEw5Sb2hpdCBWYWxpdmV0aTEpMCcGCSqGSIb3DQEJARYacm9oaXRf
dmFsaXZldGlAY29tcGFueS5jb20wgZ8wDQYJKoZIhvcNAQEBBQADgY0AMIGJAoGB
ANc6XoUKcCWW31YwndpFzQyctU2HvD3YNgFwM44NxL6vYCKObm/qclRIXYQbXMnH
74PFTajJ9IIFnxCC+aY+yvcUPYi+YZJLL9tHEM8NbnniKkLpgQepWX4txyz0qVwm
yVnF4RcM/6XMSASiXJpKJaWGQjzsioU9THJxyBqfm4PNAgMBAAGjdzB1MCUGA1Ud
EQQeMByBGnJvaGl0X3ZhbGl2ZXRpQGNvbXBhbnkuY29tMAwGA1UdEwEB/wQCMAAw
HwYDVR0jBBgwFoAU2/hqFQqCUx/C68zQboNyV+RF8nQwHQYDVR0lBBYwFAYIKwYB
BQUHAwIGCCsGAQUFBwMEMA0GCSqGSIb3DQEBBAUAA4GBAJJFUw0d48h6q+rotVwo
kc/fep/p1D+alaIxnVbD8oIuacySsWXsx0JwBNdqi7VKoRuL5FtkTIag9aA7wTOB
12mYdeNQF8ws6WMc9pgC7g+0VEie/4vmyzvd5Cw6oD4GbsXweVKFxnDJmo7PNFf6
xWXGrMpuxIHBN9b7/+IQC6pk
-----END CERTIFICATE-----
