Certificate:
    Data:
        Version: 3 (0x2)
        Serial Number: 104 (0x68)
        Signature Algorithm: md5WithRSAEncryption
        Issuer: C=MY, ST=MAHA, L=PUNE, O=PSPL, OU=OBLIX-QA, CN=ps2436/emailAddress=sagar@pspl.com
        Validity
            Not Before: Feb 25 06:52:12 2009 GMT
            Not After : Feb 25 06:52:12 2010 GMT
        Subject: C=IN, ST=MAHARASTRA, L=Pune, O=PSL, OU=Oblix, CN=kalindi.persistent.co.in
        Subject Public Key Info:
            Public Key Algorithm: rsaEncryption
            RSA Public Key: (1024 bit)
                Modulus (1024 bit):
                    00:cc:c7:9c:72:42:ce:e7:12:60:ec:08:14:5b:57:
                    6e:13:78:24:f8:b6:fd:8d:19:5f:f6:46:a8:ff:10:
                    dd:db:db:de:a6:2c:42:51:92:17:ff:19:98:ea:cc:
                    7c:f2:34:09:14:02:c5:da:40:37:6c:aa:0b:25:19:
                    4e:c0:9e:2f:5f:cf:05:82:8b:0f:97:d2:53:fe:cd:
                    f7:dc:36:3d:ef:7b:ab:b5:32:7f:96:6b:c4:0a:9a:
                    25:b5:ac:a0:c4:9b:74:95:4e:df:2f:af:99:39:3e:
                    4d:6b:79:4d:6b:51:1d:1d:46:a8:76:8b:3a:7a:dc:
                    db:03:fd:97:d1:df:4b:3d:ad
                Exponent: 65537 (0x10001)
        X509v3 extensions:
            X509v3 Authority Key Identifier: 
            keyid:DB:F8:6A:15:0A:82:53:1F:C2:EB:CC:D0:6E:83:72:57:E4:45:F2:74

            X509v3 Extended Key Usage: 
            TLS Web Server Authentication, TLS Web Client Authentication, Microsoft Server Gated Crypto, Netscape Server Gated Crypto
            X509v3 Basic Constraints: critical
            CA:FALSE
    Signature Algorithm: md5WithRSAEncryption
        53:bc:8a:00:6c:48:af:72:c0:98:9e:b3:4f:09:d9:55:aa:60:
        ef:f6:02:6d:a8:2e:0f:12:0d:6f:b9:6b:d7:9f:fa:79:73:08:
        b2:e9:59:f3:ed:c6:fb:e8:57:c3:33:f1:06:cd:41:40:dc:7c:
        00:27:93:9b:e6:f5:3c:c1:bf:f3:e1:d4:0e:33:3a:c2:cb:30:
        11:40:17:74:48:75:1d:d1:bd:75:56:7c:b2:a1:d7:3f:1a:f8:
        13:34:0b:db:29:53:fe:1a:72:15:66:97:b8:ac:7b:5a:18:30:
        ef:f6:7f:4c:7a:32:0e:a4:08:6c:51:ef:d5:af:90:a3:db:6e:
        f0:a4
-----BEGIN CERTIFICATE-----
MIICzDCCAjWgAwIBAgIBaDANBgkqhkiG9w0BAQQFADB9MQswCQYDVQQGEwJNWTEN
MAsGA1UECBMETUFIQTENMAsGA1UEBxMEUFVORTENMAsGA1UEChMEUFNQTDERMA8G
A1UECxMIT0JMSVgtUUExDzANBgNVBAMTBnBzMjQzNjEdMBsGCSqGSIb3DQEJARYO
c2FnYXJAcHNwbC5jb20wHhcNMDkwMjI1MDY1MjEyWhcNMTAwMjI1MDY1MjEyWjBy
MQswCQYDVQQGEwJJTjETMBEGA1UECBMKTUFIQVJBU1RSQTENMAsGA1UEBxMEUHVu
ZTEMMAoGA1UEChMDUFNMMQ4wDAYDVQQLEwVPYmxpeDEhMB8GA1UEAxMYa2FsaW5k
aS5wZXJzaXN0ZW50LmNvLmluMIGfMA0GCSqGSIb3DQEBAQUAA4GNADCBiQKBgQDM
x5xyQs7nEmDsCBRbV24TeCT4tv2NGV/2Rqj/EN3b296mLEJRkhf/GZjqzHzyNAkU
AsXaQDdsqgslGU7Ani9fzwWCiw+X0lP+zffcNj3ve6u1Mn+Wa8QKmiW1rKDEm3SV
Tt8vr5k5Pk1reU1rUR0dRqh2izp63NsD/ZfR30s9rQIDAQABo2cwZTAfBgNVHSME
GDAWgBTb+GoVCoJTH8LrzNBug3JX5EXydDA0BgNVHSUELTArBggrBgEFBQcDAQYI
KwYBBQUHAwIGCisGAQQBgjcKAwMGCWCGSAGG+EIEATAMBgNVHRMBAf8EAjAAMA0G
CSqGSIb3DQEBBAUAA4GBAFO8igBsSK9ywJies08J2VWqYO/2Am2oLg8SDW+5a9ef
+nlzCLLpWfPtxvvoV8Mz8QbNQUDcfAAnk5vm9TzBv/Ph1A4zOsLLMBFAF3RIdR3R
vXVWfLKh1z8a+BM0C9spU/4achVml7ise1oYMO/2f0x6Mg6kCGxR79WvkKPbbvCk
-----END CERTIFICATE-----
