Certificate:
    Data:
        Version: 3 (0x2)
        Serial Number: 105 (0x69)
        Signature Algorithm: md5WithRSAEncryption
        Issuer: C=MY, ST=MAHA, L=PUNE, O=PSPL, OU=OBLIX-QA, CN=ps2436/emailAddress=sagar@pspl.com
        Validity
            Not Before: Feb 25 08:26:49 2009 GMT
            Not After : Feb 25 08:26:49 2010 GMT
        Subject: C=IN, ST=maha, L=Pune, O=Oracle, OU=Oracle, CN=staeb45.us.oracle.com
        Subject Public Key Info:
            Public Key Algorithm: rsaEncryption
            RSA Public Key: (1024 bit)
                Modulus (1024 bit):
                    00:90:e3:ba:9f:3e:1b:83:95:d0:6f:07:e6:0c:f7:
                    10:40:6c:89:b7:1f:82:c0:fd:cf:12:51:69:a2:4a:
                    0d:30:b6:eb:99:99:ee:48:60:51:a8:b5:c0:da:2f:
                    dc:ac:bd:14:87:b4:9d:17:fb:85:1f:46:4e:e3:e4:
                    10:24:06:c6:27:72:38:54:48:5e:d3:62:15:fd:06:
                    9c:49:51:55:b5:8d:60:ae:f4:1f:20:0a:af:92:5d:
                    38:a1:3b:ca:35:83:aa:44:d3:36:0f:95:d6:1c:86:
                    91:92:48:62:e2:a5:f5:fd:ce:6d:cb:ab:75:16:25:
                    37:c5:41:a1:63:02:bb:98:15
                Exponent: 65537 (0x10001)
        X509v3 extensions:
            X509v3 Authority Key Identifier: 
            keyid:DB:F8:6A:15:0A:82:53:1F:C2:EB:CC:D0:6E:83:72:57:E4:45:F2:74

            X509v3 Extended Key Usage: 
            TLS Web Server Authentication, TLS Web Client Authentication, Microsoft Server Gated Crypto, Netscape Server Gated Crypto
            X509v3 Basic Constraints: critical
            CA:FALSE
    Signature Algorithm: md5WithRSAEncryption
        a9:78:8d:e3:6a:3e:24:65:2d:92:7a:5c:23:08:5a:73:45:48:
        09:13:40:2c:fd:f6:f0:8c:3f:34:ab:f1:e6:32:6e:1c:e6:c7:
        05:a2:36:1a:a6:28:a1:26:25:02:fb:0b:d9:58:47:b8:b6:0c:
        40:f1:5c:08:9e:30:67:94:78:a8:de:65:c6:e4:63:88:ce:99:
        9c:14:9e:7b:5d:8a:b6:8f:6f:54:22:40:c8:a6:7d:22:21:19:
        1e:aa:87:aa:93:34:a2:6e:bf:bf:30:3a:89:a8:77:34:9d:6c:
        06:01:2d:78:03:8a:7c:14:71:e7:18:bd:19:4a:72:7b:c0:cc:
        ec:a9
-----BEGIN CERTIFICATE-----
MIICxzCCAjCgAwIBAgIBaTANBgkqhkiG9w0BAQQFADB9MQswCQYDVQQGEwJNWTEN
MAsGA1UECBMETUFIQTENMAsGA1UEBxMEUFVORTENMAsGA1UEChMEUFNQTDERMA8G
A1UECxMIT0JMSVgtUUExDzANBgNVBAMTBnBzMjQzNjEdMBsGCSqGSIb3DQEJARYO
c2FnYXJAcHNwbC5jb20wHhcNMDkwMjI1MDgyNjQ5WhcNMTAwMjI1MDgyNjQ5WjBt
MQswCQYDVQQGEwJJTjENMAsGA1UECBMEbWFoYTENMAsGA1UEBxMEUHVuZTEPMA0G
A1UEChMGT3JhY2xlMQ8wDQYDVQQLEwZPcmFjbGUxHjAcBgNVBAMTFXN0YWViNDUu
dXMub3JhY2xlLmNvbTCBnzANBgkqhkiG9w0BAQEFAAOBjQAwgYkCgYEAkOO6nz4b
g5XQbwfmDPcQQGyJtx+CwP3PElFpokoNMLbrmZnuSGBRqLXA2i/crL0Uh7SdF/uF
H0ZO4+QQJAbGJ3I4VEhe02IV/QacSVFVtY1grvQfIAqvkl04oTvKNYOqRNM2D5XW
HIaRkkhi4qX1/c5ty6t1FiU3xUGhYwK7mBUCAwEAAaNnMGUwHwYDVR0jBBgwFoAU
2/hqFQqCUx/C68zQboNyV+RF8nQwNAYDVR0lBC0wKwYIKwYBBQUHAwEGCCsGAQUF
BwMCBgorBgEEAYI3CgMDBglghkgBhvhCBAEwDAYDVR0TAQH/BAIwADANBgkqhkiG
9w0BAQQFAAOBgQCpeI3jaj4kZS2SelwjCFpzRUgJE0As/fbwjD80q/HmMm4c5scF
ojYapiihJiUC+wvZWEe4tgxA8VwInjBnlHio3mXG5GOIzpmcFJ57XYq2j29UIkDI
pn0iIRkeqoeqkzSibr+/MDqJqHc0nWwGAS14A4p8FHHnGL0ZSnJ7wMzsqQ==
-----END CERTIFICATE-----
