Certificate:
    Data:
        Version: 3 (0x2)
        Serial Number: 106 (0x6a)
        Signature Algorithm: md5WithRSAEncryption
        Issuer: C=MY, ST=MAHA, L=PUNE, O=PSPL, OU=OBLIX-QA, CN=ps2436/emailAddress=sagar@pspl.com
        Validity
            Not Before: Feb 25 09:34:53 2009 GMT
            Not After : Feb 25 09:34:53 2010 GMT
        Subject: C=In, ST=MAHARASTRA, L=Pune, O=PSPL, OU=OblixOblix, CN=kalindi.persistent.co.in
        Subject Public Key Info:
            Public Key Algorithm: rsaEncryption
            RSA Public Key: (1024 bit)
                Modulus (1024 bit):
                    00:d7:1e:14:28:b8:8d:bf:d1:d4:98:d3:d0:d7:64:
                    5d:d4:2e:3e:d0:e8:e0:a4:69:8c:8a:d1:ab:0c:62:
                    d2:7e:98:03:68:b8:a5:10:96:b4:23:07:0c:48:4d:
                    68:ba:55:2d:cb:7d:fc:c1:d1:66:a5:1b:d8:2f:63:
                    22:8f:f0:e8:1c:88:6f:2f:19:07:16:57:41:68:b4:
                    19:e7:67:a9:8d:9a:6a:a7:20:ff:87:4d:6a:35:fe:
                    86:23:4a:00:34:61:5c:89:ba:9b:69:33:70:d7:f6:
                    96:d3:98:a0:f1:5f:66:e1:0d:79:11:c2:36:69:d6:
                    78:e2:67:ba:32:08:ae:c8:23
                Exponent: 65537 (0x10001)
        X509v3 extensions:
            X509v3 Authority Key Identifier: 
            keyid:DB:F8:6A:15:0A:82:53:1F:C2:EB:CC:D0:6E:83:72:57:E4:45:F2:74

            X509v3 Extended Key Usage: 
            TLS Web Server Authentication, TLS Web Client Authentication, Microsoft Server Gated Crypto, Netscape Server Gated Crypto
            X509v3 Basic Constraints: critical
            CA:FALSE
    Signature Algorithm: md5WithRSAEncryption
        18:d4:b3:a1:f0:38:73:9a:64:5f:7e:62:49:b0:57:2b:c0:16:
        90:cb:a0:45:c0:57:36:3a:02:87:c2:fb:cf:eb:47:d0:67:62:
        86:06:d2:fb:ff:61:74:10:5c:92:fc:04:7e:41:0b:1d:d1:c1:
        64:bf:de:b7:13:01:91:ef:1d:e2:1b:31:f9:be:23:08:65:bd:
        af:8c:3a:e7:ba:a9:a4:55:4b:c7:3d:01:a4:c6:47:ef:f4:30:
        2c:a7:09:68:3c:65:b2:0f:5e:b5:3e:95:a1:55:b8:84:cd:74:
        f7:a5:24:30:e8:99:ea:4a:1d:bc:1a:7d:48:6c:27:6a:d6:51:
        f7:98
-----BEGIN CERTIFICATE-----
MIIC0jCCAjugAwIBAgIBajANBgkqhkiG9w0BAQQFADB9MQswCQYDVQQGEwJNWTEN
MAsGA1UECBMETUFIQTENMAsGA1UEBxMEUFVORTENMAsGA1UEChMEUFNQTDERMA8G
A1UECxMIT0JMSVgtUUExDzANBgNVBAMTBnBzMjQzNjEdMBsGCSqGSIb3DQEJARYO
c2FnYXJAcHNwbC5jb20wHhcNMDkwMjI1MDkzNDUzWhcNMTAwMjI1MDkzNDUzWjB4
MQswCQYDVQQGEwJJbjETMBEGA1UECBMKTUFIQVJBU1RSQTENMAsGA1UEBxMEUHVu
ZTENMAsGA1UEChMEUFNQTDETMBEGA1UECxMKT2JsaXhPYmxpeDEhMB8GA1UEAxMY
a2FsaW5kaS5wZXJzaXN0ZW50LmNvLmluMIGfMA0GCSqGSIb3DQEBAQUAA4GNADCB
iQKBgQDXHhQouI2/0dSY09DXZF3ULj7Q6OCkaYyK0asMYtJ+mANouKUQlrQjBwxI
TWi6VS3LffzB0WalG9gvYyKP8OgciG8vGQcWV0FotBnnZ6mNmmqnIP+HTWo1/oYj
SgA0YVyJuptpM3DX9pbTmKDxX2bhDXkRwjZp1njiZ7oyCK7IIwIDAQABo2cwZTAf
BgNVHSMEGDAWgBTb+GoVCoJTH8LrzNBug3JX5EXydDA0BgNVHSUELTArBggrBgEF
BQcDAQYIKwYBBQUHAwIGCisGAQQBgjcKAwMGCWCGSAGG+EIEATAMBgNVHRMBAf8E
AjAAMA0GCSqGSIb3DQEBBAUAA4GBABjUs6HwOHOaZF9+YkmwVyvAFpDLoEXAVzY6
AofC+8/rR9BnYoYG0vv/YXQQXJL8BH5BCx3RwWS/3rcTAZHvHeIbMfm+Iwhlva+M
Oue6qaRVS8c9AaTGR+/0MCynCWg8ZbIPXrU+laFVuITNdPelJDDomepKHbwafUhs
J2rWUfeY
-----END CERTIFICATE-----
