Certificate:
    Data:
        Version: 3 (0x2)
        Serial Number: 109 (0x6d)
        Signature Algorithm: md5WithRSAEncryption
        Issuer: C=MY, ST=MAHA, L=PUNE, O=PSPL, OU=OBLIX-QA, CN=ps2436/emailAddress=sagar@pspl.com
        Validity
            Not Before: Feb 27 07:11:59 2009 GMT
            Not After : Feb 27 07:11:59 2010 GMT
        Subject: C=IN, ST=MAHARASTRA, L=Pune, O=Persistent, OU=OblixOblix, CN=kalindi.persistent.co.in
        Subject Public Key Info:
            Public Key Algorithm: rsaEncryption
            RSA Public Key: (1024 bit)
                Modulus (1024 bit):
                    00:c3:d2:56:5a:c3:d5:31:eb:1e:5d:41:7c:07:1b:
                    b3:a4:9d:1e:4c:0e:7e:7c:2f:c0:cb:da:2b:14:bf:
                    a8:29:30:23:fb:10:c9:43:80:a3:dd:3f:0b:10:a5:
                    14:f7:0f:a8:9f:51:fb:0b:19:cc:d1:9a:82:40:18:
                    3d:3a:5d:82:3c:bb:fd:3f:ae:fc:6b:87:72:7b:9e:
                    59:d2:f3:b3:db:74:3f:69:8d:e8:d4:83:c1:ea:dc:
                    49:f1:1a:5f:d4:fe:9d:f2:82:70:4c:66:dc:ec:b7:
                    60:d9:98:a7:f7:2d:c2:63:a4:23:49:04:fa:3a:cd:
                    f1:f7:82:5f:4b:d5:ae:4c:31
                Exponent: 65537 (0x10001)
        X509v3 extensions:
            X509v3 Authority Key Identifier: 
            keyid:DB:F8:6A:15:0A:82:53:1F:C2:EB:CC:D0:6E:83:72:57:E4:45:F2:74

            X509v3 Extended Key Usage: 
            TLS Web Server Authentication, TLS Web Client Authentication, Microsoft Server Gated Crypto, Netscape Server Gated Crypto
            X509v3 Basic Constraints: critical
            CA:FALSE
    Signature Algorithm: md5WithRSAEncryption
        19:9a:91:7c:1a:03:52:c0:20:bc:c5:e6:d9:79:6b:2a:de:ad:
        ae:8e:d9:52:c2:a5:c3:48:41:92:fc:7f:0c:00:d3:df:df:4b:
        18:39:25:ac:70:5d:1b:2e:8c:1e:ca:59:03:54:44:e9:c6:59:
        ea:a0:8d:02:57:e8:66:57:c8:b2:be:a7:7d:56:a2:04:63:a4:
        9d:68:78:9d:25:d0:3a:2e:ad:d9:d9:67:97:d3:6d:97:26:9a:
        51:36:63:d3:dc:36:47:fa:b1:6b:d9:f8:c9:7c:2e:72:f6:62:
        7c:22:b2:15:9d:eb:77:7f:87:d7:1b:79:b3:cd:bf:c8:33:16:
        d7:60
-----BEGIN CERTIFICATE-----
MIIC2DCCAkGgAwIBAgIBbTANBgkqhkiG9w0BAQQFADB9MQswCQYDVQQGEwJNWTEN
MAsGA1UECBMETUFIQTENMAsGA1UEBxMEUFVORTENMAsGA1UEChMEUFNQTDERMA8G
A1UECxMIT0JMSVgtUUExDzANBgNVBAMTBnBzMjQzNjEdMBsGCSqGSIb3DQEJARYO
c2FnYXJAcHNwbC5jb20wHhcNMDkwMjI3MDcxMTU5WhcNMTAwMjI3MDcxMTU5WjB+
MQswCQYDVQQGEwJJTjETMBEGA1UECBMKTUFIQVJBU1RSQTENMAsGA1UEBxMEUHVu
ZTETMBEGA1UEChMKUGVyc2lzdGVudDETMBEGA1UECxMKT2JsaXhPYmxpeDEhMB8G
A1UEAxMYa2FsaW5kaS5wZXJzaXN0ZW50LmNvLmluMIGfMA0GCSqGSIb3DQEBAQUA
A4GNADCBiQKBgQDD0lZaw9Ux6x5dQXwHG7OknR5MDn58L8DL2isUv6gpMCP7EMlD
gKPdPwsQpRT3D6ifUfsLGczRmoJAGD06XYI8u/0/rvxrh3J7nlnS87PbdD9pjejU
g8Hq3EnxGl/U/p3ygnBMZtzst2DZmKf3LcJjpCNJBPo6zfH3gl9L1a5MMQIDAQAB
o2cwZTAfBgNVHSMEGDAWgBTb+GoVCoJTH8LrzNBug3JX5EXydDA0BgNVHSUELTAr
BggrBgEFBQcDAQYIKwYBBQUHAwIGCisGAQQBgjcKAwMGCWCGSAGG+EIEATAMBgNV
HRMBAf8EAjAAMA0GCSqGSIb3DQEBBAUAA4GBABmakXwaA1LAILzF5tl5ayrera6O
2VLCpcNIQZL8fwwA09/fSxg5JaxwXRsujB7KWQNUROnGWeqgjQJX6GZXyLK+p31W
ogRjpJ1oeJ0l0DourdnZZ5fTbZcmmlE2Y9PcNkf6sWvZ+Ml8LnL2YnwishWd63d/
h9cbebPNv8gzFtdg
-----END CERTIFICATE-----
