Certificate:
    Data:
        Version: 3 (0x2)
        Serial Number: 111 (0x6f)
        Signature Algorithm: md5WithRSAEncryption
        Issuer: C=MY, ST=MAHA, L=PUNE, O=PSPL, OU=OBLIX-QA, CN=ps2436/emailAddress=sagar@pspl.com
        Validity
            Not Before: Feb 27 09:31:37 2009 GMT
            Not After : Feb 27 09:31:37 2010 GMT
        Subject: C=IN, ST=MAHARASTRA, L=Poone, O=PSL, OU=Oblix, CN=ps2979.persistent.co.in
        Subject Public Key Info:
            Public Key Algorithm: rsaEncryption
            RSA Public Key: (1024 bit)
                Modulus (1024 bit):
                    00:e0:47:83:a0:75:6c:e3:c0:78:90:4a:62:cf:1a:
                    6f:45:53:ed:05:32:f1:98:6d:e0:1a:5a:41:ac:7f:
                    07:f2:a0:91:79:0f:c7:e9:7d:98:58:1e:4f:03:bd:
                    62:d3:2e:7d:c6:a6:e8:19:e6:2a:0a:80:3d:e0:c3:
                    b7:4e:d2:d4:1c:97:38:46:c1:66:7e:3d:3d:01:14:
                    26:53:25:88:2d:9a:27:1c:35:47:f7:c3:59:79:3a:
                    93:57:59:30:02:03:de:f3:aa:87:88:fa:4e:25:51:
                    fd:7b:36:0e:f4:a7:78:99:6a:69:a3:1e:85:43:2b:
                    fe:58:ad:f7:02:66:82:be:e1
                Exponent: 65537 (0x10001)
        X509v3 extensions:
            X509v3 Authority Key Identifier: 
            keyid:DB:F8:6A:15:0A:82:53:1F:C2:EB:CC:D0:6E:83:72:57:E4:45:F2:74

            X509v3 Extended Key Usage: 
            TLS Web Server Authentication, TLS Web Client Authentication, Microsoft Server Gated Crypto, Netscape Server Gated Crypto
            X509v3 Basic Constraints: critical
            CA:FALSE
    Signature Algorithm: md5WithRSAEncryption
        4b:c2:3f:14:36:b6:c8:81:d1:f4:d7:01:36:48:cc:5c:3b:bf:
        af:bd:94:9c:ae:29:14:c9:0d:bc:9b:be:08:50:94:4b:e5:e9:
        6d:94:92:77:c1:28:cb:bf:64:98:91:1e:d4:b3:41:c7:8e:25:
        4a:96:ed:88:41:69:d6:4a:ef:5b:b9:bf:e9:66:93:bc:d5:35:
        2e:35:d9:91:72:e1:65:ab:ba:59:60:11:3b:80:ea:b8:8a:93:
        70:b8:bd:a7:1e:cc:74:09:26:c5:75:b5:66:de:9a:a3:5b:25:
        25:d7:e0:62:7d:f3:a8:dc:66:af:44:61:c2:3e:ab:89:95:26:
        71:f6
-----BEGIN CERTIFICATE-----
MIICzDCCAjWgAwIBAgIBbzANBgkqhkiG9w0BAQQFADB9MQswCQYDVQQGEwJNWTEN
MAsGA1UECBMETUFIQTENMAsGA1UEBxMEUFVORTENMAsGA1UEChMEUFNQTDERMA8G
A1UECxMIT0JMSVgtUUExDzANBgNVBAMTBnBzMjQzNjEdMBsGCSqGSIb3DQEJARYO
c2FnYXJAcHNwbC5jb20wHhcNMDkwMjI3MDkzMTM3WhcNMTAwMjI3MDkzMTM3WjBy
MQswCQYDVQQGEwJJTjETMBEGA1UECBMKTUFIQVJBU1RSQTEOMAwGA1UEBxMFUG9v
bmUxDDAKBgNVBAoTA1BTTDEOMAwGA1UECxMFT2JsaXgxIDAeBgNVBAMTF3BzMjk3
OS5wZXJzaXN0ZW50LmNvLmluMIGfMA0GCSqGSIb3DQEBAQUAA4GNADCBiQKBgQDg
R4OgdWzjwHiQSmLPGm9FU+0FMvGYbeAaWkGsfwfyoJF5D8fpfZhYHk8DvWLTLn3G
pugZ5ioKgD3gw7dO0tQclzhGwWZ+PT0BFCZTJYgtmiccNUf3w1l5OpNXWTACA97z
qoeI+k4lUf17Ng70p3iZammjHoVDK/5YrfcCZoK+4QIDAQABo2cwZTAfBgNVHSME
GDAWgBTb+GoVCoJTH8LrzNBug3JX5EXydDA0BgNVHSUELTArBggrBgEFBQcDAQYI
KwYBBQUHAwIGCisGAQQBgjcKAwMGCWCGSAGG+EIEATAMBgNVHRMBAf8EAjAAMA0G
CSqGSIb3DQEBBAUAA4GBAEvCPxQ2tsiB0fTXATZIzFw7v6+9lJyuKRTJDbybvghQ
lEvl6W2UknfBKMu/ZJiRHtSzQceOJUqW7YhBadZK71u5v+lmk7zVNS412ZFy4WWr
ullgETuA6riKk3C4vacezHQJJsV1tWbemqNbJSXX4GJ986jcZq9EYcI+q4mVJnH2
-----END CERTIFICATE-----
