Certificate:
    Data:
        Version: 3 (0x2)
        Serial Number: 113 (0x71)
        Signature Algorithm: md5WithRSAEncryption
        Issuer: C=MY, ST=MAHA, L=PUNE, O=PSPL, OU=OBLIX-QA, CN=ps2436/emailAddress=sagar@pspl.com
        Validity
            Not Before: Mar  2 08:35:22 2009 GMT
            Not After : Mar  2 08:35:22 2010 GMT
        Subject: C=US, ST=maharashtra, L=pune, O=oracle, OU=oblix, CN=ps2261.persistent.co.in
        Subject Public Key Info:
            Public Key Algorithm: rsaEncryption
            RSA Public Key: (1024 bit)
                Modulus (1024 bit):
                    00:dd:50:44:0f:69:f0:29:b9:96:1b:d7:1f:a9:bb:
                    e0:a7:aa:08:5f:d4:46:4e:ed:34:47:c0:22:a1:37:
                    62:fd:0c:ec:d2:69:90:a9:92:09:ea:4e:b4:c1:4e:
                    e6:93:54:28:d8:2e:d5:8e:8a:fd:4c:6d:a9:1f:46:
                    0f:02:dc:c8:00:d4:88:62:c8:ee:fc:aa:cf:52:0f:
                    a3:94:2f:33:97:ac:68:47:18:a7:1c:70:38:23:4c:
                    39:0a:65:51:e9:a5:ee:d3:3a:0c:2b:92:56:8d:59:
                    bd:c6:ba:a4:45:38:45:77:40:7e:5c:bd:cb:59:08:
                    a2:dd:4c:51:8c:d5:6b:7d:ef
                Exponent: 65537 (0x10001)
        X509v3 extensions:
            X509v3 Authority Key Identifier: 
            keyid:DB:F8:6A:15:0A:82:53:1F:C2:EB:CC:D0:6E:83:72:57:E4:45:F2:74

            X509v3 Extended Key Usage: 
            TLS Web Server Authentication, TLS Web Client Authentication, Microsoft Server Gated Crypto, Netscape Server Gated Crypto
            X509v3 Basic Constraints: critical
            CA:FALSE
    Signature Algorithm: md5WithRSAEncryption
        1d:96:2d:1c:49:fa:3f:8c:82:45:8f:3f:c7:b0:16:55:2f:09:
        aa:41:0e:d8:91:93:bb:13:d2:4e:ec:f6:b4:3f:3c:10:29:3b:
        b7:6c:1c:7e:0c:e1:90:af:d4:19:0d:86:d9:78:27:d2:e2:c9:
        0f:4a:de:d9:3e:6a:71:d8:70:eb:f9:00:7f:5c:d5:fb:c7:b9:
        20:4e:ce:9d:2b:c6:84:a0:ce:9b:a8:44:1d:67:62:7d:12:5e:
        d1:1d:19:5b:45:81:1f:ca:81:13:1c:0c:12:56:ff:3f:34:da:
        1c:c3:af:6b:4a:15:a5:6e:bd:22:27:5b:a0:98:16:5e:c4:0f:
        0f:d6
-----BEGIN CERTIFICATE-----
MIICzzCCAjigAwIBAgIBcTANBgkqhkiG9w0BAQQFADB9MQswCQYDVQQGEwJNWTEN
MAsGA1UECBMETUFIQTENMAsGA1UEBxMEUFVORTENMAsGA1UEChMEUFNQTDERMA8G
A1UECxMIT0JMSVgtUUExDzANBgNVBAMTBnBzMjQzNjEdMBsGCSqGSIb3DQEJARYO
c2FnYXJAcHNwbC5jb20wHhcNMDkwMzAyMDgzNTIyWhcNMTAwMzAyMDgzNTIyWjB1
MQswCQYDVQQGEwJVUzEUMBIGA1UECBMLbWFoYXJhc2h0cmExDTALBgNVBAcTBHB1
bmUxDzANBgNVBAoTBm9yYWNsZTEOMAwGA1UECxMFb2JsaXgxIDAeBgNVBAMTF3Bz
MjI2MS5wZXJzaXN0ZW50LmNvLmluMIGfMA0GCSqGSIb3DQEBAQUAA4GNADCBiQKB
gQDdUEQPafApuZYb1x+pu+Cnqghf1EZO7TRHwCKhN2L9DOzSaZCpkgnqTrTBTuaT
VCjYLtWOiv1MbakfRg8C3MgA1IhiyO78qs9SD6OULzOXrGhHGKcccDgjTDkKZVHp
pe7TOgwrklaNWb3GuqRFOEV3QH5cvctZCKLdTFGM1Wt97wIDAQABo2cwZTAfBgNV
HSMEGDAWgBTb+GoVCoJTH8LrzNBug3JX5EXydDA0BgNVHSUELTArBggrBgEFBQcD
AQYIKwYBBQUHAwIGCisGAQQBgjcKAwMGCWCGSAGG+EIEATAMBgNVHRMBAf8EAjAA
MA0GCSqGSIb3DQEBBAUAA4GBAB2WLRxJ+j+MgkWPP8ewFlUvCapBDtiRk7sT0k7s
9rQ/PBApO7dsHH4M4ZCv1BkNhtl4J9LiyQ9K3tk+anHYcOv5AH9c1fvHuSBOzp0r
xoSgzpuoRB1nYn0SXtEdGVtFgR/KgRMcDBJW/z802hzDr2tKFaVuvSInW6CYFl7E
Dw/W
-----END CERTIFICATE-----
