Certificate:
    Data:
        Version: 3 (0x2)
        Serial Number: 115 (0x73)
        Signature Algorithm: md5WithRSAEncryption
        Issuer: C=MY, ST=MAHA, L=PUNE, O=PSPL, OU=OBLIX-QA, CN=ps2436/emailAddress=sagar@pspl.com
        Validity
            Not Before: Mar  3 06:04:19 2009 GMT
            Not After : Mar  3 06:04:19 2010 GMT
        Subject: CN=Toss Burwell/emailAddress=user1k703@Company.com
        Subject Public Key Info:
            Public Key Algorithm: rsaEncryption
            RSA Public Key: (1024 bit)
                Modulus (1024 bit):
                    00:dd:5e:20:0d:09:b1:64:07:fe:cc:66:0e:f3:32:
                    a8:57:b3:2e:2a:3b:f6:e6:e0:36:e4:2a:a7:be:63:
                    67:af:54:fd:67:a7:f1:83:aa:06:82:fe:e0:18:f7:
                    c1:0c:14:a8:62:d1:52:0f:b2:d1:25:a1:34:cd:ff:
                    be:1e:8d:0a:2a:c0:88:5b:63:b8:fb:df:f8:1f:61:
                    d6:4e:f3:eb:4d:d3:cd:70:56:66:2c:16:b9:b3:71:
                    6e:d7:60:3d:d6:8d:39:41:e7:9b:88:3e:1f:d8:d8:
                    67:87:0c:90:77:bf:2b:6f:9e:65:0d:5d:5f:e0:7a:
                    ba:90:cd:61:8f:41:42:b9:ef
                Exponent: 65537 (0x10001)
        X509v3 extensions:
            X509v3 Subject Alternative Name: 
            email:user1k703@Company.com
            X509v3 Basic Constraints: critical
            CA:FALSE
            X509v3 Authority Key Identifier: 
            keyid:DB:F8:6A:15:0A:82:53:1F:C2:EB:CC:D0:6E:83:72:57:E4:45:F2:74

            X509v3 Extended Key Usage: 
            TLS Web Client Authentication, E-mail Protection
    Signature Algorithm: md5WithRSAEncryption
        91:25:30:64:61:8a:8e:64:4f:0a:2a:74:de:2b:97:3e:35:19:
        ce:4e:34:1f:b7:95:6b:8a:9c:2d:d6:c0:65:70:b6:30:9a:8e:
        2e:08:54:ac:38:25:97:7b:83:97:83:0b:d1:71:1e:a3:99:08:
        1d:bd:72:27:70:6c:36:26:e7:bb:66:ce:a1:9e:4a:23:1b:50:
        a2:d1:7b:bd:eb:c6:e3:fc:58:33:40:16:7e:34:34:54:54:6a:
        50:f1:7c:00:24:75:59:83:07:13:21:52:19:86:4d:06:bb:2e:
        f8:6a:cf:43:80:c0:94:3f:f3:70:f6:0b:9a:e5:f5:29:76:ae:
        a9:d4
-----BEGIN CERTIFICATE-----
MIICojCCAgugAwIBAgIBczANBgkqhkiG9w0BAQQFADB9MQswCQYDVQQGEwJNWTEN
MAsGA1UECBMETUFIQTENMAsGA1UEBxMEUFVORTENMAsGA1UEChMEUFNQTDERMA8G
A1UECxMIT0JMSVgtUUExDzANBgNVBAMTBnBzMjQzNjEdMBsGCSqGSIb3DQEJARYO
c2FnYXJAcHNwbC5jb20wHhcNMDkwMzAzMDYwNDE5WhcNMTAwMzAzMDYwNDE5WjA9
MRUwEwYDVQQDEwxUb3NzIEJ1cndlbGwxJDAiBgkqhkiG9w0BCQEWFXVzZXIxazcw
M0BDb21wYW55LmNvbTCBnzANBgkqhkiG9w0BAQEFAAOBjQAwgYkCgYEA3V4gDQmx
ZAf+zGYO8zKoV7MuKjv25uA25CqnvmNnr1T9Z6fxg6oGgv7gGPfBDBSoYtFSD7LR
JaE0zf++Ho0KKsCIW2O4+9/4H2HWTvPrTdPNcFZmLBa5s3Fu12A91o05QeebiD4f
2NhnhwyQd78rb55lDV1f4Hq6kM1hj0FCue8CAwEAAaNyMHAwIAYDVR0RBBkwF4EV
dXNlcjFrNzAzQENvbXBhbnkuY29tMAwGA1UdEwEB/wQCMAAwHwYDVR0jBBgwFoAU
2/hqFQqCUx/C68zQboNyV+RF8nQwHQYDVR0lBBYwFAYIKwYBBQUHAwIGCCsGAQUF
BwMEMA0GCSqGSIb3DQEBBAUAA4GBAJElMGRhio5kTwoqdN4rlz41Gc5ONB+3lWuK
nC3WwGVwtjCaji4IVKw4JZd7g5eDC9FxHqOZCB29cidwbDYm57tmzqGeSiMbUKLR
e73rxuP8WDNAFn40NFRUalDxfAAkdVmDBxMhUhmGTQa7Lvhqz0OAwJQ/83D2C5rl
9Sl2rqnU
-----END CERTIFICATE-----
