Certificate:
    Data:
        Version: 3 (0x2)
        Serial Number: 117 (0x75)
        Signature Algorithm: md5WithRSAEncryption
        Issuer: C=MY, ST=MAHA, L=PUNE, O=PSPL, OU=OBLIX-QA, CN=ps2436/emailAddress=sagar@pspl.com
        Validity
            Not Before: Mar  3 10:09:21 2009 GMT
            Not After : Mar  3 10:09:21 2010 GMT
        Subject: C=IN, ST=maha, L=pune, O=psl, OU=oblix, CN=stbbm06-2.us.oracle.com
        Subject Public Key Info:
            Public Key Algorithm: rsaEncryption
            RSA Public Key: (1024 bit)
                Modulus (1024 bit):
                    00:9f:21:74:73:f7:1d:83:ea:5d:de:88:ac:fc:46:
                    07:8a:e0:47:53:4f:47:ff:c4:bd:70:12:22:5a:1a:
                    49:e4:f6:4f:7f:85:28:49:fc:02:b0:94:88:4c:97:
                    70:79:b3:0a:79:23:57:8b:1e:29:80:73:88:4a:53:
                    4e:17:93:0c:d7:13:30:ed:b5:86:98:95:c7:24:24:
                    84:a1:e4:e3:49:c7:c1:2b:44:b4:3b:92:c1:b0:41:
                    a9:96:98:18:27:84:40:e0:ef:cc:d8:2c:cd:ab:f5:
                    b5:ec:c5:58:a2:e8:1f:ee:04:bd:9f:46:d7:23:9e:
                    da:06:2c:19:94:fa:71:83:29
                Exponent: 65537 (0x10001)
        X509v3 extensions:
            X509v3 Authority Key Identifier: 
            keyid:DB:F8:6A:15:0A:82:53:1F:C2:EB:CC:D0:6E:83:72:57:E4:45:F2:74

            X509v3 Extended Key Usage: 
            TLS Web Server Authentication, TLS Web Client Authentication, Microsoft Server Gated Crypto, Netscape Server Gated Crypto
            X509v3 Basic Constraints: critical
            CA:FALSE
    Signature Algorithm: md5WithRSAEncryption
        88:bf:03:86:9a:f2:18:78:de:7d:f9:56:05:0c:3c:9f:a2:3d:
        f9:b8:91:87:ca:2a:8e:a4:04:42:2d:36:be:67:3b:98:c4:ea:
        33:87:13:46:df:7d:ae:d5:29:25:89:eb:33:2d:92:ea:df:0d:
        5f:d1:f1:00:ea:65:78:cf:4d:d1:d8:9e:85:0b:37:6f:ae:81:
        3b:b7:8f:d7:04:d9:57:90:0a:1f:18:de:68:cb:8c:5c:56:a0:
        b2:d6:37:9c:00:cd:2d:86:69:c4:d6:35:ca:34:02:ca:03:2a:
        1c:6b:d2:62:97:a5:1e:54:42:98:8d:3c:80:d8:a7:5f:28:0e:
        28:e5
-----BEGIN CERTIFICATE-----
MIICxTCCAi6gAwIBAgIBdTANBgkqhkiG9w0BAQQFADB9MQswCQYDVQQGEwJNWTEN
MAsGA1UECBMETUFIQTENMAsGA1UEBxMEUFVORTENMAsGA1UEChMEUFNQTDERMA8G
A1UECxMIT0JMSVgtUUExDzANBgNVBAMTBnBzMjQzNjEdMBsGCSqGSIb3DQEJARYO
c2FnYXJAcHNwbC5jb20wHhcNMDkwMzAzMTAwOTIxWhcNMTAwMzAzMTAwOTIxWjBr
MQswCQYDVQQGEwJJTjENMAsGA1UECBMEbWFoYTENMAsGA1UEBxMEcHVuZTEMMAoG
A1UEChMDcHNsMQ4wDAYDVQQLEwVvYmxpeDEgMB4GA1UEAxMXc3RiYm0wNi0yLnVz
Lm9yYWNsZS5jb20wgZ8wDQYJKoZIhvcNAQEBBQADgY0AMIGJAoGBAJ8hdHP3HYPq
Xd6IrPxGB4rgR1NPR//EvXASIloaSeT2T3+FKEn8ArCUiEyXcHmzCnkjV4seKYBz
iEpTTheTDNcTMO21hpiVxyQkhKHk40nHwStEtDuSwbBBqZaYGCeEQODvzNgszav1
tezFWKLoH+4EvZ9G1yOe2gYsGZT6cYMpAgMBAAGjZzBlMB8GA1UdIwQYMBaAFNv4
ahUKglMfwuvM0G6DclfkRfJ0MDQGA1UdJQQtMCsGCCsGAQUFBwMBBggrBgEFBQcD
AgYKKwYBBAGCNwoDAwYJYIZIAYb4QgQBMAwGA1UdEwEB/wQCMAAwDQYJKoZIhvcN
AQEEBQADgYEAiL8DhpryGHjefflWBQw8n6I9+biRh8oqjqQEQi02vmc7mMTqM4cT
Rt99rtUpJYnrMy2S6t8NX9HxAOpleM9N0diehQs3b66BO7eP1wTZV5AKHxjeaMuM
XFagstY3nADNLYZpxNY1yjQCygMqHGvSYpelHlRCmI08gNinXygOKOU=
-----END CERTIFICATE-----
