Certificate:
    Data:
        Version: 3 (0x2)
        Serial Number: 118 (0x76)
        Signature Algorithm: md5WithRSAEncryption
        Issuer: C=MY, ST=MAHA, L=PUNE, O=PSPL, OU=OBLIX-QA, CN=ps2436/emailAddress=sagar@pspl.com
        Validity
            Not Before: Mar  6 07:12:12 2009 GMT
            Not After : Mar  6 07:12:12 2010 GMT
        Subject: C=IN, ST=Maharashtra, L=Pune, O=oblix, OU=oracle, CN=v-ps4572-v1
        Subject Public Key Info:
            Public Key Algorithm: rsaEncryption
            RSA Public Key: (1024 bit)
                Modulus (1024 bit):
                    00:dd:c0:71:98:eb:74:77:b2:cb:b9:a2:dd:f1:da:
                    05:e4:82:62:74:6d:52:43:f7:92:87:a2:b7:a9:74:
                    b2:75:0a:4c:c5:3c:c9:b4:f5:21:ec:83:e7:37:85:
                    9e:da:f2:ba:38:f7:13:31:c5:55:da:e7:69:0a:74:
                    89:d0:99:12:6a:48:20:e5:a5:a9:24:0e:f6:b0:6d:
                    c2:6a:0c:fe:9e:24:6a:cd:30:f5:85:b1:a8:64:00:
                    65:43:72:4a:d5:b2:f1:5a:d2:7f:02:87:2d:3d:ca:
                    8c:64:35:49:e9:48:26:1c:98:4d:61:ce:9d:5b:56:
                    f8:8a:23:29:41:d3:26:e1:63
                Exponent: 65537 (0x10001)
        X509v3 extensions:
            X509v3 Authority Key Identifier: 
            keyid:DB:F8:6A:15:0A:82:53:1F:C2:EB:CC:D0:6E:83:72:57:E4:45:F2:74

            X509v3 Extended Key Usage: 
            TLS Web Server Authentication, TLS Web Client Authentication, Microsoft Server Gated Crypto, Netscape Server Gated Crypto
            X509v3 Basic Constraints: critical
            CA:FALSE
    Signature Algorithm: md5WithRSAEncryption
        55:85:00:eb:c7:b1:b3:76:34:ec:8c:f6:7d:4c:fa:f9:58:fc:
        45:2a:4f:75:40:19:fe:bf:8c:99:e2:8c:ed:41:0b:42:3d:4f:
        5d:c9:74:95:0f:09:0f:2c:f1:9b:57:e7:15:1c:77:5e:7b:84:
        21:63:10:14:80:84:96:df:67:4d:b3:40:69:c7:90:b0:dc:08:
        75:49:9f:7f:ac:bb:c7:16:48:34:15:29:c5:4e:ec:c1:e5:e5:
        5d:15:69:ce:33:8d:f6:46:5d:58:67:e3:90:76:f9:98:cd:6b:
        c3:c6:1c:da:db:5d:60:85:ca:76:bc:b2:22:2c:d3:d1:18:9b:
        a9:1e
-----BEGIN CERTIFICATE-----
MIICwzCCAiygAwIBAgIBdjANBgkqhkiG9w0BAQQFADB9MQswCQYDVQQGEwJNWTEN
MAsGA1UECBMETUFIQTENMAsGA1UEBxMEUFVORTENMAsGA1UEChMEUFNQTDERMA8G
A1UECxMIT0JMSVgtUUExDzANBgNVBAMTBnBzMjQzNjEdMBsGCSqGSIb3DQEJARYO
c2FnYXJAcHNwbC5jb20wHhcNMDkwMzA2MDcxMjEyWhcNMTAwMzA2MDcxMjEyWjBp
MQswCQYDVQQGEwJJTjEUMBIGA1UECBMLTWFoYXJhc2h0cmExDTALBgNVBAcTBFB1
bmUxDjAMBgNVBAoTBW9ibGl4MQ8wDQYDVQQLEwZvcmFjbGUxFDASBgNVBAMTC3Yt
cHM0NTcyLXYxMIGfMA0GCSqGSIb3DQEBAQUAA4GNADCBiQKBgQDdwHGY63R3ssu5
ot3x2gXkgmJ0bVJD95KHorepdLJ1CkzFPMm09SHsg+c3hZ7a8ro49xMxxVXa52kK
dInQmRJqSCDlpakkDvawbcJqDP6eJGrNMPWFsahkAGVDckrVsvFa0n8Chy09yoxk
NUnpSCYcmE1hzp1bVviKIylB0ybhYwIDAQABo2cwZTAfBgNVHSMEGDAWgBTb+GoV
CoJTH8LrzNBug3JX5EXydDA0BgNVHSUELTArBggrBgEFBQcDAQYIKwYBBQUHAwIG
CisGAQQBgjcKAwMGCWCGSAGG+EIEATAMBgNVHRMBAf8EAjAAMA0GCSqGSIb3DQEB
BAUAA4GBAFWFAOvHsbN2NOyM9n1M+vlY/EUqT3VAGf6/jJnijO1BC0I9T13JdJUP
CQ8s8ZtX5xUcd157hCFjEBSAhJbfZ02zQGnHkLDcCHVJn3+su8cWSDQVKcVO7MHl
5V0Vac4zjfZGXVhn45B2+ZjNa8PGHNrbXWCFyna8siIs09EYm6ke
-----END CERTIFICATE-----
