Certificate:
    Data:
        Version: 3 (0x2)
        Serial Number: 123 (0x7b)
        Signature Algorithm: md5WithRSAEncryption
        Issuer: C=MY, ST=MAHA, L=PUNE, O=PSPL, OU=OBLIX-QA, CN=ps2436/emailAddress=sagar@pspl.com
        Validity
            Not Before: Mar 16 06:39:10 2009 GMT
            Not After : Mar 16 06:39:10 2010 GMT
        Subject: CN=Jane Xu/emailAddress=jane.xu@oracle.com
        Subject Public Key Info:
            Public Key Algorithm: rsaEncryption
            RSA Public Key: (1024 bit)
                Modulus (1024 bit):
                    00:c4:eb:70:27:69:0e:b6:96:b0:ea:e4:b0:fe:6e:
                    c0:56:ca:93:05:df:8b:91:f8:d5:9a:8f:ea:21:c0:
                    16:32:90:61:54:f6:63:53:a5:79:e0:21:a8:f3:67:
                    04:0d:2c:03:b7:c8:52:9c:d9:4b:37:ee:14:ab:52:
                    11:e1:3c:ec:6d:5a:a0:b5:f9:cf:66:8b:0e:6d:d1:
                    c4:3d:f7:2d:98:1f:20:f0:d4:8e:b2:be:03:6c:30:
                    11:c3:ff:82:f8:41:06:b2:bc:1b:9f:82:33:d5:66:
                    bf:79:d6:98:c8:17:31:90:ef:ca:e5:ed:13:03:3e:
                    e9:a4:b9:16:2d:31:70:dc:53
                Exponent: 65537 (0x10001)
        X509v3 extensions:
            X509v3 Authority Key Identifier: 
            keyid:DB:F8:6A:15:0A:82:53:1F:C2:EB:CC:D0:6E:83:72:57:E4:45:F2:74

            X509v3 Extended Key Usage: 
            TLS Web Server Authentication, TLS Web Client Authentication, Microsoft Server Gated Crypto, Netscape Server Gated Crypto
            X509v3 Basic Constraints: critical
            CA:FALSE
    Signature Algorithm: md5WithRSAEncryption
        18:78:53:85:9a:cd:c1:a1:e4:10:b3:c4:ba:da:6e:33:0b:cb:
        de:29:de:1d:e7:a6:cf:6e:d6:cb:10:9a:11:ca:9b:4c:df:1c:
        47:83:0f:55:21:48:2e:77:a6:90:7e:73:ae:d9:a3:4f:4e:3f:
        06:2a:d2:0d:8e:34:a3:d9:43:68:85:4c:28:9c:aa:f8:50:c7:
        bd:1d:82:b2:e9:0d:eb:a7:83:6f:7a:fc:94:63:ce:1f:aa:9f:
        d4:9d:53:ef:52:2f:3a:3e:f6:95:34:a6:be:02:f7:43:a4:ea:
        0a:3c:8c:d6:58:66:39:c5:25:ae:66:49:e2:8f:2f:54:27:90:
        08:62
-----BEGIN CERTIFICATE-----
MIICjzCCAfigAwIBAgIBezANBgkqhkiG9w0BAQQFADB9MQswCQYDVQQGEwJNWTEN
MAsGA1UECBMETUFIQTENMAsGA1UEBxMEUFVORTENMAsGA1UEChMEUFNQTDERMA8G
A1UECxMIT0JMSVgtUUExDzANBgNVBAMTBnBzMjQzNjEdMBsGCSqGSIb3DQEJARYO
c2FnYXJAcHNwbC5jb20wHhcNMDkwMzE2MDYzOTEwWhcNMTAwMzE2MDYzOTEwWjA1
MRAwDgYDVQQDEwdKYW5lIFh1MSEwHwYJKoZIhvcNAQkBFhJqYW5lLnh1QG9yYWNs
ZS5jb20wgZ8wDQYJKoZIhvcNAQEBBQADgY0AMIGJAoGBAMTrcCdpDraWsOrksP5u
wFbKkwXfi5H41ZqP6iHAFjKQYVT2Y1OleeAhqPNnBA0sA7fIUpzZSzfuFKtSEeE8
7G1aoLX5z2aLDm3RxD33LZgfIPDUjrK+A2wwEcP/gvhBBrK8G5+CM9Vmv3nWmMgX
MZDvyuXtEwM+6aS5Fi0xcNxTAgMBAAGjZzBlMB8GA1UdIwQYMBaAFNv4ahUKglMf
wuvM0G6DclfkRfJ0MDQGA1UdJQQtMCsGCCsGAQUFBwMBBggrBgEFBQcDAgYKKwYB
BAGCNwoDAwYJYIZIAYb4QgQBMAwGA1UdEwEB/wQCMAAwDQYJKoZIhvcNAQEEBQAD
gYEAGHhThZrNwaHkELPEutpuMwvL3ineHeemz27WyxCaEcqbTN8cR4MPVSFILnem
kH5zrtmjT04/BirSDY40o9lDaIVMKJyq+FDHvR2CsukN66eDb3r8lGPOH6qf1J1T
71IvOj72lTSmvgL3Q6TqCjyM1lhmOcUlrmZJ4o8vVCeQCGI=
-----END CERTIFICATE-----
