Certificate:
    Data:
        Version: 3 (0x2)
        Serial Number: 124 (0x7c)
        Signature Algorithm: md5WithRSAEncryption
        Issuer: C=MY, ST=MAHA, L=PUNE, O=PSPL, OU=OBLIX-QA, CN=ps2436/emailAddress=sagar@pspl.com
        Validity
            Not Before: Mar 16 07:35:48 2009 GMT
            Not After : Mar 16 07:35:48 2010 GMT
        Subject: CN=orcladmin/emailAddress=orcladmin
        Subject Public Key Info:
            Public Key Algorithm: rsaEncryption
            RSA Public Key: (1024 bit)
                Modulus (1024 bit):
                    00:aa:f9:3c:f5:60:ee:a2:87:87:1f:0b:97:cb:b5:
                    51:6b:b0:97:99:99:f4:fa:fc:ac:38:e6:8b:ca:00:
                    bb:2a:55:b0:f9:d7:30:45:ce:6c:d3:83:90:66:51:
                    f6:e3:25:51:b0:49:2d:f1:72:5d:58:0c:de:6a:dd:
                    ea:fe:03:c0:5b:db:e9:7a:d5:d9:ab:e1:72:51:4c:
                    39:e3:cf:94:e8:79:08:fe:b2:bc:b3:ef:a2:89:30:
                    83:1c:b8:52:dd:fe:13:c8:c0:ee:16:19:11:01:49:
                    3a:f2:41:c2:79:31:47:d7:00:5b:89:f6:ac:38:bd:
                    1a:76:ae:c1:ba:45:81:c2:29
                Exponent: 65537 (0x10001)
        X509v3 extensions:
            X509v3 Subject Alternative Name: 
            email:orcladmin
            X509v3 Basic Constraints: critical
            CA:FALSE
            X509v3 Authority Key Identifier: 
            keyid:DB:F8:6A:15:0A:82:53:1F:C2:EB:CC:D0:6E:83:72:57:E4:45:F2:74

            X509v3 Extended Key Usage: 
            TLS Web Client Authentication, E-mail Protection
    Signature Algorithm: md5WithRSAEncryption
        0b:2f:ab:65:a0:5f:fa:7a:87:0a:9a:b6:f7:e2:28:68:0e:5d:
        da:7a:b4:96:4c:fb:39:31:df:93:14:85:32:62:84:97:ba:2e:
        88:43:2d:f7:c2:bd:8d:93:16:20:96:a9:aa:d0:00:39:ee:a6:
        7a:0e:b3:e1:a4:1b:1d:5c:37:56:67:9d:c5:63:ce:e9:68:a6:
        ce:80:c2:20:52:e1:e0:c4:1f:77:0c:3c:06:82:60:b7:f9:85:
        2e:17:a4:bb:5e:f1:cf:a9:93:38:d1:c5:a4:72:f3:b2:01:95:
        65:39:35:bd:68:46:1d:f6:e7:c9:03:e4:05:06:9b:5c:d2:c2:
        07:94
-----BEGIN CERTIFICATE-----
MIIChzCCAfCgAwIBAgIBfDANBgkqhkiG9w0BAQQFADB9MQswCQYDVQQGEwJNWTEN
MAsGA1UECBMETUFIQTENMAsGA1UEBxMEUFVORTENMAsGA1UEChMEUFNQTDERMA8G
A1UECxMIT0JMSVgtUUExDzANBgNVBAMTBnBzMjQzNjEdMBsGCSqGSIb3DQEJARYO
c2FnYXJAcHNwbC5jb20wHhcNMDkwMzE2MDczNTQ4WhcNMTAwMzE2MDczNTQ4WjAu
MRIwEAYDVQQDEwlvcmNsYWRtaW4xGDAWBgkqhkiG9w0BCQEWCW9yY2xhZG1pbjCB
nzANBgkqhkiG9w0BAQEFAAOBjQAwgYkCgYEAqvk89WDuooeHHwuXy7VRa7CXmZn0
+vysOOaLygC7KlWw+dcwRc5s04OQZlH24yVRsEkt8XJdWAzeat3q/gPAW9vpetXZ
q+FyUUw548+U6HkI/rK8s++iiTCDHLhS3f4TyMDuFhkRAUk68kHCeTFH1wBbifas
OL0adq7BukWBwikCAwEAAaNmMGQwFAYDVR0RBA0wC4EJb3JjbGFkbWluMAwGA1Ud
EwEB/wQCMAAwHwYDVR0jBBgwFoAU2/hqFQqCUx/C68zQboNyV+RF8nQwHQYDVR0l
BBYwFAYIKwYBBQUHAwIGCCsGAQUFBwMEMA0GCSqGSIb3DQEBBAUAA4GBAAsvq2Wg
X/p6hwqatvfiKGgOXdp6tJZM+zkx35MUhTJihJe6LohDLffCvY2TFiCWqarQADnu
pnoOs+GkGx1cN1ZnncVjzulops6AwiBS4eDEH3cMPAaCYLf5hS4XpLte8c+pkzjR
xaRy87IBlWU5Nb1oRh3258kD5AUGm1zSwgeU
-----END CERTIFICATE-----
