Certificate:
    Data:
        Version: 3 (0x2)
        Serial Number: 126 (0x7e)
        Signature Algorithm: md5WithRSAEncryption
        Issuer: C=MY, ST=MAHA, L=PUNE, O=PSPL, OU=OBLIX-QA, CN=ps2436/emailAddress=sagar@pspl.com
        Validity
            Not Before: Mar 16 07:39:48 2009 GMT
            Not After : Mar 16 07:39:48 2010 GMT
        Subject: CN=orcladmin/emailAddress=orcladmin
        Subject Public Key Info:
            Public Key Algorithm: rsaEncryption
            RSA Public Key: (1024 bit)
                Modulus (1024 bit):
                    00:eb:f1:4b:ef:25:3a:f5:d1:4e:07:52:7b:12:ad:
                    59:94:45:ff:39:d0:8e:d4:46:29:38:01:3d:06:3f:
                    32:11:3f:93:0b:7f:7d:02:fe:64:3e:b3:5a:af:1b:
                    3e:ae:f0:a8:63:91:e5:e2:32:84:99:c5:49:13:bb:
                    33:cb:cb:dc:70:4b:e5:f7:20:73:6a:d7:8a:66:6f:
                    92:8e:2d:88:a9:48:2b:43:6a:e0:ad:ee:22:04:39:
                    fe:fa:6c:4e:35:a7:aa:e0:b7:49:cb:0e:e8:ce:ce:
                    75:d3:97:75:29:9d:6c:51:5f:48:ed:b1:cb:88:af:
                    4e:83:9d:91:da:a3:70:22:3d
                Exponent: 65537 (0x10001)
        X509v3 extensions:
            X509v3 Subject Alternative Name: 
            email:orcladmin
            X509v3 Basic Constraints: critical
            CA:FALSE
            X509v3 Authority Key Identifier: 
            keyid:DB:F8:6A:15:0A:82:53:1F:C2:EB:CC:D0:6E:83:72:57:E4:45:F2:74

            X509v3 Extended Key Usage: 
            TLS Web Client Authentication, E-mail Protection
    Signature Algorithm: md5WithRSAEncryption
        61:5c:b5:d5:43:17:e9:08:fb:74:24:57:1a:ee:36:a2:e8:5a:
        87:0b:b7:3b:b9:57:58:df:4c:39:5b:16:26:ae:bf:f0:e4:39:
        d1:09:60:39:11:45:ef:75:49:8a:72:c8:c0:1e:d1:5a:f6:41:
        1d:16:00:de:d5:93:09:d9:2e:a3:9a:82:5b:d5:4a:5c:92:86:
        ee:b4:7a:e1:0f:c2:df:c1:2f:2c:53:d2:b6:30:14:f2:50:ec:
        67:64:99:23:96:0b:9a:63:05:03:bc:fc:5c:55:06:f2:47:57:
        74:f7:4f:18:77:1f:b8:23:ef:0e:84:b8:58:50:54:56:b4:1d:
        c6:9e
-----BEGIN CERTIFICATE-----
MIIChzCCAfCgAwIBAgIBfjANBgkqhkiG9w0BAQQFADB9MQswCQYDVQQGEwJNWTEN
MAsGA1UECBMETUFIQTENMAsGA1UEBxMEUFVORTENMAsGA1UEChMEUFNQTDERMA8G
A1UECxMIT0JMSVgtUUExDzANBgNVBAMTBnBzMjQzNjEdMBsGCSqGSIb3DQEJARYO
c2FnYXJAcHNwbC5jb20wHhcNMDkwMzE2MDczOTQ4WhcNMTAwMzE2MDczOTQ4WjAu
MRIwEAYDVQQDEwlvcmNsYWRtaW4xGDAWBgkqhkiG9w0BCQEWCW9yY2xhZG1pbjCB
nzANBgkqhkiG9w0BAQEFAAOBjQAwgYkCgYEA6/FL7yU69dFOB1J7Eq1ZlEX/OdCO
1EYpOAE9Bj8yET+TC399Av5kPrNarxs+rvCoY5Hl4jKEmcVJE7szy8vccEvl9yBz
ateKZm+Sji2IqUgrQ2rgre4iBDn++mxONaeq4LdJyw7ozs5105d1KZ1sUV9I7bHL
iK9Og52R2qNwIj0CAwEAAaNmMGQwFAYDVR0RBA0wC4EJb3JjbGFkbWluMAwGA1Ud
EwEB/wQCMAAwHwYDVR0jBBgwFoAU2/hqFQqCUx/C68zQboNyV+RF8nQwHQYDVR0l
BBYwFAYIKwYBBQUHAwIGCCsGAQUFBwMEMA0GCSqGSIb3DQEBBAUAA4GBAGFctdVD
F+kI+3QkVxruNqLoWocLtzu5V1jfTDlbFiauv/DkOdEJYDkRRe91SYpyyMAe0Vr2
QR0WAN7VkwnZLqOaglvVSlyShu60euEPwt/BLyxT0rYwFPJQ7GdkmSOWC5pjBQO8
/FxVBvJHV3T3Txh3H7gj7w6EuFhQVFa0Hcae
-----END CERTIFICATE-----
