Certificate:
    Data:
        Version: 3 (0x2)
        Serial Number: 127 (0x7f)
        Signature Algorithm: md5WithRSAEncryption
        Issuer: C=MY, ST=MAHA, L=PUNE, O=PSPL, OU=OBLIX-QA, CN=ps2436/emailAddress=sagar@pspl.com
        Validity
            Not Before: Mar 16 07:40:45 2009 GMT
            Not After : Mar 16 07:40:45 2010 GMT
        Subject: CN=Anil Gupta/emailAddress=anil.gupta@oracle.com
        Subject Public Key Info:
            Public Key Algorithm: rsaEncryption
            RSA Public Key: (1024 bit)
                Modulus (1024 bit):
                    00:d8:f1:ce:38:68:fd:53:19:c4:ce:bb:d8:ed:4c:
                    38:fa:37:9c:0d:b0:9d:75:ba:af:99:3c:2f:9c:4f:
                    51:d4:c0:f6:95:ed:b0:65:06:92:da:b0:3f:41:f1:
                    31:ef:8e:ec:cf:ac:d4:7d:68:ce:b8:2b:15:47:84:
                    d6:3d:f4:cc:a2:29:91:8c:20:a0:19:f6:2f:4c:cb:
                    ee:d2:5a:a9:8e:b5:33:a4:cd:b6:90:3b:a9:7f:81:
                    b8:30:d0:aa:1a:e5:30:be:a4:85:f8:2a:19:f3:82:
                    92:0e:80:b8:58:61:84:b1:1b:48:1a:44:1a:31:9c:
                    38:68:8f:3f:72:f8:ff:3e:8b
                Exponent: 65537 (0x10001)
        X509v3 extensions:
            X509v3 Subject Alternative Name: 
            email:anil.gupta@oracle.com
            X509v3 Basic Constraints: critical
            CA:FALSE
            X509v3 Authority Key Identifier: 
            keyid:DB:F8:6A:15:0A:82:53:1F:C2:EB:CC:D0:6E:83:72:57:E4:45:F2:74

            X509v3 Extended Key Usage: 
            TLS Web Client Authentication, E-mail Protection
    Signature Algorithm: md5WithRSAEncryption
        ab:eb:25:f5:36:7b:0c:9a:a1:3d:86:ae:67:5a:d5:d3:67:bd:
        71:53:3f:cc:1b:18:48:dc:b3:2f:ba:ba:7f:10:14:39:7d:7d:
        0e:f3:87:48:0b:fa:84:6b:7f:d5:0b:67:e1:21:e8:08:60:4b:
        e7:6f:c6:ef:08:c3:a2:68:a3:4b:3a:d6:3f:7d:8d:c6:9a:77:
        6d:b9:18:9b:e2:9e:d5:91:75:63:12:a6:c9:6a:c7:69:40:7d:
        0b:bb:26:43:a8:c1:31:9e:19:ca:1f:bf:c8:65:99:8e:80:ed:
        82:24:be:0d:d1:0a:56:d7:d4:96:a2:47:78:5c:eb:c5:f3:e9:
        2d:29
-----BEGIN CERTIFICATE-----
MIICoDCCAgmgAwIBAgIBfzANBgkqhkiG9w0BAQQFADB9MQswCQYDVQQGEwJNWTEN
MAsGA1UECBMETUFIQTENMAsGA1UEBxMEUFVORTENMAsGA1UEChMEUFNQTDERMA8G
A1UECxMIT0JMSVgtUUExDzANBgNVBAMTBnBzMjQzNjEdMBsGCSqGSIb3DQEJARYO
c2FnYXJAcHNwbC5jb20wHhcNMDkwMzE2MDc0MDQ1WhcNMTAwMzE2MDc0MDQ1WjA7
MRMwEQYDVQQDEwpBbmlsIEd1cHRhMSQwIgYJKoZIhvcNAQkBFhVhbmlsLmd1cHRh
QG9yYWNsZS5jb20wgZ8wDQYJKoZIhvcNAQEBBQADgY0AMIGJAoGBANjxzjho/VMZ
xM672O1MOPo3nA2wnXW6r5k8L5xPUdTA9pXtsGUGktqwP0HxMe+O7M+s1H1ozrgr
FUeE1j30zKIpkYwgoBn2L0zL7tJaqY61M6TNtpA7qX+BuDDQqhrlML6khfgqGfOC
kg6AuFhhhLEbSBpEGjGcOGiPP3L4/z6LAgMBAAGjcjBwMCAGA1UdEQQZMBeBFWFu
aWwuZ3VwdGFAb3JhY2xlLmNvbTAMBgNVHRMBAf8EAjAAMB8GA1UdIwQYMBaAFNv4
ahUKglMfwuvM0G6DclfkRfJ0MB0GA1UdJQQWMBQGCCsGAQUFBwMCBggrBgEFBQcD
BDANBgkqhkiG9w0BAQQFAAOBgQCr6yX1NnsMmqE9hq5nWtXTZ71xUz/MGxhI3LMv
urp/EBQ5fX0O84dIC/qEa3/VC2fhIegIYEvnb8bvCMOiaKNLOtY/fY3GmndtuRib
4p7VkXVjEqbJasdpQH0LuyZDqMExnhnKH7/IZZmOgO2CJL4N0QpW19SWokd4XOvF
8+ktKQ==
-----END CERTIFICATE-----
