Certificate:
    Data:
        Version: 3 (0x2)
        Serial Number: 128 (0x80)
        Signature Algorithm: md5WithRSAEncryption
        Issuer: C=MY, ST=MAHA, L=PUNE, O=PSPL, OU=OBLIX-QA, CN=ps2436/emailAddress=sagar@pspl.com
        Validity
            Not Before: Mar 16 08:12:40 2009 GMT
            Not After : Mar 16 08:12:40 2010 GMT
        Subject: CN=Anil Gupta/emailAddress=anil.gupta@oracle.com
        Subject Public Key Info:
            Public Key Algorithm: rsaEncryption
            RSA Public Key: (1024 bit)
                Modulus (1024 bit):
                    00:d4:06:7f:16:e2:15:b7:9e:f2:39:21:86:a7:53:
                    17:50:7c:da:88:bc:15:95:1b:c7:04:29:6b:dc:b8:
                    95:d0:c7:c6:9a:e6:b9:18:b7:ad:4d:dc:26:df:3e:
                    ff:ae:fe:1d:ed:9a:05:45:34:d0:cb:20:1e:70:69:
                    95:46:8d:b8:00:61:ea:94:45:ae:69:f6:3b:67:a1:
                    04:f5:5d:11:61:96:6d:1b:99:58:d1:07:4c:2f:f2:
                    07:d0:b3:bf:f2:9f:c3:2a:d7:d0:c2:69:34:b0:48:
                    03:75:55:a1:69:fd:d9:b7:61:8f:65:1d:95:19:af:
                    14:04:d1:fb:2d:3e:06:bf:4f
                Exponent: 65537 (0x10001)
        X509v3 extensions:
            X509v3 Subject Alternative Name: 
            email:anil.gupta@oracle.com
            X509v3 Basic Constraints: critical
            CA:FALSE
            X509v3 Authority Key Identifier: 
            keyid:DB:F8:6A:15:0A:82:53:1F:C2:EB:CC:D0:6E:83:72:57:E4:45:F2:74

            X509v3 Extended Key Usage: 
            TLS Web Client Authentication, E-mail Protection
    Signature Algorithm: md5WithRSAEncryption
        9d:68:e5:73:94:c5:78:37:9e:69:d2:f3:77:28:77:51:e3:66:
        97:90:28:f8:dd:1b:a9:7b:70:dd:1b:34:d9:64:e2:19:8d:d5:
        b9:66:58:34:e0:e8:57:6f:00:7e:f4:e6:6d:05:a3:ad:20:df:
        1a:ad:bf:a7:05:53:48:31:65:fc:db:6f:30:32:73:e0:43:5d:
        be:32:f1:88:6a:8f:01:21:16:79:ea:53:ff:78:09:24:e4:96:
        a0:7a:7a:d7:91:0f:82:08:d5:1e:5d:0a:4e:05:f9:76:89:02:
        38:a5:a4:d1:4b:1a:6c:92:da:c0:18:3a:e5:5b:2e:67:6f:db:
        2e:59
-----BEGIN CERTIFICATE-----
MIICoTCCAgqgAwIBAgICAIAwDQYJKoZIhvcNAQEEBQAwfTELMAkGA1UEBhMCTVkx
DTALBgNVBAgTBE1BSEExDTALBgNVBAcTBFBVTkUxDTALBgNVBAoTBFBTUEwxETAP
BgNVBAsTCE9CTElYLVFBMQ8wDQYDVQQDEwZwczI0MzYxHTAbBgkqhkiG9w0BCQEW
DnNhZ2FyQHBzcGwuY29tMB4XDTA5MDMxNjA4MTI0MFoXDTEwMDMxNjA4MTI0MFow
OzETMBEGA1UEAxMKQW5pbCBHdXB0YTEkMCIGCSqGSIb3DQEJARYVYW5pbC5ndXB0
YUBvcmFjbGUuY29tMIGfMA0GCSqGSIb3DQEBAQUAA4GNADCBiQKBgQDUBn8W4hW3
nvI5IYanUxdQfNqIvBWVG8cEKWvcuJXQx8aa5rkYt61N3CbfPv+u/h3tmgVFNNDL
IB5waZVGjbgAYeqURa5p9jtnoQT1XRFhlm0bmVjRB0wv8gfQs7/yn8Mq19DCaTSw
SAN1VaFp/dm3YY9lHZUZrxQE0fstPga/TwIDAQABo3IwcDAgBgNVHREEGTAXgRVh
bmlsLmd1cHRhQG9yYWNsZS5jb20wDAYDVR0TAQH/BAIwADAfBgNVHSMEGDAWgBTb
+GoVCoJTH8LrzNBug3JX5EXydDAdBgNVHSUEFjAUBggrBgEFBQcDAgYIKwYBBQUH
AwQwDQYJKoZIhvcNAQEEBQADgYEAnWjlc5TFeDeeadLzdyh3UeNml5Ao+N0bqXtw
3Rs02WTiGY3VuWZYNODoV28AfvTmbQWjrSDfGq2/pwVTSDFl/NtvMDJz4ENdvjLx
iGqPASEWeepT/3gJJOSWoHp615EPggjVHl0KTgX5dokCOKWk0UsabJLawBg65Vsu
Z2/bLlk=
-----END CERTIFICATE-----
