Certificate:
    Data:
        Version: 3 (0x2)
        Serial Number: 129 (0x81)
        Signature Algorithm: md5WithRSAEncryption
        Issuer: C=MY, ST=MAHA, L=PUNE, O=PSPL, OU=OBLIX-QA, CN=ps2436/emailAddress=sagar@pspl.com
        Validity
            Not Before: Mar 16 13:22:56 2009 GMT
            Not After : Mar 16 13:22:56 2010 GMT
        Subject: C=IN, ST=Maharashtra, L=pune, O=psl, OU=oblixqa, CN=ps2633.persistent.co.in
        Subject Public Key Info:
            Public Key Algorithm: rsaEncryption
            RSA Public Key: (1024 bit)
                Modulus (1024 bit):
                    00:d1:ee:23:58:d0:d1:80:77:06:12:24:3f:9e:20:
                    db:72:85:01:58:ea:a6:3c:9f:a8:b2:bc:bd:e5:e9:
                    3e:a4:3f:4b:0e:c1:6c:80:0f:4e:fb:24:bd:17:4a:
                    fc:64:fa:ae:01:71:2c:a8:d4:42:9b:27:60:e9:c5:
                    cd:91:04:25:35:47:af:f8:52:bf:10:75:46:6f:29:
                    98:c4:d4:b8:9d:77:51:d2:92:ae:78:8f:a1:69:e7:
                    ec:98:d0:70:fb:76:43:6e:68:83:8d:db:6f:84:52:
                    0a:e4:0b:2f:96:55:22:3d:6d:1b:b7:38:a4:02:5c:
                    60:fa:01:e1:15:4e:12:f1:f7
                Exponent: 65537 (0x10001)
        X509v3 extensions:
            X509v3 Authority Key Identifier: 
            keyid:DB:F8:6A:15:0A:82:53:1F:C2:EB:CC:D0:6E:83:72:57:E4:45:F2:74

            X509v3 Extended Key Usage: 
            TLS Web Server Authentication, TLS Web Client Authentication, Microsoft Server Gated Crypto, Netscape Server Gated Crypto
            X509v3 Basic Constraints: critical
            CA:FALSE
    Signature Algorithm: md5WithRSAEncryption
        25:82:b1:d5:ad:c8:d9:9b:d0:e8:d4:d9:b8:fc:8c:c2:8d:83:
        5b:cf:50:5c:68:48:4e:38:c7:d3:94:86:81:04:56:34:b3:c5:
        33:bf:9d:56:7a:65:24:ee:d8:5a:ac:35:d9:29:ca:d7:53:52:
        8e:7e:47:62:35:16:91:60:bd:5c:f4:9a:24:e5:fc:94:28:7e:
        7f:85:89:3b:32:32:9e:9e:87:58:b2:bc:85:28:f8:94:85:27:
        5b:a0:83:3e:6e:ff:0a:f9:df:de:7a:2f:1b:30:90:c1:e3:5b:
        03:b6:05:d9:63:a4:b9:c7:4d:ee:47:92:aa:7a:b4:b7:b6:3d:
        a9:d0
-----BEGIN CERTIFICATE-----
MIICzzCCAjigAwIBAgICAIEwDQYJKoZIhvcNAQEEBQAwfTELMAkGA1UEBhMCTVkx
DTALBgNVBAgTBE1BSEExDTALBgNVBAcTBFBVTkUxDTALBgNVBAoTBFBTUEwxETAP
BgNVBAsTCE9CTElYLVFBMQ8wDQYDVQQDEwZwczI0MzYxHTAbBgkqhkiG9w0BCQEW
DnNhZ2FyQHBzcGwuY29tMB4XDTA5MDMxNjEzMjI1NloXDTEwMDMxNjEzMjI1Nlow
dDELMAkGA1UEBhMCSU4xFDASBgNVBAgTC01haGFyYXNodHJhMQ0wCwYDVQQHEwRw
dW5lMQwwCgYDVQQKEwNwc2wxEDAOBgNVBAsTB29ibGl4cWExIDAeBgNVBAMTF3Bz
MjYzMy5wZXJzaXN0ZW50LmNvLmluMIGfMA0GCSqGSIb3DQEBAQUAA4GNADCBiQKB
gQDR7iNY0NGAdwYSJD+eINtyhQFY6qY8n6iyvL3l6T6kP0sOwWyAD077JL0XSvxk
+q4BcSyo1EKbJ2Dpxc2RBCU1R6/4Ur8QdUZvKZjE1Lidd1HSkq54j6Fp5+yY0HD7
dkNuaION22+EUgrkCy+WVSI9bRu3OKQCXGD6AeEVThLx9wIDAQABo2cwZTAfBgNV
HSMEGDAWgBTb+GoVCoJTH8LrzNBug3JX5EXydDA0BgNVHSUELTArBggrBgEFBQcD
AQYIKwYBBQUHAwIGCisGAQQBgjcKAwMGCWCGSAGG+EIEATAMBgNVHRMBAf8EAjAA
MA0GCSqGSIb3DQEBBAUAA4GBACWCsdWtyNmb0OjU2bj8jMKNg1vPUFxoSE44x9OU
hoEEVjSzxTO/nVZ6ZSTu2FqsNdkpytdTUo5+R2I1FpFgvVz0miTl/JQofn+FiTsy
Mp6eh1iyvIUo+JSFJ1uggz5u/wr53956LxswkMHjWwO2BdljpLnHTe5Hkqp6tLe2
PanQ
-----END CERTIFICATE-----
