Certificate:
    Data:
        Version: 3 (0x2)
        Serial Number: 130 (0x82)
        Signature Algorithm: md5WithRSAEncryption
        Issuer: C=MY, ST=MAHA, L=PUNE, O=PSPL, OU=OBLIX-QA, CN=ps2436/emailAddress=sagar@pspl.com
        Validity
            Not Before: Mar 24 05:34:01 2009 GMT
            Not After : Mar 24 05:34:01 2010 GMT
        Subject: C=IN, ST=maharashtra, L=pune, O=psl, OU=oblix, CN=godzilla.persistent.co.in
        Subject Public Key Info:
            Public Key Algorithm: rsaEncryption
            RSA Public Key: (1024 bit)
                Modulus (1024 bit):
                    00:b5:03:c6:c5:b8:38:74:1c:09:2f:f6:86:4c:c5:
                    79:c7:0d:f1:45:95:e8:5e:4e:29:94:2f:9e:e4:b1:
                    8e:52:ca:43:56:74:51:2a:a1:70:67:2e:fb:0e:5c:
                    8c:ff:14:4d:e7:3d:b2:99:f4:f4:fb:7b:f4:76:03:
                    5a:dd:8d:47:55:2c:b2:bc:47:df:19:16:44:14:07:
                    b2:0b:f5:03:ef:1a:ec:2c:a7:4a:fc:48:78:bb:49:
                    63:cd:de:6f:d7:a4:7a:57:75:e3:21:5a:88:4d:66:
                    ff:93:3c:4d:ea:ab:1e:75:44:94:c8:60:00:68:62:
                    7e:bb:90:7c:e8:65:18:9c:f3
                Exponent: 65537 (0x10001)
        X509v3 extensions:
            X509v3 Authority Key Identifier: 
            keyid:DB:F8:6A:15:0A:82:53:1F:C2:EB:CC:D0:6E:83:72:57:E4:45:F2:74

            X509v3 Extended Key Usage: 
            TLS Web Server Authentication, TLS Web Client Authentication, Microsoft Server Gated Crypto, Netscape Server Gated Crypto
            X509v3 Basic Constraints: critical
            CA:FALSE
    Signature Algorithm: md5WithRSAEncryption
        07:9e:4f:04:99:2f:a0:f3:16:41:fd:51:59:a2:4d:2a:bf:2e:
        95:70:b6:90:28:2e:ca:b2:2c:9b:44:d7:74:c2:0b:89:0b:5f:
        c0:6a:f0:e7:f2:74:56:62:54:58:bf:2f:59:6e:a7:95:76:d9:
        b4:62:a1:ae:b8:06:5a:a2:13:0f:26:2a:24:66:8c:32:19:19:
        a8:b8:9b:ae:fa:e2:17:8a:6c:90:08:a6:38:f2:8e:92:d2:f4:
        dc:df:2e:d5:11:fa:e1:b3:0e:24:e9:b7:c0:67:dd:a8:6a:e2:
        10:e4:9e:dd:08:5a:57:f8:00:81:d9:e6:3a:6e:91:3c:47:b3:
        7b:2c
-----BEGIN CERTIFICATE-----
MIICzzCCAjigAwIBAgICAIIwDQYJKoZIhvcNAQEEBQAwfTELMAkGA1UEBhMCTVkx
DTALBgNVBAgTBE1BSEExDTALBgNVBAcTBFBVTkUxDTALBgNVBAoTBFBTUEwxETAP
BgNVBAsTCE9CTElYLVFBMQ8wDQYDVQQDEwZwczI0MzYxHTAbBgkqhkiG9w0BCQEW
DnNhZ2FyQHBzcGwuY29tMB4XDTA5MDMyNDA1MzQwMVoXDTEwMDMyNDA1MzQwMVow
dDELMAkGA1UEBhMCSU4xFDASBgNVBAgTC21haGFyYXNodHJhMQ0wCwYDVQQHEwRw
dW5lMQwwCgYDVQQKEwNwc2wxDjAMBgNVBAsTBW9ibGl4MSIwIAYDVQQDExlnb2R6
aWxsYS5wZXJzaXN0ZW50LmNvLmluMIGfMA0GCSqGSIb3DQEBAQUAA4GNADCBiQKB
gQC1A8bFuDh0HAkv9oZMxXnHDfFFleheTimUL57ksY5SykNWdFEqoXBnLvsOXIz/
FE3nPbKZ9PT7e/R2A1rdjUdVLLK8R98ZFkQUB7IL9QPvGuwsp0r8SHi7SWPN3m/X
pHpXdeMhWohNZv+TPE3qqx51RJTIYABoYn67kHzoZRic8wIDAQABo2cwZTAfBgNV
HSMEGDAWgBTb+GoVCoJTH8LrzNBug3JX5EXydDA0BgNVHSUELTArBggrBgEFBQcD
AQYIKwYBBQUHAwIGCisGAQQBgjcKAwMGCWCGSAGG+EIEATAMBgNVHRMBAf8EAjAA
MA0GCSqGSIb3DQEBBAUAA4GBAAeeTwSZL6DzFkH9UVmiTSq/LpVwtpAoLsqyLJtE
13TCC4kLX8Bq8OfydFZiVFi/L1lup5V22bRioa64BlqiEw8mKiRmjDIZGai4m676
4heKbJAIpjjyjpLS9NzfLtUR+uGzDiTpt8Bn3ahq4hDknt0IWlf4AIHZ5jpukTxH
s3ss
-----END CERTIFICATE-----
