Certificate:
    Data:
        Version: 3 (0x2)
        Serial Number: 131 (0x83)
        Signature Algorithm: md5WithRSAEncryption
        Issuer: C=MY, ST=MAHA, L=PUNE, O=PSPL, OU=OBLIX-QA, CN=ps2436/emailAddress=sagar@pspl.com
        Validity
            Not Before: Mar 26 07:05:32 2009 GMT
            Not After : Mar 26 07:05:32 2010 GMT
        Subject: C=IN, ST=mah, L=pune, O=PSL, OU=oblix, CN=godzilla
        Subject Public Key Info:
            Public Key Algorithm: rsaEncryption
            RSA Public Key: (1024 bit)
                Modulus (1024 bit):
                    00:b4:41:c5:d1:64:6d:25:d8:80:a3:82:33:7f:99:
                    3f:90:38:2f:24:f1:b5:04:77:8e:32:34:cf:57:b4:
                    f2:9a:27:5c:97:a8:4a:3a:34:b1:8b:85:b6:1c:f1:
                    52:48:34:db:eb:7e:5b:42:51:a4:8e:c2:3f:d9:4f:
                    b8:c8:d2:c3:0c:b2:f0:26:ff:ce:c7:76:0e:50:89:
                    52:21:65:7d:92:c8:b7:6b:1d:2c:67:5b:32:64:52:
                    62:93:39:f5:75:7c:e3:66:fe:fb:40:8c:ae:4c:c6:
                    28:ce:bc:ec:f6:3b:a1:85:64:bb:f3:9d:98:0d:c4:
                    a9:38:e1:77:8c:52:23:34:f1
                Exponent: 65537 (0x10001)
        X509v3 extensions:
            X509v3 Authority Key Identifier: 
            keyid:DB:F8:6A:15:0A:82:53:1F:C2:EB:CC:D0:6E:83:72:57:E4:45:F2:74

            X509v3 Extended Key Usage: 
            TLS Web Server Authentication, TLS Web Client Authentication, Microsoft Server Gated Crypto, Netscape Server Gated Crypto
            X509v3 Basic Constraints: critical
            CA:FALSE
    Signature Algorithm: md5WithRSAEncryption
        0c:68:2c:1b:10:46:70:4e:a7:0b:62:1b:c8:69:60:ed:a4:5d:
        6f:d4:7d:d6:5b:ad:d2:2b:bf:ab:19:51:f9:07:2c:7e:3d:cd:
        f2:d4:59:3c:c3:fb:95:22:4a:b2:82:06:cd:07:1c:42:10:bc:
        88:34:a5:41:d7:85:52:0b:1e:47:a7:21:72:ea:ea:b4:84:a2:
        2b:e7:4f:f9:4c:31:15:9d:6c:45:7c:66:8c:cd:5a:7b:49:66:
        e6:d8:87:c1:ef:50:b1:e1:a8:9a:3c:b2:fb:42:57:b5:49:74:
        2e:ea:0f:ae:39:cb:c2:67:06:5e:61:7e:68:ad:d6:51:f8:67:
        27:96
-----BEGIN CERTIFICATE-----
MIICtjCCAh+gAwIBAgICAIMwDQYJKoZIhvcNAQEEBQAwfTELMAkGA1UEBhMCTVkx
DTALBgNVBAgTBE1BSEExDTALBgNVBAcTBFBVTkUxDTALBgNVBAoTBFBTUEwxETAP
BgNVBAsTCE9CTElYLVFBMQ8wDQYDVQQDEwZwczI0MzYxHTAbBgkqhkiG9w0BCQEW
DnNhZ2FyQHBzcGwuY29tMB4XDTA5MDMyNjA3MDUzMloXDTEwMDMyNjA3MDUzMlow
WzELMAkGA1UEBhMCSU4xDDAKBgNVBAgTA21haDENMAsGA1UEBxMEcHVuZTEMMAoG
A1UEChMDUFNMMQ4wDAYDVQQLEwVvYmxpeDERMA8GA1UEAxMIZ29kemlsbGEwgZ8w
DQYJKoZIhvcNAQEBBQADgY0AMIGJAoGBALRBxdFkbSXYgKOCM3+ZP5A4LyTxtQR3
jjI0z1e08ponXJeoSjo0sYuFthzxUkg02+t+W0JRpI7CP9lPuMjSwwyy8Cb/zsd2
DlCJUiFlfZLIt2sdLGdbMmRSYpM59XV842b++0CMrkzGKM687PY7oYVku/OdmA3E
qTjhd4xSIzTxAgMBAAGjZzBlMB8GA1UdIwQYMBaAFNv4ahUKglMfwuvM0G6Dclfk
RfJ0MDQGA1UdJQQtMCsGCCsGAQUFBwMBBggrBgEFBQcDAgYKKwYBBAGCNwoDAwYJ
YIZIAYb4QgQBMAwGA1UdEwEB/wQCMAAwDQYJKoZIhvcNAQEEBQADgYEADGgsGxBG
cE6nC2IbyGlg7aRdb9R91lut0iu/qxlR+Qcsfj3N8tRZPMP7lSJKsoIGzQccQhC8
iDSlQdeFUgseR6chcurqtISiK+dP+UwxFZ1sRXxmjM1ae0lm5tiHwe9QseGomjyy
+0JXtUl0LuoPrjnLwmcGXmF+aK3WUfhnJ5Y=
-----END CERTIFICATE-----
