Certificate:
    Data:
        Version: 3 (0x2)
        Serial Number: 132 (0x84)
        Signature Algorithm: md5WithRSAEncryption
        Issuer: C=MY, ST=MAHA, L=PUNE, O=PSPL, OU=OBLIX-QA, CN=ps2436/emailAddress=sagar@pspl.com
        Validity
            Not Before: Jul 15 14:02:24 2009 GMT
            Not After : Jul 15 14:02:24 2010 GMT
        Subject: C=US, ST=Maha, L=Pune, O=Oracle, OU=OAM11g, CN=dadvmc0407.us.oracle.com/emailAddress=sagar@psl.com
        Subject Public Key Info:
            Public Key Algorithm: rsaEncryption
            RSA Public Key: (1024 bit)
                Modulus (1024 bit):
                    00:e3:74:71:00:1c:4f:90:33:9e:b1:fb:f8:79:55:
                    0a:78:a8:da:01:f1:99:23:8e:51:16:bc:52:71:fb:
                    2b:d5:02:35:32:2e:2b:0c:c8:10:90:1f:c0:06:d2:
                    97:2e:9e:97:6f:0f:7c:64:c2:a0:48:a6:60:69:92:
                    9b:14:9e:b3:a8:e3:f8:3f:9a:a7:2f:d7:1c:0d:cd:
                    fa:82:84:e1:a9:4c:ac:30:d0:71:e5:a0:12:a1:a0:
                    29:c9:72:a1:f2:e1:68:8a:d6:35:72:6a:59:55:39:
                    1a:98:9f:b0:44:5a:2c:3f:be:a8:61:a2:c7:1a:3a:
                    f3:19:48:f1:8e:f5:a2:f0:61
                Exponent: 65537 (0x10001)
        X509v3 extensions:
            X509v3 Authority Key Identifier: 
            keyid:DB:F8:6A:15:0A:82:53:1F:C2:EB:CC:D0:6E:83:72:57:E4:45:F2:74

            X509v3 Extended Key Usage: 
            TLS Web Server Authentication, TLS Web Client Authentication, Microsoft Server Gated Crypto, Netscape Server Gated Crypto
            X509v3 Basic Constraints: critical
            CA:FALSE
    Signature Algorithm: md5WithRSAEncryption
        6c:11:1e:b0:ed:3f:6a:dd:98:33:fd:75:4b:09:ef:c5:4c:e2:
        7b:8b:da:df:3f:fa:24:92:03:bf:4d:8b:c7:15:be:31:6a:67:
        df:a9:66:89:96:f8:f9:f0:f6:d6:9e:3c:29:61:fd:d0:c3:dd:
        a7:24:dc:bb:a9:23:e7:8d:ca:57:eb:43:21:9c:d8:b3:eb:9d:
        22:6f:92:10:e0:90:cb:57:78:ee:87:5d:6b:fb:12:5f:89:c7:
        f9:9c:07:d5:5d:22:54:ee:50:6b:b6:1e:e1:be:d2:0f:e5:ad:
        08:25:d1:8f:8c:10:98:3d:16:79:0c:7e:ee:c6:02:05:cb:8c:
        6c:3c
-----BEGIN CERTIFICATE-----
MIIC6jCCAlOgAwIBAgICAIQwDQYJKoZIhvcNAQEEBQAwfTELMAkGA1UEBhMCTVkx
DTALBgNVBAgTBE1BSEExDTALBgNVBAcTBFBVTkUxDTALBgNVBAoTBFBTUEwxETAP
BgNVBAsTCE9CTElYLVFBMQ8wDQYDVQQDEwZwczI0MzYxHTAbBgkqhkiG9w0BCQEW
DnNhZ2FyQHBzcGwuY29tMB4XDTA5MDcxNTE0MDIyNFoXDTEwMDcxNTE0MDIyNFow
gY4xCzAJBgNVBAYTAlVTMQ0wCwYDVQQIEwRNYWhhMQ0wCwYDVQQHEwRQdW5lMQ8w
DQYDVQQKEwZPcmFjbGUxDzANBgNVBAsTBk9BTTExZzEhMB8GA1UEAxMYZGFkdm1j
MDQwNy51cy5vcmFjbGUuY29tMRwwGgYJKoZIhvcNAQkBFg1zYWdhckBwc2wuY29t
MIGfMA0GCSqGSIb3DQEBAQUAA4GNADCBiQKBgQDjdHEAHE+QM56x+/h5VQp4qNoB
8ZkjjlEWvFJx+yvVAjUyLisMyBCQH8AG0pcunpdvD3xkwqBIpmBpkpsUnrOo4/g/
mqcv1xwNzfqChOGpTKww0HHloBKhoCnJcqHy4WiK1jVyallVORqYn7BEWiw/vqhh
oscaOvMZSPGO9aLwYQIDAQABo2cwZTAfBgNVHSMEGDAWgBTb+GoVCoJTH8LrzNBu
g3JX5EXydDA0BgNVHSUELTArBggrBgEFBQcDAQYIKwYBBQUHAwIGCisGAQQBgjcK
AwMGCWCGSAGG+EIEATAMBgNVHRMBAf8EAjAAMA0GCSqGSIb3DQEBBAUAA4GBAGwR
HrDtP2rdmDP9dUsJ78VM4nuL2t8/+iSSA79Ni8cVvjFqZ9+pZomW+Pnw9taePClh
/dDD3ack3LupI+eNylfrQyGc2LPrnSJvkhDgkMtXeO6HXWv7El+Jx/mcB9VdIlTu
UGu2HuG+0g/lrQgl0Y+MEJg9FnkMfu7GAgXLjGw8
-----END CERTIFICATE-----
