Certificate:
    Data:
        Version: 3 (0x2)
        Serial Number: 2 (0x2)
        Signature Algorithm: md5WithRSAEncryption
        Issuer: C=MY, ST=MAHA, L=PUNE, O=PSPL, OU=OBLIX-QA, CN=ps2436/emailAddress=sagar@pspl.com
        Validity
            Not Before: May  9 17:03:23 2013 GMT
            Not After : May  9 17:03:23 2014 GMT
        Subject: CN=mayank/emailAddress=mac@mac.com
        Subject Public Key Info:
            Public Key Algorithm: rsaEncryption
            RSA Public Key: (1024 bit)
                Modulus (1024 bit):
                    00:ab:2f:c8:0a:81:e0:a7:68:1d:0d:db:a3:47:cb:
                    74:96:18:48:3b:3d:4c:47:b6:9d:46:91:2c:bd:aa:
                    ec:00:15:8b:21:6d:57:da:b9:60:0e:54:c5:d8:2f:
                    2d:c1:1c:03:39:2d:19:8a:3e:95:35:f9:81:b6:1d:
                    85:8f:2d:65:08:4b:d5:1e:e5:97:a5:ae:42:40:6c:
                    49:53:59:e2:91:d6:a5:03:c3:13:16:40:87:76:3a:
                    b6:3d:82:5e:22:c6:e9:5c:c1:ff:20:17:da:c6:92:
                    12:57:e9:a0:94:72:12:2a:e6:c6:a2:47:48:07:d4:
                    fc:23:52:b0:51:2a:3a:45:2f
                Exponent: 65537 (0x10001)
        X509v3 extensions:
            X509v3 Subject Alternative Name: 
                email:mac@mac.com
            X509v3 Basic Constraints: critical
                CA:FALSE
            X509v3 Authority Key Identifier: 
                keyid:DB:F8:6A:15:0A:82:53:1F:C2:EB:CC:D0:6E:83:72:57:E4:45:F2:74

            X509v3 Extended Key Usage: 
                TLS Web Client Authentication, E-mail Protection
    Signature Algorithm: md5WithRSAEncryption
        3c:53:e8:b1:aa:6f:73:97:89:b5:0a:d9:88:79:b9:87:ab:48:
        36:62:4f:b1:dc:c6:39:40:d7:8e:c1:da:e9:e8:fe:64:48:d8:
        f0:d6:cf:6a:04:92:69:1d:5e:64:6a:1f:32:b0:83:54:82:f7:
        a2:29:10:3d:f8:c3:81:f0:c0:53:e8:b8:d2:4d:cb:e2:eb:9f:
        82:c2:7b:da:69:8d:b2:48:da:13:50:6c:12:26:7a:18:2a:35:
        07:ec:6d:a2:1b:92:fe:ed:a8:a3:b1:9f:b1:cf:6a:30:af:be:
        b4:60:11:6d:ae:fc:fd:04:43:98:01:bd:6d:ac:3e:18:80:66:
        53:66
-----BEGIN CERTIFICATE-----
MIICiDCCAfGgAwIBAgIBAjANBgkqhkiG9w0BAQQFADB9MQswCQYDVQQGEwJNWTEN
MAsGA1UECBMETUFIQTENMAsGA1UEBxMEUFVORTENMAsGA1UEChMEUFNQTDERMA8G
A1UECxMIT0JMSVgtUUExDzANBgNVBAMTBnBzMjQzNjEdMBsGCSqGSIb3DQEJARYO
c2FnYXJAcHNwbC5jb20wHhcNMTMwNTA5MTcwMzIzWhcNMTQwNTA5MTcwMzIzWjAt
MQ8wDQYDVQQDEwZtYXlhbmsxGjAYBgkqhkiG9w0BCQEWC21hY0BtYWMuY29tMIGf
MA0GCSqGSIb3DQEBAQUAA4GNADCBiQKBgQCrL8gKgeCnaB0N26NHy3SWGEg7PUxH
tp1GkSy9quwAFYshbVfauWAOVMXYLy3BHAM5LRmKPpU1+YG2HYWPLWUIS9Ue5Zel
rkJAbElTWeKR1qUDwxMWQId2OrY9gl4ixulcwf8gF9rGkhJX6aCUchIq5saiR0gH
1PwjUrBRKjpFLwIDAQABo2gwZjAWBgNVHREEDzANgQttYWNAbWFjLmNvbTAMBgNV
HRMBAf8EAjAAMB8GA1UdIwQYMBaAFNv4ahUKglMfwuvM0G6DclfkRfJ0MB0GA1Ud
JQQWMBQGCCsGAQUFBwMCBggrBgEFBQcDBDANBgkqhkiG9w0BAQQFAAOBgQA8U+ix
qm9zl4m1CtmIebmHq0g2Yk+x3MY5QNeOwdrp6P5kSNjw1s9qBJJpHV5kah8ysINU
gveiKRA9+MOB8MBT6LjSTcvi65+CwnvaaY2ySNoTUGwSJnoYKjUH7G2iG5L+7aij
sZ+xz2owr760YBFtrvz9BEOYAb1trD4YgGZTZg==
-----END CERTIFICATE-----
