Certificate:
    Data:
        Version: 3 (0x2)
        Serial Number: 3 (0x3)
        Signature Algorithm: md5WithRSAEncryption
        Issuer: C=MY, ST=MAHA, L=PUNE, O=PSPL, OU=OBLIX-QA, CN=ps2436/emailAddress=sagar@pspl.com
        Validity
            Not Before: May  9 17:11:34 2013 GMT
            Not After : May  9 17:11:34 2014 GMT
        Subject: CN=tstusr1/emailAddress=tst@usr.com
        Subject Public Key Info:
            Public Key Algorithm: rsaEncryption
            RSA Public Key: (1024 bit)
                Modulus (1024 bit):
                    00:b4:c2:35:c9:c7:3e:be:36:a3:25:7d:55:73:f6:
                    3d:88:bc:0d:d1:fd:78:8c:1e:85:85:7c:a0:8e:dc:
                    a6:67:fb:30:e2:7f:65:1f:3c:16:8f:99:af:a1:89:
                    27:6c:e8:45:ee:38:4b:55:68:f8:13:60:e4:1c:47:
                    b8:09:d6:25:9b:9e:8f:5b:88:2a:91:9a:4b:d5:7b:
                    ee:72:68:6d:cd:4d:a6:41:ee:a2:51:12:87:7f:56:
                    67:bc:16:ac:63:b7:91:f1:7c:9c:9d:56:b5:7a:6f:
                    d9:c8:3d:76:d3:c5:d8:1f:ee:ec:8a:44:54:be:c0:
                    38:46:41:bc:d6:0c:95:37:c3
                Exponent: 65537 (0x10001)
        X509v3 extensions:
            X509v3 Subject Alternative Name: 
                email:tst@usr.com
            X509v3 Basic Constraints: critical
                CA:FALSE
            X509v3 Authority Key Identifier: 
                keyid:DB:F8:6A:15:0A:82:53:1F:C2:EB:CC:D0:6E:83:72:57:E4:45:F2:74

            X509v3 Extended Key Usage: 
                TLS Web Client Authentication, E-mail Protection
    Signature Algorithm: md5WithRSAEncryption
        6b:74:a2:ae:3b:2d:2c:b9:77:92:c4:4b:af:ee:00:89:bc:ba:
        2e:59:05:10:1a:38:70:35:25:46:b8:e4:f0:32:4f:be:cc:d4:
        95:d1:88:17:88:32:f3:8c:5f:f6:da:a7:3b:df:35:a5:13:b0:
        26:fe:82:e9:10:47:93:46:16:91:54:c2:38:20:e4:e8:52:be:
        21:7b:a2:b3:25:cb:96:83:17:0f:10:38:b9:29:02:a6:3b:dd:
        ee:d7:78:24:b0:f6:25:59:db:bb:42:b6:b1:cb:6a:46:76:b5:
        47:2c:ff:75:a8:c7:8b:e8:bf:4a:c4:9b:ef:07:ec:85:2d:05:
        98:63
-----BEGIN CERTIFICATE-----
MIICiTCCAfKgAwIBAgIBAzANBgkqhkiG9w0BAQQFADB9MQswCQYDVQQGEwJNWTEN
MAsGA1UECBMETUFIQTENMAsGA1UEBxMEUFVORTENMAsGA1UEChMEUFNQTDERMA8G
A1UECxMIT0JMSVgtUUExDzANBgNVBAMTBnBzMjQzNjEdMBsGCSqGSIb3DQEJARYO
c2FnYXJAcHNwbC5jb20wHhcNMTMwNTA5MTcxMTM0WhcNMTQwNTA5MTcxMTM0WjAu
MRAwDgYDVQQDEwd0c3R1c3IxMRowGAYJKoZIhvcNAQkBFgt0c3RAdXNyLmNvbTCB
nzANBgkqhkiG9w0BAQEFAAOBjQAwgYkCgYEAtMI1ycc+vjajJX1Vc/Y9iLwN0f14
jB6FhXygjtymZ/sw4n9lHzwWj5mvoYknbOhF7jhLVWj4E2DkHEe4CdYlm56PW4gq
kZpL1XvucmhtzU2mQe6iURKHf1ZnvBasY7eR8XycnVa1em/ZyD1208XYH+7sikRU
vsA4RkG81gyVN8MCAwEAAaNoMGYwFgYDVR0RBA8wDYELdHN0QHVzci5jb20wDAYD
VR0TAQH/BAIwADAfBgNVHSMEGDAWgBTb+GoVCoJTH8LrzNBug3JX5EXydDAdBgNV
HSUEFjAUBggrBgEFBQcDAgYIKwYBBQUHAwQwDQYJKoZIhvcNAQEEBQADgYEAa3Si
rjstLLl3ksRLr+4Aiby6LlkFEBo4cDUlRrjk8DJPvszUldGIF4gy84xf9tqnO981
pROwJv6C6RBHk0YWkVTCOCDk6FK+IXuisyXLloMXDxA4uSkCpjvd7td4JLD2JVnb
u0K2sctqRna1Ryz/dajHi+i/SsSb7wfshS0FmGM=
-----END CERTIFICATE-----
