Certificate:
    Data:
        Version: 3 (0x2)
        Serial Number: 5 (0x5)
        Signature Algorithm: md5WithRSAEncryption
        Issuer: C=MY, ST=MAHA, L=PUNE, O=PSPL, OU=OBLIX-QA, CN=ps2436/emailAddress=sagar@pspl.com
        Validity
            Not Before: May 27 06:30:31 2013 GMT
            Not After : May 27 06:30:31 2014 GMT
        Subject: CN=tstusr1/emailAddress=tst@usr.com
        Subject Public Key Info:
            Public Key Algorithm: rsaEncryption
            RSA Public Key: (1024 bit)
                Modulus (1024 bit):
                    00:be:0c:00:c1:ff:7b:42:e5:54:7c:b5:18:7e:ee:
                    28:ec:c2:35:d8:15:7d:3f:f3:09:93:2f:83:b7:7c:
                    f7:dd:b2:25:30:86:cd:68:56:d4:0f:df:4e:db:4e:
                    1a:b5:87:7f:04:21:2c:dd:f2:b5:03:08:8b:05:27:
                    af:5b:94:83:ac:a4:56:cd:b9:b6:bc:46:d8:06:f6:
                    b6:9d:35:3d:1c:89:6b:cd:56:30:03:05:a4:85:fc:
                    9c:9a:fb:3c:5b:f3:52:7a:04:5c:27:df:d5:f7:a0:
                    5f:d7:7f:95:e0:b7:e7:b0:f8:8a:61:0d:57:54:3a:
                    69:c5:2a:a1:44:26:53:f8:ab
                Exponent: 65537 (0x10001)
        X509v3 extensions:
            X509v3 Subject Alternative Name: 
                email:tst@usr.com
            X509v3 Basic Constraints: critical
                CA:FALSE
            X509v3 Authority Key Identifier: 
                keyid:DB:F8:6A:15:0A:82:53:1F:C2:EB:CC:D0:6E:83:72:57:E4:45:F2:74

            X509v3 Extended Key Usage: 
                TLS Web Client Authentication, E-mail Protection
            Authority Information Access: 
                OCSP - URI:http://slc03snd.us.oracle.com:9797

            X509v3 Key Usage: 
                Digital Signature, Non Repudiation, Key Encipherment
    Signature Algorithm: md5WithRSAEncryption
        0f:db:7e:80:ab:a6:1c:82:29:d3:45:1a:9a:8e:c7:85:c3:6f:
        d0:0a:c9:cb:8a:50:de:34:92:ee:24:e4:8f:2f:b3:e3:15:a4:
        24:35:f8:9b:92:24:55:38:8a:4d:b5:aa:86:7f:b0:d8:70:45:
        53:f1:f0:11:d0:ca:b6:8c:4b:64:49:39:d5:c3:10:49:0e:bd:
        2e:8e:65:96:2d:e6:fd:66:24:4d:19:bb:1f:94:13:45:29:0c:
        fd:ae:ef:cc:e9:82:59:be:21:40:98:5c:24:5a:df:78:dd:d3:
        97:3d:08:e4:04:98:6c:80:5f:73:f8:11:0b:0e:8d:66:fa:97:
        7d:6d
-----BEGIN CERTIFICATE-----
MIIC2DCCAkGgAwIBAgIBBTANBgkqhkiG9w0BAQQFADB9MQswCQYDVQQGEwJNWTEN
MAsGA1UECBMETUFIQTENMAsGA1UEBxMEUFVORTENMAsGA1UEChMEUFNQTDERMA8G
A1UECxMIT0JMSVgtUUExDzANBgNVBAMTBnBzMjQzNjEdMBsGCSqGSIb3DQEJARYO
c2FnYXJAcHNwbC5jb20wHhcNMTMwNTI3MDYzMDMxWhcNMTQwNTI3MDYzMDMxWjAu
MRAwDgYDVQQDEwd0c3R1c3IxMRowGAYJKoZIhvcNAQkBFgt0c3RAdXNyLmNvbTCB
nzANBgkqhkiG9w0BAQEFAAOBjQAwgYkCgYEAvgwAwf97QuVUfLUYfu4o7MI12BV9
P/MJky+Dt3z33bIlMIbNaFbUD99O204atYd/BCEs3fK1AwiLBSevW5SDrKRWzbm2
vEbYBva2nTU9HIlrzVYwAwWkhfycmvs8W/NSegRcJ9/V96Bf13+V4LfnsPiKYQ1X
VDppxSqhRCZT+KsCAwEAAaOBtjCBszAWBgNVHREEDzANgQt0c3RAdXNyLmNvbTAM
BgNVHRMBAf8EAjAAMB8GA1UdIwQYMBaAFNv4ahUKglMfwuvM0G6DclfkRfJ0MB0G
A1UdJQQWMBQGCCsGAQUFBwMCBggrBgEFBQcDBDA+BggrBgEFBQcBAQQyMDAwLgYI
KwYBBQUHMAGGImh0dHA6Ly9zbGMwM3NuZC51cy5vcmFjbGUuY29tOjk3OTcwCwYD
VR0PBAQDAgXgMA0GCSqGSIb3DQEBBAUAA4GBAA/bfoCrphyCKdNFGpqOx4XDb9AK
ycuKUN40ku4k5I8vs+MVpCQ1+JuSJFU4ik21qoZ/sNhwRVPx8BHQyraMS2RJOdXD
EEkOvS6OZZYt5v1mJE0Zux+UE0UpDP2u78zpglm+IUCYXCRa33jd05c9COQEmGyA
X3P4EQsOjWb6l31t
-----END CERTIFICATE-----
