Certificate:
    Data:
        Version: 3 (0x2)
        Serial Number: 6 (0x6)
        Signature Algorithm: md5WithRSAEncryption
        Issuer: C=MY, ST=MAHA, L=PUNE, O=PSPL, OU=OBLIX-QA, CN=ps2436/emailAddress=sagar@pspl.com
        Validity
            Not Before: May 27 06:33:49 2013 GMT
            Not After : May 27 06:33:49 2014 GMT
        Subject: CN=tstusr1/emailAddress=tst@usr.com
        Subject Public Key Info:
            Public Key Algorithm: rsaEncryption
            RSA Public Key: (1024 bit)
                Modulus (1024 bit):
                    00:be:0c:00:c1:ff:7b:42:e5:54:7c:b5:18:7e:ee:
                    28:ec:c2:35:d8:15:7d:3f:f3:09:93:2f:83:b7:7c:
                    f7:dd:b2:25:30:86:cd:68:56:d4:0f:df:4e:db:4e:
                    1a:b5:87:7f:04:21:2c:dd:f2:b5:03:08:8b:05:27:
                    af:5b:94:83:ac:a4:56:cd:b9:b6:bc:46:d8:06:f6:
                    b6:9d:35:3d:1c:89:6b:cd:56:30:03:05:a4:85:fc:
                    9c:9a:fb:3c:5b:f3:52:7a:04:5c:27:df:d5:f7:a0:
                    5f:d7:7f:95:e0:b7:e7:b0:f8:8a:61:0d:57:54:3a:
                    69:c5:2a:a1:44:26:53:f8:ab
                Exponent: 65537 (0x10001)
        X509v3 extensions:
            X509v3 Subject Alternative Name: 
                email:tst@usr.com
            X509v3 Basic Constraints: critical
                CA:FALSE
            X509v3 Authority Key Identifier: 
                keyid:DB:F8:6A:15:0A:82:53:1F:C2:EB:CC:D0:6E:83:72:57:E4:45:F2:74

            X509v3 Extended Key Usage: 
                TLS Web Client Authentication, E-mail Protection
            Authority Information Access: 
                OCSP - URI:http://localhost:9797

            X509v3 Key Usage: 
                Digital Signature, Non Repudiation, Key Encipherment
    Signature Algorithm: md5WithRSAEncryption
        3e:cd:fe:ad:1e:04:43:3c:64:b0:89:d5:12:90:47:82:b9:10:
        33:0a:0b:61:43:93:f3:fe:2c:51:df:21:16:7f:b1:c0:1c:59:
        d4:01:fd:84:0f:2c:3b:1b:1e:10:6c:1a:cb:23:48:81:48:99:
        7a:d0:9d:cc:93:a8:c0:a4:0e:68:e6:f4:05:a9:9f:02:f1:67:
        0d:4a:65:10:ac:84:cb:4b:74:1e:ac:5d:1c:4c:3a:90:af:24:
        4e:2f:e9:48:32:05:51:d4:8d:5d:0b:dd:c5:bd:88:d6:27:17:
        69:61:1a:f6:1b:1d:fd:e4:27:02:93:e4:f9:e5:9d:cc:9f:71:
        bf:74
-----BEGIN CERTIFICATE-----
MIICyzCCAjSgAwIBAgIBBjANBgkqhkiG9w0BAQQFADB9MQswCQYDVQQGEwJNWTEN
MAsGA1UECBMETUFIQTENMAsGA1UEBxMEUFVORTENMAsGA1UEChMEUFNQTDERMA8G
A1UECxMIT0JMSVgtUUExDzANBgNVBAMTBnBzMjQzNjEdMBsGCSqGSIb3DQEJARYO
c2FnYXJAcHNwbC5jb20wHhcNMTMwNTI3MDYzMzQ5WhcNMTQwNTI3MDYzMzQ5WjAu
MRAwDgYDVQQDEwd0c3R1c3IxMRowGAYJKoZIhvcNAQkBFgt0c3RAdXNyLmNvbTCB
nzANBgkqhkiG9w0BAQEFAAOBjQAwgYkCgYEAvgwAwf97QuVUfLUYfu4o7MI12BV9
P/MJky+Dt3z33bIlMIbNaFbUD99O204atYd/BCEs3fK1AwiLBSevW5SDrKRWzbm2
vEbYBva2nTU9HIlrzVYwAwWkhfycmvs8W/NSegRcJ9/V96Bf13+V4LfnsPiKYQ1X
VDppxSqhRCZT+KsCAwEAAaOBqTCBpjAWBgNVHREEDzANgQt0c3RAdXNyLmNvbTAM
BgNVHRMBAf8EAjAAMB8GA1UdIwQYMBaAFNv4ahUKglMfwuvM0G6DclfkRfJ0MB0G
A1UdJQQWMBQGCCsGAQUFBwMCBggrBgEFBQcDBDAxBggrBgEFBQcBAQQlMCMwIQYI
KwYBBQUHMAGGFWh0dHA6Ly9sb2NhbGhvc3Q6OTc5NzALBgNVHQ8EBAMCBeAwDQYJ
KoZIhvcNAQEEBQADgYEAPs3+rR4EQzxksInVEpBHgrkQMwoLYUOT8/4sUd8hFn+x
wBxZ1AH9hA8sOxseEGwayyNIgUiZetCdzJOowKQOaOb0BamfAvFnDUplEKyEy0t0
HqxdHEw6kK8kTi/pSDIFUdSNXQvdxb2I1icXaWEa9hsd/eQnApPk+eWdzJ9xv3Q=
-----END CERTIFICATE-----
