Certificate:
    Data:
        Version: 3 (0x2)
        Serial Number: 8 (0x8)
        Signature Algorithm: md5WithRSAEncryption
        Issuer: C=MY, ST=MAHA, L=PUNE, O=PSPL, OU=OBLIX-QA, CN=ps2436/emailAddress=sagar@pspl.com
        Validity
            Not Before: Jun 25 05:52:12 2013 GMT
            Not After : Jun 25 05:52:12 2014 GMT
        Subject: CN=tstusr4/emailAddress=tstusr4@oracle.com
        Subject Public Key Info:
            Public Key Algorithm: rsaEncryption
            RSA Public Key: (1024 bit)
                Modulus (1024 bit):
                    00:b9:17:31:26:35:1b:ea:8f:5b:99:fc:8a:39:1e:
                    ac:2e:09:8a:3d:65:1d:25:94:25:1e:8f:2e:4a:66:
                    d5:4a:92:c8:2f:68:08:c4:30:ba:33:58:68:0a:41:
                    d6:0e:19:eb:70:15:47:5f:6d:d2:62:1a:58:19:21:
                    29:60:f4:80:d8:f2:54:d8:e8:58:43:1c:a2:52:51:
                    b9:e5:b5:a7:00:db:a6:7a:5a:da:bb:e4:e1:90:d7:
                    33:c6:64:7f:69:d1:c0:5d:bb:57:3f:7f:1f:26:28:
                    4d:16:df:27:68:3b:73:54:40:6d:e3:f4:d1:d5:8c:
                    98:af:44:e0:bf:0d:02:b8:0f
                Exponent: 65537 (0x10001)
        X509v3 extensions:
            X509v3 Subject Alternative Name: 
                email:tstusr4@oracle.com
            X509v3 Basic Constraints: critical
                CA:FALSE
            X509v3 Authority Key Identifier: 
                keyid:DB:F8:6A:15:0A:82:53:1F:C2:EB:CC:D0:6E:83:72:57:E4:45:F2:74

            X509v3 Extended Key Usage: 
                TLS Web Client Authentication, E-mail Protection
            Authority Information Access: 
                OCSP - URI:http://adc2120018.us.oracle.com:9797

            X509v3 Key Usage: 
                Digital Signature, Non Repudiation, Key Encipherment
    Signature Algorithm: md5WithRSAEncryption
        47:16:b8:8c:cc:b6:fc:16:76:41:a4:93:c8:e3:6a:47:ab:22:
        27:dd:de:ba:90:de:4f:93:4a:34:46:29:8e:d2:08:ad:cc:0c:
        5a:d2:58:7f:6d:c9:3f:55:aa:7e:eb:fa:48:54:54:e8:31:e7:
        97:a9:d8:4e:0f:3d:46:27:67:8d:2b:15:93:6c:db:af:d8:14:
        bc:d7:6a:b0:82:85:22:59:42:48:f3:d1:6c:b4:1f:45:99:d4:
        4b:e5:43:41:35:f2:a6:ba:53:b2:c6:a0:c2:90:7d:df:5b:a9:
        63:b1:60:11:54:4e:bc:c5:a3:38:6e:b2:8c:06:f0:2f:63:81:
        7a:31
-----BEGIN CERTIFICATE-----
MIIC6DCCAlGgAwIBAgIBCDANBgkqhkiG9w0BAQQFADB9MQswCQYDVQQGEwJNWTEN
MAsGA1UECBMETUFIQTENMAsGA1UEBxMEUFVORTENMAsGA1UEChMEUFNQTDERMA8G
A1UECxMIT0JMSVgtUUExDzANBgNVBAMTBnBzMjQzNjEdMBsGCSqGSIb3DQEJARYO
c2FnYXJAcHNwbC5jb20wHhcNMTMwNjI1MDU1MjEyWhcNMTQwNjI1MDU1MjEyWjA1
MRAwDgYDVQQDEwd0c3R1c3I0MSEwHwYJKoZIhvcNAQkBFhJ0c3R1c3I0QG9yYWNs
ZS5jb20wgZ8wDQYJKoZIhvcNAQEBBQADgY0AMIGJAoGBALkXMSY1G+qPW5n8ijke
rC4Jij1lHSWUJR6PLkpm1UqSyC9oCMQwujNYaApB1g4Z63AVR19t0mIaWBkhKWD0
gNjyVNjoWEMcolJRueW1pwDbpnpa2rvk4ZDXM8Zkf2nRwF27Vz9/HyYoTRbfJ2g7
c1RAbeP00dWMmK9E4L8NArgPAgMBAAGjgb8wgbwwHQYDVR0RBBYwFIESdHN0dXNy
NEBvcmFjbGUuY29tMAwGA1UdEwEB/wQCMAAwHwYDVR0jBBgwFoAU2/hqFQqCUx/C
68zQboNyV+RF8nQwHQYDVR0lBBYwFAYIKwYBBQUHAwIGCCsGAQUFBwMEMEAGCCsG
AQUFBwEBBDQwMjAwBggrBgEFBQcwAYYkaHR0cDovL2FkYzIxMjAwMTgudXMub3Jh
Y2xlLmNvbTo5Nzk3MAsGA1UdDwQEAwIF4DANBgkqhkiG9w0BAQQFAAOBgQBHFriM
zLb8FnZBpJPI42pHqyIn3d66kN5Pk0o0RimO0gitzAxa0lh/bck/Vap+6/pIVFTo
MeeXqdhODz1GJ2eNKxWTbNuv2BS812qwgoUiWUJI89FstB9FmdRL5UNBNfKmulOy
xqDCkH3fW6ljsWARVE68xaM4brKMBvAvY4F6MQ==
-----END CERTIFICATE-----
